

HI-TECH Software PIC LITE Macro Assembler V9.82 build 9453 
                                                                                               Wed Nov 20 17:49:17 2019

HI-TECH Software Omniscient Code Generator (Lite mode) build 9453
     1  0000                     opt subtitle "HI-TECH Software Omniscient Code Generator (Lite mode) build 9453"
     2                           
     3                           opt pagewidth 120
     4                           
     5                           	opt lm
     6                           
     7                           	processor	16F886
     8                           clrc	macro
     9                           	bcf	3,0
    10  0000                     	endm
    11                           clrz	macro
    12                           	bcf	3,2
    13  0000                     	endm
    14                           setc	macro
    15                           	bsf	3,0
    16  0000                     	endm
    17                           setz	macro
    18                           	bsf	3,2
    19  0000                     	endm
    20                           skipc	macro
    21                           	btfss	3,0
    22  0000                     	endm
    23                           skipz	macro
    24                           	btfss	3,2
    25  0000                     	endm
    26                           skipnc	macro
    27                           	btfsc	3,0
    28  0000                     	endm
    29                           skipnz	macro
    30                           	btfsc	3,2
    31  0000                     	endm
    32  0000                     indf	equ	0
    33  0000                     indf0	equ	0
    34  0002                     pc	equ	2
    35  0002                     pcl	equ	2
    36  0003                     status	equ	3
    37  0004                     fsr	equ	4
    38  0004                     fsr0	equ	4
    39  0001                     c	equ	1
    40  0000                     z	equ	0
    41  000A                     pclath	equ	10
    42                           # 13 "main.h"
    43                           	psect config,class=CONFIG,delta=2 ;#
    44                           # 13 "main.h"
    45  2007  EFF5               	dw 0xFFFD & 0xFFF7 & 0xFFFF & 0xFFFF & 0xFFFF & 0xFFFF & 0xFFFF & 0xFFFF & 0xFFFF & 0xE
                                 FFF ;#
    46                           # 14 "main.h"
    47                           	psect config,class=CONFIG,delta=2 ;#
    48                           # 14 "main.h"
    49  2008  FFFF               	dw 0xFFFF & 0xFFFF ;#
    50                           	FNCALL	_main,_InitDevices
    51                           	FNCALL	_main,_write_IIC
    52                           	FNCALL	_main,_ReadADC
    53                           	FNCALL	_main,___lwdiv
    54                           	FNCALL	_main,_delaynms
    55                           	FNCALL	_main,_Motor_adjusting_speed
    56                           	FNCALL	_main,_MotorClose
    57                           	FNCALL	_main,_The_Close
    58                           	FNCALL	_MotorClose,_write_IIC
    59                           	FNCALL	_MotorClose,_delaynms
    60                           	FNCALL	_Motor_adjusting_speed,_write_IIC
    61                           	FNCALL	_The_Close,_delaynms
    62                           	FNCALL	_write_IIC,_Delay
    63                           	FNCALL	_InitDevices,_systemOSC
    64                           	FNCALL	_InitDevices,_PortInit
    65                           	FNCALL	_InitDevices,_InitTimer0
    66                           	FNCALL	_InitDevices,_InitTimer1
    67                           	FNCALL	_InitDevices,_IIC_init
    68                           	FNCALL	_InitDevices,_InitialiseADC
    69                           	FNCALL	_InitDevices,_InitTimer2
    70                           	FNCALL	_InitDevices,_InitCn
    71                           	FNROOT	_main
    72                           	FNCALL	_com,_RBCN_int
    73                           	FNCALL	_com,_TMR2_int
    74                           	FNCALL	_com,_TMR1_int
    75                           	FNCALL	intlevel1,_com
    76                           	global	intlevel1
    77                           	FNROOT	intlevel1
    78                           	global	_VOLT
    79                           	global	_Flag_FG_Period
    80                           psect	idataBANK0,class=CODE,space=0,delta=2
    81                           global __pidataBANK0
    82  075B                     __pidataBANK0:
    83                           	file	"work.h"
    84                           	line	20
    85                           
    86                           ;initializer for _VOLT
    87  075B  347E               	retlw	07Eh
    88  075C  3404               	retlw	04h
    89                           
    90                           	file	"Interrupt.h"
    91                           	line	6
    92                           
    93                           ;initializer for _Flag_FG_Period
    94  075D  3401               	retlw	01h
    95                           	global	ReadADC@ADC_VALUE
    96                           	global	_ADC_Val
    97                           	global	_BAT_LED_times
    98                           	global	_FG_Period_time
    99                           	global	_Flag_FG_Period_time
   100                           	global	_Flag_adjusting_speed
   101                           	global	_Flag_working_time
   102                           	global	_Open_Cover_times
   103                           	global	_REALVOLTAGE_BAT_DC
   104                           	global	_Speed_LED_times
   105                           	global	_ADC_RESULT_BAT
   106                           	global	_Forbid_input
   107                           	global	_Initial_Flag
   108                           	global	_Key_Run
   109                           	global	_Key_Up
   110                           	global	_Once
   111                           	global	_Onekey_Flag
   112                           	global	_Onekey_Key_Up
   113                           	global	_Onekey_times
   114                           	global	_Open_Cover_Flag
   115                           	global	_Start_Flag
   116                           	global	_Start_KeyRun_Flag
   117                           	global	_Stop_Flag
   118                           	global	_VOLT_H
   119                           	global	_VOLT_L
   120                           	global	_adsum
   121                           	global	_kai
   122                           	global	_Count_Flag
   123                           	global	_FG_CN_Count
   124                           	global	_Key_Run_times
   125                           	global	_Not_two
   126                           	global	_Work_Flag
   127                           	global	_RELAY_AC
   128                           	global	_RELAY_BAT
   129                           	global	_TMR1
   130  000E                     _TMR1	set	14
   131                           	global	_ADCON0
   132  001F                     _ADCON0	set	31
   133                           	global	_ADRESH
   134  001E                     _ADRESH	set	30
   135                           	global	_PORTA
   136  0005                     _PORTA	set	5
   137                           	global	_PORTAbits
   138  0005                     _PORTAbits	set	5
   139                           	global	_PORTB
   140  0006                     _PORTB	set	6
   141                           	global	_PORTBbits
   142  0006                     _PORTBbits	set	6
   143                           	global	_PORTC
   144  0007                     _PORTC	set	7
   145                           	global	_PORTCbits
   146  0007                     _PORTCbits	set	7
   147                           	global	_SSPBUF
   148  0013                     _SSPBUF	set	19
   149                           	global	_SSPCON
   150  0014                     _SSPCON	set	20
   151                           	global	_T1CON
   152  0010                     _T1CON	set	16
   153                           	global	_T1CONbits
   154  0010                     _T1CONbits	set	16
   155                           	global	_T2CON
   156  0012                     _T2CON	set	18
   157                           	global	_TMR0
   158  0001                     _TMR0	set	1
   159                           	global	_TMR2
   160  0011                     _TMR2	set	17
   161                           	global	_ADIF
   162  0066                     _ADIF	set	102
   163                           	global	_ADON
   164  00F8                     _ADON	set	248
   165                           	global	_CARRY
   166  0018                     _CARRY	set	24
   167                           	global	_GIE
   168  005F                     _GIE	set	95
   169                           	global	_GO
   170  00F9                     _GO	set	249
   171                           	global	_GO_DONE
   172  00F9                     _GO_DONE	set	249
   173                           	global	_PEIE
   174  005E                     _PEIE	set	94
   175                           	global	_RBIE
   176  005B                     _RBIE	set	91
   177                           	global	_RBIF
   178  0058                     _RBIF	set	88
   179                           	global	_SSPIF
   180  0063                     _SSPIF	set	99
   181                           	global	_T0IE
   182  005D                     _T0IE	set	93
   183                           	global	_TMR1CS
   184  0081                     _TMR1CS	set	129
   185                           	global	_TMR1IF
   186  0060                     _TMR1IF	set	96
   187                           	global	_TMR1ON
   188  0080                     _TMR1ON	set	128
   189                           	global	_TMR2IF
   190  0061                     _TMR2IF	set	97
   191                           	global	_TMR2ON
   192  0092                     _TMR2ON	set	146
   193                           	global	_ADCON1
   194  009F                     _ADCON1	set	159
   195                           	global	_ADRESL
   196  009E                     _ADRESL	set	158
   197                           	global	_IOCB
   198  0096                     _IOCB	set	150
   199                           	global	_OPTION_REG
   200  0081                     _OPTION_REG	set	129
   201                           	global	_OSCCON
   202  008F                     _OSCCON	set	143
   203                           	global	_PR2
   204  0092                     _PR2	set	146
   205                           	global	_SSPADD
   206  0093                     _SSPADD	set	147
   207                           	global	_SSPCON2
   208  0091                     _SSPCON2	set	145
   209                           	global	_SSPSTAT
   210  0094                     _SSPSTAT	set	148
   211                           	global	_TRISA
   212  0085                     _TRISA	set	133
   213                           	global	_TRISB
   214  0086                     _TRISB	set	134
   215                           	global	_TRISC
   216  0087                     _TRISC	set	135
   217                           	global	_ADIE
   218  0466                     _ADIE	set	1126
   219                           	global	_PEN
   220  048A                     _PEN	set	1162
   221                           	global	_SEN
   222  0488                     _SEN	set	1160
   223                           	global	_TMR1IE
   224  0460                     _TMR1IE	set	1120
   225                           	global	_TMR2IE
   226  0461                     _TMR2IE	set	1121
   227                           	global	_TRISC3
   228  043B                     _TRISC3	set	1083
   229                           	global	_TRISC4
   230  043C                     _TRISC4	set	1084
   231                           	global	_EEADR
   232  010D                     _EEADR	set	269
   233                           	global	_EEDATA
   234  010C                     _EEDATA	set	268
   235                           	global	_WDTCON
   236  0105                     _WDTCON	set	261
   237                           	global	_WDTCONbits
   238  0105                     _WDTCONbits	set	261
   239                           	global	_ANSEL
   240  0188                     _ANSEL	set	392
   241                           	global	_ANSELH
   242  0189                     _ANSELH	set	393
   243                           	global	_EECON1
   244  018C                     _EECON1	set	396
   245                           	global	_EECON2
   246  018D                     _EECON2	set	397
   247                           	global	_RD
   248  0C60                     _RD	set	3168
   249                           	global	_WR
   250  0C61                     _WR	set	3169
   251                           	global	_WREN
   252  0C62                     _WREN	set	3170
   253                           	file	"C:\Users\1\AppData\Local\Temp\s13hs."
   254                           	line	#
   255                           psect cinit,class=CODE,delta=2
   256                           global start_initialization
   257  066E                     start_initialization:
   258                           
   259                           psect	bitbssCOMMON,class=COMMON,bit,space=1
   260                           global __pbitbssCOMMON
   261  03D8                     __pbitbssCOMMON:
   262  03D8                     _RELAY_AC:
   263  03D8                            ds      1
   264                           
   265  03D9                     _RELAY_BAT:
   266  03D9                            ds      1
   267                           
   268                           psect	bssCOMMON,class=COMMON,space=1
   269                           global __pbssCOMMON
   270  0076                     __pbssCOMMON:
   271  0076                     _Count_Flag:
   272  0076                            ds      1
   273                           
   274  0077                     _FG_CN_Count:
   275  0077                            ds      1
   276                           
   277  0078                     _Key_Run_times:
   278  0078                            ds      1
   279                           
   280  0079                     _Not_two:
   281  0079                            ds      1
   282                           
   283  007A                     _Work_Flag:
   284  007A                            ds      1
   285                           
   286                           psect	bssBANK0,class=BANK0,space=1
   287                           global __pbssBANK0
   288  0020                     __pbssBANK0:
   289  0020                     ReadADC@ADC_VALUE:
   290  0020                            ds      2
   291                           
   292  0022                     _ADC_Val:
   293  0022                            ds      2
   294                           
   295  0024                     _BAT_LED_times:
   296  0024                            ds      2
   297                           
   298  0026                     _FG_Period_time:
   299  0026                            ds      2
   300                           
   301  0028                     _Flag_FG_Period_time:
   302  0028                            ds      2
   303                           
   304  002A                     _Flag_adjusting_speed:
   305  002A                            ds      2
   306                           
   307  002C                     _Flag_working_time:
   308  002C                            ds      2
   309                           
   310  002E                     _Open_Cover_times:
   311  002E                            ds      2
   312                           
   313  0030                     _REALVOLTAGE_BAT_DC:
   314  0030                            ds      2
   315                           
   316  0032                     _Speed_LED_times:
   317  0032                            ds      2
   318                           
   319  0034                     _ADC_RESULT_BAT:
   320  0034                            ds      1
   321                           
   322  0035                     _Forbid_input:
   323  0035                            ds      1
   324                           
   325  0036                     _Initial_Flag:
   326  0036                            ds      1
   327                           
   328  0037                     _Key_Run:
   329  0037                            ds      1
   330                           
   331  0038                     _Key_Up:
   332  0038                            ds      1
   333                           
   334  0039                     _Once:
   335  0039                            ds      1
   336                           
   337  003A                     _Onekey_Flag:
   338  003A                            ds      1
   339                           
   340  003B                     _Onekey_Key_Up:
   341  003B                            ds      1
   342                           
   343  003C                     _Onekey_times:
   344  003C                            ds      1
   345                           
   346  003D                     _Open_Cover_Flag:
   347  003D                            ds      1
   348                           
   349  003E                     _Start_Flag:
   350  003E                            ds      1
   351                           
   352  003F                     _Start_KeyRun_Flag:
   353  003F                            ds      1
   354                           
   355  0040                     _Stop_Flag:
   356  0040                            ds      1
   357                           
   358  0041                     _VOLT_H:
   359  0041                            ds      1
   360                           
   361  0042                     _VOLT_L:
   362  0042                            ds      1
   363                           
   364  0043                     _adsum:
   365  0043                            ds      1
   366                           
   367  0044                     _kai:
   368  0044                            ds      1
   369                           
   370                           psect	dataBANK0,class=BANK0,space=1
   371                           global __pdataBANK0
   372  004F                     __pdataBANK0:
   373                           	file	"work.h"
   374                           	line	20
   375  004F                     _VOLT:
   376  004F                            ds      2
   377                           
   378                           psect	dataBANK0
   379                           	file	"Interrupt.h"
   380                           	line	6
   381  0051                     _Flag_FG_Period:
   382  0051                            ds      1
   383                           
   384                           psect clrtext,class=CODE,delta=2
   385                           global clear_ram
   386                           ;	Called with FSR containing the base address, and
   387                           ;	W with the last address+1
   388  0747                     clear_ram:
   389  0747  0064               	clrwdt			;clear the watchdog before getting into this loop
   390  0748                     clrloop:
   391  0748  0180               	clrf	indf		;clear RAM location pointed to by FSR
   392  0749  0A84               	incf	fsr,f		;increment pointer
   393  074A  0604               	xorwf	fsr,w		;XOR with final address
   394  074B  1903               	btfsc	status,2	;have we reached the end yet?
   395  074C  3400               	retlw	0		;all done for this memory range, return
   396  074D  0604               	xorwf	fsr,w		;XOR again to restore value
   397  074E  2F48               	goto	clrloop		;do the next byte
   398                           
   399                           ; Clear objects allocated to BITCOMMON
   400                           psect cinit,class=CODE,delta=2
   401  066E  01FB               	clrf	((__pbitbssCOMMON/8)+0)&07Fh
   402                           ; Clear objects allocated to COMMON
   403                           psect cinit,class=CODE,delta=2
   404  066F  01F6               	clrf	((__pbssCOMMON)+0)&07Fh
   405  0670  01F7               	clrf	((__pbssCOMMON)+1)&07Fh
   406  0671  01F8               	clrf	((__pbssCOMMON)+2)&07Fh
   407  0672  01F9               	clrf	((__pbssCOMMON)+3)&07Fh
   408  0673  01FA               	clrf	((__pbssCOMMON)+4)&07Fh
   409                           ; Clear objects allocated to BANK0
   410                           psect cinit,class=CODE,delta=2
   411  0674  1383               	bcf	status, 7	;select IRP bank0
   412  0675  3020               	movlw	low(__pbssBANK0)
   413  0676  0084               	movwf	fsr
   414  0677  3045               	movlw	low((__pbssBANK0)+025h)
   415  0678  120A  118A  2747   	fcall	clear_ram
              120A  118A         
   416                           ; Initialize objects allocated to BANK0
   417                           	global __pidataBANK0
   418                           psect cinit,class=CODE,delta=2
   419  067D  120A  118A  275B   	fcall	__pidataBANK0+0		;fetch initializer
              120A  118A         
   420  0682  00CF               	movwf	__pdataBANK0+0&07fh		
   421  0683  120A  118A  275C   	fcall	__pidataBANK0+1		;fetch initializer
              120A  118A         
   422  0688  00D0               	movwf	__pdataBANK0+1&07fh		
   423  0689  120A  118A  275D   	fcall	__pidataBANK0+2		;fetch initializer
              120A  118A         
   424  068E  00D1               	movwf	__pdataBANK0+2&07fh		
   425                           psect cinit,class=CODE,delta=2
   426                           global end_of_initialization
   427                           
   428                           ;End of C runtime variable initialization code
   429                           
   430  068F                     end_of_initialization:
   431  068F  0183               clrf status
   432  0690  120A  118A  2815   ljmp _main	;jump to C main() function
   433                           psect	cstackCOMMON,class=COMMON,space=1
   434                           global __pcstackCOMMON
   435  0070                     __pcstackCOMMON:
   436                           	global	?_RBCN_int
   437  0070                     ?_RBCN_int:	; 0 bytes @ 0x0
   438                           	global	??_RBCN_int
   439  0070                     ??_RBCN_int:	; 0 bytes @ 0x0
   440                           	global	?_TMR2_int
   441  0070                     ?_TMR2_int:	; 0 bytes @ 0x0
   442                           	global	??_TMR2_int
   443  0070                     ??_TMR2_int:	; 0 bytes @ 0x0
   444                           	global	?_TMR1_int
   445  0070                     ?_TMR1_int:	; 0 bytes @ 0x0
   446                           	global	??_TMR1_int
   447  0070                     ??_TMR1_int:	; 0 bytes @ 0x0
   448                           	global	?_Motor_adjusting_speed
   449  0070                     ?_Motor_adjusting_speed:	; 0 bytes @ 0x0
   450                           	global	?_MotorClose
   451  0070                     ?_MotorClose:	; 0 bytes @ 0x0
   452                           	global	?_The_Close
   453  0070                     ?_The_Close:	; 0 bytes @ 0x0
   454                           	global	?_systemOSC
   455  0070                     ?_systemOSC:	; 0 bytes @ 0x0
   456                           	global	?_PortInit
   457  0070                     ?_PortInit:	; 0 bytes @ 0x0
   458                           	global	?_InitialiseADC
   459  0070                     ?_InitialiseADC:	; 0 bytes @ 0x0
   460                           	global	?_IIC_init
   461  0070                     ?_IIC_init:	; 0 bytes @ 0x0
   462                           	global	?_InitTimer0
   463  0070                     ?_InitTimer0:	; 0 bytes @ 0x0
   464                           	global	?_InitTimer1
   465  0070                     ?_InitTimer1:	; 0 bytes @ 0x0
   466                           	global	?_InitTimer2
   467  0070                     ?_InitTimer2:	; 0 bytes @ 0x0
   468                           	global	?_InitCn
   469  0070                     ?_InitCn:	; 0 bytes @ 0x0
   470                           	global	?_InitDevices
   471  0070                     ?_InitDevices:	; 0 bytes @ 0x0
   472                           	global	?_com
   473  0070                     ?_com:	; 0 bytes @ 0x0
   474                           	global	?_main
   475  0070                     ?_main:	; 0 bytes @ 0x0
   476  0070                     	ds	1
   477                           	global	TMR1_int@t
   478  0071                     TMR1_int@t:	; 1 bytes @ 0x1
   479                           	global	RBCN_int@Sameple
   480  0071                     RBCN_int@Sameple:	; 1 bytes @ 0x1
   481  0071                     	ds	1
   482                           	global	??_com
   483  0072                     ??_com:	; 0 bytes @ 0x2
   484  0072                     	ds	4
   485                           psect	cstackBANK0,class=BANK0,space=1
   486                           global __pcstackBANK0
   487  0045                     __pcstackBANK0:
   488                           	global	?_delaynms
   489  0045                     ?_delaynms:	; 0 bytes @ 0x0
   490                           	global	?_Delay
   491  0045                     ?_Delay:	; 0 bytes @ 0x0
   492                           	global	??_systemOSC
   493  0045                     ??_systemOSC:	; 0 bytes @ 0x0
   494                           	global	??_PortInit
   495  0045                     ??_PortInit:	; 0 bytes @ 0x0
   496                           	global	??_InitialiseADC
   497  0045                     ??_InitialiseADC:	; 0 bytes @ 0x0
   498                           	global	??_IIC_init
   499  0045                     ??_IIC_init:	; 0 bytes @ 0x0
   500                           	global	??_InitTimer0
   501  0045                     ??_InitTimer0:	; 0 bytes @ 0x0
   502                           	global	??_InitTimer1
   503  0045                     ??_InitTimer1:	; 0 bytes @ 0x0
   504                           	global	??_InitTimer2
   505  0045                     ??_InitTimer2:	; 0 bytes @ 0x0
   506                           	global	??_InitCn
   507  0045                     ??_InitCn:	; 0 bytes @ 0x0
   508                           	global	??_InitDevices
   509  0045                     ??_InitDevices:	; 0 bytes @ 0x0
   510                           	global	?_ReadADC
   511  0045                     ?_ReadADC:	; 2 bytes @ 0x0
   512                           	global	?___lwdiv
   513  0045                     ?___lwdiv:	; 2 bytes @ 0x0
   514                           	global	Delay@n
   515  0045                     Delay@n:	; 2 bytes @ 0x0
   516                           	global	delaynms@n
   517  0045                     delaynms@n:	; 2 bytes @ 0x0
   518                           	global	___lwdiv@divisor
   519  0045                     ___lwdiv@divisor:	; 2 bytes @ 0x0
   520  0045                     	ds	2
   521                           	global	?_write_IIC
   522  0047                     ?_write_IIC:	; 0 bytes @ 0x2
   523                           	global	??_ReadADC
   524  0047                     ??_ReadADC:	; 0 bytes @ 0x2
   525                           	global	??_delaynms
   526  0047                     ??_delaynms:	; 0 bytes @ 0x2
   527                           	global	??_Delay
   528  0047                     ??_Delay:	; 0 bytes @ 0x2
   529                           	global	write_IIC@wdate_L
   530  0047                     write_IIC@wdate_L:	; 1 bytes @ 0x2
   531                           	global	delaynms@i
   532  0047                     delaynms@i:	; 2 bytes @ 0x2
   533                           	global	___lwdiv@dividend
   534  0047                     ___lwdiv@dividend:	; 2 bytes @ 0x2
   535  0047                     	ds	1
   536                           	global	??_write_IIC
   537  0048                     ??_write_IIC:	; 0 bytes @ 0x3
   538                           	global	write_IIC@wdate_H
   539  0048                     write_IIC@wdate_H:	; 1 bytes @ 0x3
   540  0048                     	ds	1
   541                           	global	??___lwdiv
   542  0049                     ??___lwdiv:	; 0 bytes @ 0x4
   543                           	global	ReadADC@ADC_Channel
   544  0049                     ReadADC@ADC_Channel:	; 1 bytes @ 0x4
   545                           	global	write_IIC@t
   546  0049                     write_IIC@t:	; 2 bytes @ 0x4
   547                           	global	delaynms@j
   548  0049                     delaynms@j:	; 2 bytes @ 0x4
   549  0049                     	ds	1
   550                           	global	___lwdiv@counter
   551  004A                     ___lwdiv@counter:	; 1 bytes @ 0x5
   552  004A                     	ds	1
   553                           	global	??_Motor_adjusting_speed
   554  004B                     ??_Motor_adjusting_speed:	; 0 bytes @ 0x6
   555                           	global	??_MotorClose
   556  004B                     ??_MotorClose:	; 0 bytes @ 0x6
   557                           	global	??_The_Close
   558  004B                     ??_The_Close:	; 0 bytes @ 0x6
   559                           	global	___lwdiv@quotient
   560  004B                     ___lwdiv@quotient:	; 2 bytes @ 0x6
   561  004B                     	ds	2
   562                           	global	??_main
   563  004D                     ??_main:	; 0 bytes @ 0x8
   564  004D                     	ds	1
   565                           	global	main@i
   566  004E                     main@i:	; 1 bytes @ 0x9
   567  004E                     	ds	1
   568 ;;Data sizes: Strings 0, constant 0, data 3, bss 42, persistent 0 stack 0
   569 ;;Auto spaces:   Size  Autos    Used
   570 ;; COMMON          14      6      12
   571 ;; BANK0           80     10      50
   572 ;; BANK1           80      0       0
   573 ;; BANK3           96      0       0
   574 ;; BANK2           96      0       0
   575                           
   576 ;;
   577 ;; Pointer list with targets:
   578                           
   579 ;; ?_ReadADC	unsigned int  size(1) Largest target is 0
   580 ;;
   581 ;; ?___lwdiv	unsigned int  size(1) Largest target is 0
   582 ;;
   583                           
   584                           
   585 ;;
   586 ;; Critical Paths under _main in COMMON
   587 ;;
   588 ;;   None.
   589 ;;
   590 ;; Critical Paths under _com in COMMON
   591 ;;
   592 ;;   _com->_RBCN_int
   593 ;;   _com->_TMR1_int
   594 ;;
   595 ;; Critical Paths under _main in BANK0
   596 ;;
   597 ;;   _main->___lwdiv
   598 ;;   _MotorClose->_write_IIC
   599 ;;   _MotorClose->_delaynms
   600 ;;   _Motor_adjusting_speed->_write_IIC
   601 ;;   _The_Close->_delaynms
   602 ;;   _write_IIC->_Delay
   603 ;;
   604 ;; Critical Paths under _com in BANK0
   605 ;;
   606 ;;   None.
   607 ;;
   608 ;; Critical Paths under _main in BANK1
   609 ;;
   610 ;;   None.
   611 ;;
   612 ;; Critical Paths under _com in BANK1
   613 ;;
   614 ;;   None.
   615 ;;
   616 ;; Critical Paths under _main in BANK3
   617 ;;
   618 ;;   None.
   619 ;;
   620 ;; Critical Paths under _com in BANK3
   621 ;;
   622 ;;   None.
   623 ;;
   624 ;; Critical Paths under _main in BANK2
   625 ;;
   626 ;;   None.
   627 ;;
   628 ;; Critical Paths under _com in BANK2
   629 ;;
   630 ;;   None.
   631                           
   632 ;;
   633 ;;Main: autosize = 0, tempsize = 1, incstack = 0, save=0
   634 ;;
   635                           
   636 ;;
   637 ;;Call Graph Tables:
   638 ;;
   639 ;; ---------------------------------------------------------------------------------
   640 ;; (Depth) Function   	        Calls       Base Space   Used Autos Params    Refs
   641 ;; ---------------------------------------------------------------------------------
   642 ;; (0) _main                                                 2     2      0    1603
   643 ;;                                              8 BANK0      2     2      0
   644 ;;                        _InitDevices
   645 ;;                          _write_IIC
   646 ;;                            _ReadADC
   647 ;;                            ___lwdiv
   648 ;;                           _delaynms
   649 ;;              _Motor_adjusting_speed
   650 ;;                         _MotorClose
   651 ;;                          _The_Close
   652 ;; ---------------------------------------------------------------------------------
   653 ;; (1) _MotorClose                                           1     1      0     420
   654 ;;                                              6 BANK0      1     1      0
   655 ;;                          _write_IIC
   656 ;;                           _delaynms
   657 ;; ---------------------------------------------------------------------------------
   658 ;; (1) _Motor_adjusting_speed                                1     1      0     284
   659 ;;                                              6 BANK0      1     1      0
   660 ;;                          _write_IIC
   661 ;; ---------------------------------------------------------------------------------
   662 ;; (1) _The_Close                                            0     0      0     136
   663 ;;                           _delaynms
   664 ;; ---------------------------------------------------------------------------------
   665 ;; (2) _write_IIC                                            4     3      1     284
   666 ;;                                              2 BANK0      4     3      1
   667 ;;                              _Delay
   668 ;; ---------------------------------------------------------------------------------
   669 ;; (1) _InitDevices                                          0     0      0       0
   670 ;;                          _systemOSC
   671 ;;                           _PortInit
   672 ;;                         _InitTimer0
   673 ;;                         _InitTimer1
   674 ;;                           _IIC_init
   675 ;;                      _InitialiseADC
   676 ;;                         _InitTimer2
   677 ;;                             _InitCn
   678 ;; ---------------------------------------------------------------------------------
   679 ;; (1) ___lwdiv                                              8     4      4     241
   680 ;;                                              0 BANK0      8     4      4
   681 ;; ---------------------------------------------------------------------------------
   682 ;; (3) _Delay                                                2     0      2      34
   683 ;;                                              0 BANK0      2     0      2
   684 ;; ---------------------------------------------------------------------------------
   685 ;; (2) _delaynms                                             6     4      2     136
   686 ;;                                              0 BANK0      6     4      2
   687 ;; ---------------------------------------------------------------------------------
   688 ;; (1) _ReadADC                                              6     4      2      34
   689 ;;                                              0 BANK0      5     3      2
   690 ;; ---------------------------------------------------------------------------------
   691 ;; (2) _InitCn                                               0     0      0       0
   692 ;; ---------------------------------------------------------------------------------
   693 ;; (2) _InitTimer2                                           0     0      0       0
   694 ;; ---------------------------------------------------------------------------------
   695 ;; (2) _InitTimer1                                           0     0      0       0
   696 ;; ---------------------------------------------------------------------------------
   697 ;; (2) _InitTimer0                                           0     0      0       0
   698 ;; ---------------------------------------------------------------------------------
   699 ;; (2) _IIC_init                                             0     0      0       0
   700 ;; ---------------------------------------------------------------------------------
   701 ;; (2) _InitialiseADC                                        0     0      0       0
   702 ;; ---------------------------------------------------------------------------------
   703 ;; (2) _PortInit                                             0     0      0       0
   704 ;; ---------------------------------------------------------------------------------
   705 ;; (2) _systemOSC                                            0     0      0       0
   706 ;; ---------------------------------------------------------------------------------
   707 ;; Estimated maximum stack depth 3
   708 ;; ---------------------------------------------------------------------------------
   709 ;; (Depth) Function   	        Calls       Base Space   Used Autos Params    Refs
   710 ;; ---------------------------------------------------------------------------------
   711 ;; (4) _com                                                  4     4      0       2
   712 ;;                                              2 COMMON     4     4      0
   713 ;;                           _RBCN_int
   714 ;;                           _TMR2_int
   715 ;;                           _TMR1_int
   716 ;; ---------------------------------------------------------------------------------
   717 ;; (5) _TMR1_int                                             3     3      0       1
   718 ;;                                              0 COMMON     2     2      0
   719 ;; ---------------------------------------------------------------------------------
   720 ;; (5) _TMR2_int                                             0     0      0       0
   721 ;; ---------------------------------------------------------------------------------
   722 ;; (5) _RBCN_int                                             2     2      0       1
   723 ;;                                              0 COMMON     2     2      0
   724 ;; ---------------------------------------------------------------------------------
   725 ;; Estimated maximum stack depth 5
   726 ;; ---------------------------------------------------------------------------------
   727                           
   728 ;; Call Graph Graphs:
   729                           
   730 ;; _main (ROOT)
   731 ;;   _InitDevices
   732 ;;     _systemOSC
   733 ;;     _PortInit
   734 ;;     _InitTimer0
   735 ;;     _InitTimer1
   736 ;;     _IIC_init
   737 ;;     _InitialiseADC
   738 ;;     _InitTimer2
   739 ;;     _InitCn
   740 ;;   _write_IIC
   741 ;;     _Delay
   742 ;;   _ReadADC
   743 ;;   ___lwdiv
   744 ;;   _delaynms
   745 ;;   _Motor_adjusting_speed
   746 ;;     _write_IIC
   747 ;;       _Delay
   748 ;;   _MotorClose
   749 ;;     _write_IIC
   750 ;;       _Delay
   751 ;;     _delaynms
   752 ;;   _The_Close
   753 ;;     _delaynms
   754 ;;
   755 ;; _com (ROOT)
   756 ;;   _RBCN_int
   757 ;;   _TMR2_int
   758 ;;   _TMR1_int
   759 ;;
   760                           
   761 ;; Address spaces:
   762                           
   763 ;;Name               Size   Autos  Total    Cost      Usage
   764 ;;BANK3               60      0       0       9        0.0%
   765 ;;BITBANK3            60      0       0       8        0.0%
   766 ;;SFR3                 0      0       0       4        0.0%
   767 ;;BITSFR3              0      0       0       4        0.0%
   768 ;;BANK2               60      0       0      11        0.0%
   769 ;;BITBANK2            60      0       0      10        0.0%
   770 ;;SFR2                 0      0       0       5        0.0%
   771 ;;BITSFR2              0      0       0       5        0.0%
   772 ;;SFR1                 0      0       0       2        0.0%
   773 ;;BITSFR1              0      0       0       2        0.0%
   774 ;;BANK1               50      0       0       7        0.0%
   775 ;;BITBANK1            50      0       0       6        0.0%
   776 ;;CODE                 0      0       0       0        0.0%
   777 ;;DATA                 0      0      45      12        0.0%
   778 ;;ABS                  0      0      3E       3        0.0%
   779 ;;NULL                 0      0       0       0        0.0%
   780 ;;STACK                0      0       7       2        0.0%
   781 ;;BANK0               50      A      32       5       62.5%
   782 ;;BITBANK0            50      0       0       4        0.0%
   783 ;;SFR0                 0      0       0       1        0.0%
   784 ;;BITSFR0              0      0       0       1        0.0%
   785 ;;COMMON               E      6       C       1       85.7%
   786 ;;BITCOMMON            E      0       1       0        7.1%
   787 ;;EEDATA             100      0       0       0        0.0%
   788                           
   789                           	global	_main
   790                           psect	maintext,global,class=CODE,delta=2
   791                           global __pmaintext
   792  0015                     __pmaintext:
   793                           
   794 ;; *************** function _main *****************
   795 ;; Defined at:
   796 ;;		line 28 in file "main.c"
   797 ;; Parameters:    Size  Location     Type
   798 ;;		None
   799 ;; Auto vars:     Size  Location     Type
   800 ;;  i               1    9[BANK0 ] unsigned char 
   801 ;; Return value:  Size  Location     Type
   802 ;;		None               void
   803 ;; Registers used:
   804 ;;		wreg, status,2, status,0, btemp+1, pclath, cstack
   805 ;; Tracked objects:
   806 ;;		On entry : 17F/0
   807 ;;		On exit  : 0/0
   808 ;;		Unchanged: 0/0
   809 ;; Data sizes:     COMMON   BANK0   BANK1   BANK3   BANK2
   810 ;;      Params:         0       0       0       0       0
   811 ;;      Locals:         0       1       0       0       0
   812 ;;      Temps:          0       1       0       0       0
   813 ;;      Totals:         0       2       0       0       0
   814 ;;Total ram usage:        2 bytes
   815 ;; Hardware stack levels required when called:    5
   816 ;; This function calls:
   817 ;;		_InitDevices
   818 ;;		_write_IIC
   819 ;;		_ReadADC
   820 ;;		___lwdiv
   821 ;;		_delaynms
   822 ;;		_Motor_adjusting_speed
   823 ;;		_MotorClose
   824 ;;		_The_Close
   825 ;; This function is called by:
   826 ;;		Startup code after reset
   827 ;; This function uses a non-reentrant model
   828 ;;
   829                           psect	maintext
   830                           	file	"main.c"
   831                           	line	28
   832                           	global	__size_of_main
   833  0207                     	__size_of_main	equ	__end_of_main-_main
   834                           	
   835  0015                     _main:	
   836                           	opt	stack 3
   837                           ; Regs used in _main: [wreg+status,2+status,0+btemp+1+pclath+cstack]
   838                           	line	30
   839                           	
   840  0015                     l9819:	
   841                           ;main.c: 29: unsigned char i;
   842                           ;main.c: 30: InitDevices();
   843  0015  120A  118A  25E5   	fcall	_InitDevices
              120A  118A         
   844                           	line	31
   845                           	
   846  001A                     l9821:	
   847                           ;main.c: 31: write_IIC(0x00,0x00 );
   848  001A  1283               	bcf	status, 5	;RP0=0, select bank0
   849  001B  1303               	bcf	status, 6	;RP1=0, select bank0
   850  001C  01C7               	clrf	(?_write_IIC)
   851  001D  3000               	movlw	(0)
   852  001E  120A  118A  231B   	fcall	_write_IIC
              120A  118A         
   853  0023  2824               	goto	l9823
   854                           	line	32
   855                           ;main.c: 32: while(1)
   856                           	
   857  0024                     l3073:	
   858                           	line	35
   859                           	
   860  0024                     l9823:	
   861                           ;main.c: 33: {
   862                           ;main.c: 35: if(PORTAbits.RA5 == 1) {PORTBbits.RB2 = 1;asm ("NOP");}
   863  0024  1283               	bcf	status, 5	;RP0=0, select bank0
   864  0025  1303               	bcf	status, 6	;RP1=0, select bank0
   865  0026  1E85               	btfss	(5),5	;volatile
   866  0027  2829               	goto	u4111
   867  0028  282A               	goto	u4110
   868  0029                     u4111:
   869  0029  282D               	goto	l3074
   870  002A                     u4110:
   871                           	
   872  002A                     l9825:	
   873  002A  1506               	bsf	(6),2	;volatile
   874                           # 35 "main.c"
   875  002B  0000               NOP ;#
   876                           psect	maintext
   877  002C  2830               	goto	l9827
   878                           	line	36
   879                           	
   880  002D                     l3074:	
   881                           ;main.c: 36: else {PORTBbits.RB2 = 0;asm ("NOP");}
   882  002D  1106               	bcf	(6),2	;volatile
   883                           # 36 "main.c"
   884  002E  0000               NOP ;#
   885                           psect	maintext
   886  002F  2830               	goto	l9827
   887                           	
   888  0030                     l3075:	
   889                           	line	38
   890                           	
   891  0030                     l9827:	
   892                           ;main.c: 38: if((Count_Flag == 0) && (Work_Flag == 1)) {PORTBbits.RB0 = 1;asm ("NOP");}
   893  0030  08F6               	movf	(_Count_Flag),f
   894  0031  1D03               	skipz
   895  0032  2834               	goto	u4121
   896  0033  2835               	goto	u4120
   897  0034                     u4121:
   898  0034  2840               	goto	l9833
   899  0035                     u4120:
   900                           	
   901  0035                     l9829:	
   902  0035  087A               	movf	(_Work_Flag),w
   903  0036  3A01               	xorlw	01h
   904  0037  1D03               	skipz
   905  0038  283A               	goto	u4131
   906  0039  283B               	goto	u4130
   907  003A                     u4131:
   908  003A  2840               	goto	l9833
   909  003B                     u4130:
   910                           	
   911  003B                     l9831:	
   912  003B  1283               	bcf	status, 5	;RP0=0, select bank0
   913  003C  1303               	bcf	status, 6	;RP1=0, select bank0
   914  003D  1406               	bsf	(6),0	;volatile
   915                           # 38 "main.c"
   916  003E  0000               NOP ;#
   917                           psect	maintext
   918  003F  284A               	goto	l3077
   919                           	line	39
   920                           	
   921  0040                     l3076:	
   922                           	
   923  0040                     l9833:	
   924                           ;main.c: 39: else if(Key_Run == 0 ) {PORTBbits.RB0 = 0;asm ("NOP");}
   925  0040  1283               	bcf	status, 5	;RP0=0, select bank0
   926  0041  1303               	bcf	status, 6	;RP1=0, select bank0
   927  0042  08B7               	movf	(_Key_Run),f
   928  0043  1D03               	skipz
   929  0044  2846               	goto	u4141
   930  0045  2847               	goto	u4140
   931  0046                     u4141:
   932  0046  284A               	goto	l3077
   933  0047                     u4140:
   934                           	
   935  0047                     l9835:	
   936  0047  1006               	bcf	(6),0	;volatile
   937                           # 39 "main.c"
   938  0048  0000               NOP ;#
   939                           psect	maintext
   940  0049  284A               	goto	l3077
   941                           	
   942  004A                     l3078:	
   943                           	line	41
   944                           	
   945  004A                     l3077:	
   946                           ;main.c: 41: for(i=0;i<70;i++)
   947  004A  1283               	bcf	status, 5	;RP0=0, select bank0
   948  004B  1303               	bcf	status, 6	;RP1=0, select bank0
   949  004C  01CE               	clrf	(main@i)
   950                           	
   951  004D                     l9837:	
   952  004D  3046               	movlw	(046h)
   953  004E  024E               	subwf	(main@i),w
   954  004F  1C03               	skipc
   955  0050  2852               	goto	u4151
   956  0051  2853               	goto	u4150
   957  0052                     u4151:
   958  0052  2855               	goto	l9841
   959  0053                     u4150:
   960  0053  286E               	goto	l9847
   961                           	
   962  0054                     l9839:	
   963  0054  286E               	goto	l9847
   964                           	line	42
   965                           	
   966  0055                     l3079:	
   967                           	line	43
   968                           	
   969  0055                     l9841:	
   970                           ;main.c: 42: {
   971                           ;main.c: 43: ADC_Val += ReadADC(3);
   972  0055  3003               	movlw	(03h)
   973  0056  120A  118A  256C   	fcall	_ReadADC
              120A  118A         
   974  005B  1283               	bcf	status, 5	;RP0=0, select bank0
   975  005C  1303               	bcf	status, 6	;RP1=0, select bank0
   976  005D  0845               	movf	(0+(?_ReadADC)),w
   977  005E  07A2               	addwf	(_ADC_Val),f
   978  005F  1803               	skipnc
   979  0060  0AA3               	incf	(_ADC_Val+1),f
   980  0061  0846               	movf	(1+(?_ReadADC)),w
   981  0062  07A3               	addwf	(_ADC_Val+1),f
   982                           	line	41
   983                           	
   984  0063                     l9843:	
   985  0063  3001               	movlw	(01h)
   986  0064  00CD               	movwf	(??_main+0)+0
   987  0065  084D               	movf	(??_main+0)+0,w
   988  0066  07CE               	addwf	(main@i),f
   989                           	
   990  0067                     l9845:	
   991  0067  3046               	movlw	(046h)
   992  0068  024E               	subwf	(main@i),w
   993  0069  1C03               	skipc
   994  006A  286C               	goto	u4161
   995  006B  286D               	goto	u4160
   996  006C                     u4161:
   997  006C  2855               	goto	l9841
   998  006D                     u4160:
   999  006D  286E               	goto	l9847
  1000                           	
  1001  006E                     l3080:	
  1002                           	line	45
  1003                           	
  1004  006E                     l9847:	
  1005                           ;main.c: 44: }
  1006                           ;main.c: 45: ADC_Val/=70;
  1007  006E  3046               	movlw	low(046h)
  1008  006F  00C5               	movwf	(?___lwdiv)
  1009  0070  3000               	movlw	high(046h)
  1010  0071  00C6               	movwf	((?___lwdiv))+1
  1011  0072  0823               	movf	(_ADC_Val+1),w
  1012  0073  01C8               	clrf	1+(?___lwdiv)+02h
  1013  0074  07C8               	addwf	1+(?___lwdiv)+02h
  1014  0075  0822               	movf	(_ADC_Val),w
  1015  0076  01C7               	clrf	0+(?___lwdiv)+02h
  1016  0077  07C7               	addwf	0+(?___lwdiv)+02h
  1017                           
  1018  0078  120A  118A  251C   	fcall	___lwdiv
              120A  118A         
  1019  007D  1283               	bcf	status, 5	;RP0=0, select bank0
  1020  007E  1303               	bcf	status, 6	;RP1=0, select bank0
  1021  007F  0846               	movf	(1+(?___lwdiv)),w
  1022  0080  01A3               	clrf	(_ADC_Val+1)
  1023  0081  07A3               	addwf	(_ADC_Val+1)
  1024  0082  0845               	movf	(0+(?___lwdiv)),w
  1025  0083  01A2               	clrf	(_ADC_Val)
  1026  0084  07A2               	addwf	(_ADC_Val)
  1027                           
  1028                           	line	46
  1029                           	
  1030  0085                     l9849:	
  1031                           ;main.c: 46: if((ADC_Val< 510))
  1032  0085  3001               	movlw	high(01FEh)
  1033  0086  0223               	subwf	(_ADC_Val+1),w
  1034  0087  30FE               	movlw	low(01FEh)
  1035  0088  1903               	skipnz
  1036  0089  0222               	subwf	(_ADC_Val),w
  1037  008A  1803               	skipnc
  1038  008B  288D               	goto	u4171
  1039  008C  288E               	goto	u4170
  1040  008D                     u4171:
  1041  008D  28AA               	goto	l9857
  1042  008E                     u4170:
  1043                           	line	48
  1044                           	
  1045  008E                     l9851:	
  1046                           ;main.c: 47: {
  1047                           ;main.c: 48: if(PORTAbits.RA5 == 0)
  1048  008E  1A85               	btfsc	(5),5	;volatile
  1049  008F  2891               	goto	u4181
  1050  0090  2892               	goto	u4180
  1051  0091                     u4181:
  1052  0091  28D9               	goto	l9869
  1053  0092                     u4180:
  1054                           	line	50
  1055                           	
  1056  0092                     l9853:	
  1057                           ;main.c: 49: {
  1058                           ;main.c: 50: PORTBbits.RB3 = ~PORTBbits.RB3;
  1059  0092  1003               	clrc
  1060  0093  1D86               	btfss	(6),3	;volatile
  1061  0094  1403               	setc
  1062  0095  1803               	btfsc	status,0
  1063  0096  2898               	goto	u4191
  1064  0097  289C               	goto	u4190
  1065                           	
  1066  0098                     u4191:
  1067  0098  1283               	bcf	status, 5	;RP0=0, select bank0
  1068  0099  1303               	bcf	status, 6	;RP1=0, select bank0
  1069  009A  1586               	bsf	(6),3	;volatile
  1070  009B  289F               	goto	u4204
  1071  009C                     u4190:
  1072  009C  1283               	bcf	status, 5	;RP0=0, select bank0
  1073  009D  1303               	bcf	status, 6	;RP1=0, select bank0
  1074  009E  1186               	bcf	(6),3	;volatile
  1075  009F                     u4204:
  1076                           	line	51
  1077                           	
  1078  009F                     l9855:	
  1079                           ;main.c: 51: delaynms(50);
  1080  009F  3032               	movlw	low(032h)
  1081  00A0  00C5               	movwf	(?_delaynms)
  1082  00A1  3000               	movlw	high(032h)
  1083  00A2  00C6               	movwf	((?_delaynms))+1
  1084  00A3  120A  118A  25B1   	fcall	_delaynms
              120A  118A         
  1085  00A8  28D9               	goto	l9869
  1086                           	line	52
  1087                           	
  1088  00A9                     l3082:	
  1089                           	line	53
  1090                           ;main.c: 52: }
  1091                           ;main.c: 53: }
  1092  00A9  28D9               	goto	l9869
  1093                           	line	54
  1094                           	
  1095  00AA                     l3081:	
  1096                           	
  1097  00AA                     l9857:	
  1098                           ;main.c: 54: else if(ADC_Val > 595)
  1099  00AA  3002               	movlw	high(0254h)
  1100  00AB  1283               	bcf	status, 5	;RP0=0, select bank0
  1101  00AC  1303               	bcf	status, 6	;RP1=0, select bank0
  1102  00AD  0223               	subwf	(_ADC_Val+1),w
  1103  00AE  3054               	movlw	low(0254h)
  1104  00AF  1903               	skipnz
  1105  00B0  0222               	subwf	(_ADC_Val),w
  1106  00B1  1C03               	skipc
  1107  00B2  28B4               	goto	u4211
  1108  00B3  28B5               	goto	u4210
  1109  00B4                     u4211:
  1110  00B4  28B8               	goto	l9861
  1111  00B5                     u4210:
  1112                           	line	56
  1113                           	
  1114  00B5                     l9859:	
  1115                           ;main.c: 55: {
  1116                           ;main.c: 56: PORTBbits.RB3 = 0;asm ("NOP");
  1117  00B5  1186               	bcf	(6),3	;volatile
  1118                           # 56 "main.c"
  1119  00B6  0000               NOP ;#
  1120                           psect	maintext
  1121                           	line	57
  1122                           ;main.c: 57: }
  1123  00B7  28D9               	goto	l9869
  1124                           	line	58
  1125                           	
  1126  00B8                     l3084:	
  1127                           	
  1128  00B8                     l9861:	
  1129                           ;main.c: 58: else if((ADC_Val < 580) && (ADC_Val> 540))
  1130  00B8  3002               	movlw	high(0244h)
  1131  00B9  1283               	bcf	status, 5	;RP0=0, select bank0
  1132  00BA  1303               	bcf	status, 6	;RP1=0, select bank0
  1133  00BB  0223               	subwf	(_ADC_Val+1),w
  1134  00BC  3044               	movlw	low(0244h)
  1135  00BD  1903               	skipnz
  1136  00BE  0222               	subwf	(_ADC_Val),w
  1137  00BF  1803               	skipnc
  1138  00C0  28C2               	goto	u4221
  1139  00C1  28C3               	goto	u4220
  1140  00C2                     u4221:
  1141  00C2  28D9               	goto	l9869
  1142  00C3                     u4220:
  1143                           	
  1144  00C3                     l9863:	
  1145  00C3  3002               	movlw	high(021Dh)
  1146  00C4  0223               	subwf	(_ADC_Val+1),w
  1147  00C5  301D               	movlw	low(021Dh)
  1148  00C6  1903               	skipnz
  1149  00C7  0222               	subwf	(_ADC_Val),w
  1150  00C8  1C03               	skipc
  1151  00C9  28CB               	goto	u4231
  1152  00CA  28CC               	goto	u4230
  1153  00CB                     u4231:
  1154  00CB  28D9               	goto	l9869
  1155  00CC                     u4230:
  1156                           	line	60
  1157                           	
  1158  00CC                     l9865:	
  1159                           ;main.c: 59: {
  1160                           ;main.c: 60: if(PORTAbits.RA5 == 1) {PORTBbits.RB3 = 1;asm ("NOP");}
  1161  00CC  1E85               	btfss	(5),5	;volatile
  1162  00CD  28CF               	goto	u4241
  1163  00CE  28D0               	goto	u4240
  1164  00CF                     u4241:
  1165  00CF  28D3               	goto	l3087
  1166  00D0                     u4240:
  1167                           	
  1168  00D0                     l9867:	
  1169  00D0  1586               	bsf	(6),3	;volatile
  1170                           # 60 "main.c"
  1171  00D1  0000               NOP ;#
  1172                           psect	maintext
  1173  00D2  28D9               	goto	l9869
  1174                           	line	61
  1175                           	
  1176  00D3                     l3087:	
  1177                           ;main.c: 61: else {PORTBbits.RB3 = 0;asm ("NOP");}
  1178  00D3  1186               	bcf	(6),3	;volatile
  1179                           # 61 "main.c"
  1180  00D4  0000               NOP ;#
  1181                           psect	maintext
  1182  00D5  28D9               	goto	l9869
  1183                           	
  1184  00D6                     l3088:	
  1185  00D6  28D9               	goto	l9869
  1186                           	line	62
  1187                           	
  1188  00D7                     l3086:	
  1189  00D7  28D9               	goto	l9869
  1190                           	line	65
  1191                           	
  1192  00D8                     l3085:	
  1193  00D8  28D9               	goto	l9869
  1194                           	
  1195  00D9                     l3083:	
  1196                           	
  1197  00D9                     l9869:	
  1198                           ;main.c: 62: }
  1199                           ;main.c: 65: if((Onekey_Flag == 1) &&(Work_Flag == 0))
  1200  00D9  1283               	bcf	status, 5	;RP0=0, select bank0
  1201  00DA  1303               	bcf	status, 6	;RP1=0, select bank0
  1202  00DB  083A               	movf	(_Onekey_Flag),w
  1203  00DC  3A01               	xorlw	01h
  1204  00DD  1D03               	skipz
  1205  00DE  28E0               	goto	u4251
  1206  00DF  28E1               	goto	u4250
  1207  00E0                     u4251:
  1208  00E0  28F4               	goto	l9877
  1209  00E1                     u4250:
  1210                           	
  1211  00E1                     l9871:	
  1212  00E1  08FA               	movf	(_Work_Flag),f
  1213  00E2  1D03               	skipz
  1214  00E3  28E5               	goto	u4261
  1215  00E4  28E6               	goto	u4260
  1216  00E5                     u4261:
  1217  00E5  28F4               	goto	l9877
  1218  00E6                     u4260:
  1219                           	line	67
  1220                           	
  1221  00E6                     l9873:	
  1222                           ;main.c: 66: {
  1223                           ;main.c: 67: PORTCbits.RC0= 1;asm ("NOP");
  1224  00E6  1407               	bsf	(7),0	;volatile
  1225                           # 67 "main.c"
  1226  00E7  0000               NOP ;#
  1227                           psect	maintext
  1228                           	line	68
  1229                           ;main.c: 68: PORTAbits.RA4= 1;asm ("NOP");
  1230  00E8  1283               	bcf	status, 5	;RP0=0, select bank0
  1231  00E9  1303               	bcf	status, 6	;RP1=0, select bank0
  1232  00EA  1605               	bsf	(5),4	;volatile
  1233                           # 68 "main.c"
  1234  00EB  0000               NOP ;#
  1235                           psect	maintext
  1236                           	line	69
  1237                           ;main.c: 69: PORTBbits.RB5 = 1;asm ("NOP");
  1238  00EC  1283               	bcf	status, 5	;RP0=0, select bank0
  1239  00ED  1303               	bcf	status, 6	;RP1=0, select bank0
  1240  00EE  1686               	bsf	(6),5	;volatile
  1241                           # 69 "main.c"
  1242  00EF  0000               NOP ;#
  1243                           psect	maintext
  1244                           	line	70
  1245                           	
  1246  00F0                     l9875:	
  1247                           ;main.c: 70: Not_two = 1;
  1248  00F0  01F9               	clrf	(_Not_two)
  1249  00F1  1403               	bsf	status,0
  1250  00F2  0DF9               	rlf	(_Not_two),f
  1251  00F3  28F4               	goto	l9877
  1252                           	line	71
  1253                           	
  1254  00F4                     l3089:	
  1255                           	line	72
  1256                           	
  1257  00F4                     l9877:	
  1258                           ;main.c: 71: }
  1259                           ;main.c: 72: if((Onekey_Flag == 2) && (Work_Flag == 0))
  1260  00F4  1283               	bcf	status, 5	;RP0=0, select bank0
  1261  00F5  1303               	bcf	status, 6	;RP1=0, select bank0
  1262  00F6  083A               	movf	(_Onekey_Flag),w
  1263  00F7  3A02               	xorlw	02h
  1264  00F8  1D03               	skipz
  1265  00F9  28FB               	goto	u4271
  1266  00FA  28FC               	goto	u4270
  1267  00FB                     u4271:
  1268  00FB  2923               	goto	l9905
  1269  00FC                     u4270:
  1270                           	
  1271  00FC                     l9879:	
  1272  00FC  08FA               	movf	(_Work_Flag),f
  1273  00FD  1D03               	skipz
  1274  00FE  2900               	goto	u4281
  1275  00FF  2901               	goto	u4280
  1276  0100                     u4281:
  1277  0100  2923               	goto	l9905
  1278  0101                     u4280:
  1279                           	line	74
  1280                           	
  1281  0101                     l9881:	
  1282                           ;main.c: 73: {
  1283                           ;main.c: 74: PORTAbits.RA2 = 1;asm ("NOP");
  1284  0101  1505               	bsf	(5),2	;volatile
  1285                           # 74 "main.c"
  1286  0102  0000               NOP ;#
  1287                           psect	maintext
  1288                           	line	75
  1289                           	
  1290  0103                     l9883:	
  1291                           ;main.c: 75: delaynms(10);
  1292  0103  300A               	movlw	low(0Ah)
  1293  0104  1283               	bcf	status, 5	;RP0=0, select bank0
  1294  0105  1303               	bcf	status, 6	;RP1=0, select bank0
  1295  0106  00C5               	movwf	(?_delaynms)
  1296  0107  3000               	movlw	high(0Ah)
  1297  0108  00C6               	movwf	((?_delaynms))+1
  1298  0109  120A  118A  25B1   	fcall	_delaynms
              120A  118A         
  1299                           	line	76
  1300                           	
  1301  010E                     l9885:	
  1302                           ;main.c: 76: PORTAbits.RA2 = 0;asm ("NOP");
  1303  010E  1283               	bcf	status, 5	;RP0=0, select bank0
  1304  010F  1303               	bcf	status, 6	;RP1=0, select bank0
  1305  0110  1105               	bcf	(5),2	;volatile
  1306                           	
  1307  0111                     l9887:	
  1308                           # 76 "main.c"
  1309  0111  0000               NOP ;#
  1310                           psect	maintext
  1311                           	line	77
  1312                           	
  1313  0112                     l9889:	
  1314                           ;main.c: 77: PORTCbits.RC0 = 0;asm ("NOP");
  1315  0112  1283               	bcf	status, 5	;RP0=0, select bank0
  1316  0113  1303               	bcf	status, 6	;RP1=0, select bank0
  1317  0114  1007               	bcf	(7),0	;volatile
  1318                           	
  1319  0115                     l9891:	
  1320                           # 77 "main.c"
  1321  0115  0000               NOP ;#
  1322                           psect	maintext
  1323                           	line	78
  1324                           	
  1325  0116                     l9893:	
  1326                           ;main.c: 78: PORTAbits.RA4 = 0;asm ("NOP");
  1327  0116  1283               	bcf	status, 5	;RP0=0, select bank0
  1328  0117  1303               	bcf	status, 6	;RP1=0, select bank0
  1329  0118  1205               	bcf	(5),4	;volatile
  1330                           	
  1331  0119                     l9895:	
  1332                           # 78 "main.c"
  1333  0119  0000               NOP ;#
  1334                           psect	maintext
  1335                           	line	79
  1336                           	
  1337  011A                     l9897:	
  1338                           ;main.c: 79: PORTBbits.RB5 = 0;asm ("NOP");
  1339  011A  1283               	bcf	status, 5	;RP0=0, select bank0
  1340  011B  1303               	bcf	status, 6	;RP1=0, select bank0
  1341  011C  1286               	bcf	(6),5	;volatile
  1342                           	
  1343  011D                     l9899:	
  1344                           # 79 "main.c"
  1345  011D  0000               NOP ;#
  1346                           psect	maintext
  1347                           	line	80
  1348                           	
  1349  011E                     l9901:	
  1350                           ;main.c: 80: Not_two = 0;
  1351  011E  01F9               	clrf	(_Not_two)
  1352                           	line	81
  1353                           	
  1354  011F                     l9903:	
  1355                           ;main.c: 81: Onekey_Flag = 0;
  1356  011F  1283               	bcf	status, 5	;RP0=0, select bank0
  1357  0120  1303               	bcf	status, 6	;RP1=0, select bank0
  1358  0121  01BA               	clrf	(_Onekey_Flag)
  1359  0122  2923               	goto	l9905
  1360                           	line	82
  1361                           	
  1362  0123                     l3090:	
  1363                           	line	84
  1364                           	
  1365  0123                     l9905:	
  1366                           ;main.c: 82: }
  1367                           ;main.c: 84: if((PORTAbits.RA1 == 0) && (Not_two == 1))
  1368  0123  1885               	btfsc	(5),1	;volatile
  1369  0124  2926               	goto	u4291
  1370  0125  2927               	goto	u4290
  1371  0126                     u4291:
  1372  0126  29F2               	goto	l3091
  1373  0127                     u4290:
  1374                           	
  1375  0127                     l9907:	
  1376  0127  0879               	movf	(_Not_two),w
  1377  0128  3A01               	xorlw	01h
  1378  0129  1D03               	skipz
  1379  012A  292C               	goto	u4301
  1380  012B  292D               	goto	u4300
  1381  012C                     u4301:
  1382  012C  29F2               	goto	l3091
  1383  012D                     u4300:
  1384                           	line	87
  1385                           	
  1386  012D                     l9909:	
  1387                           ;main.c: 85: {
  1388                           ;main.c: 87: if(Key_Run == 1)
  1389  012D  0837               	movf	(_Key_Run),w
  1390  012E  3A01               	xorlw	01h
  1391  012F  1D03               	skipz
  1392  0130  2932               	goto	u4311
  1393  0131  2933               	goto	u4310
  1394  0132                     u4311:
  1395  0132  29BE               	goto	l9947
  1396  0133                     u4310:
  1397                           	line	89
  1398                           	
  1399  0133                     l9911:	
  1400                           ;main.c: 88: {
  1401                           ;main.c: 89: WDTCONbits.SWDTEN = 1;
  1402  0133  1283               	bcf	status, 5	;RP0=0, select bank2
  1403  0134  1703               	bsf	status, 6	;RP1=1, select bank2
  1404  0135  1405               	bsf	(261)^0100h,0	;volatile
  1405                           	line	90
  1406                           # 90 "main.c"
  1407  0136  0064               clrwdt ;#
  1408                           psect	maintext
  1409                           	line	91
  1410                           ;main.c: 91: while(Initial_Flag == 0)
  1411  0137  2975               	goto	l9923
  1412                           	
  1413  0138                     l3094:	
  1414                           	line	93
  1415                           	
  1416  0138                     l9913:	
  1417                           ;main.c: 92: {
  1418                           ;main.c: 93: Work_Flag = 1;
  1419  0138  01FA               	clrf	(_Work_Flag)
  1420  0139  1403               	bsf	status,0
  1421  013A  0DFA               	rlf	(_Work_Flag),f
  1422                           	line	94
  1423                           ;main.c: 94: Count_Flag = 1;
  1424  013B  01F6               	clrf	(_Count_Flag)
  1425  013C  1403               	bsf	status,0
  1426  013D  0DF6               	rlf	(_Count_Flag),f
  1427                           	line	95
  1428                           	
  1429  013E                     l9915:	
  1430                           ;main.c: 95: write_IIC(0x03,0x33 );
  1431  013E  3033               	movlw	(033h)
  1432  013F  1283               	bcf	status, 5	;RP0=0, select bank0
  1433  0140  1303               	bcf	status, 6	;RP1=0, select bank0
  1434  0141  00CD               	movwf	(??_main+0)+0
  1435  0142  084D               	movf	(??_main+0)+0,w
  1436  0143  00C7               	movwf	(?_write_IIC)
  1437  0144  3003               	movlw	(03h)
  1438  0145  120A  118A  231B   	fcall	_write_IIC
              120A  118A         
  1439                           	line	96
  1440                           	
  1441  014A                     l9917:	
  1442                           ;main.c: 96: delaynms(1);
  1443  014A  3001               	movlw	low(01h)
  1444  014B  1283               	bcf	status, 5	;RP0=0, select bank0
  1445  014C  1303               	bcf	status, 6	;RP1=0, select bank0
  1446  014D  00C5               	movwf	(?_delaynms)
  1447  014E  3000               	movlw	high(01h)
  1448  014F  00C6               	movwf	((?_delaynms))+1
  1449  0150  120A  118A  25B1   	fcall	_delaynms
              120A  118A         
  1450                           	line	97
  1451                           	
  1452  0155                     l9919:	
  1453                           ;main.c: 97: write_IIC(0x04,0x4c );
  1454  0155  304C               	movlw	(04Ch)
  1455  0156  1283               	bcf	status, 5	;RP0=0, select bank0
  1456  0157  1303               	bcf	status, 6	;RP1=0, select bank0
  1457  0158  00CD               	movwf	(??_main+0)+0
  1458  0159  084D               	movf	(??_main+0)+0,w
  1459  015A  00C7               	movwf	(?_write_IIC)
  1460  015B  3004               	movlw	(04h)
  1461  015C  120A  118A  231B   	fcall	_write_IIC
              120A  118A         
  1462                           	line	98
  1463                           	
  1464  0161                     l9921:	
  1465                           ;main.c: 98: delaynms(1);
  1466  0161  3001               	movlw	low(01h)
  1467  0162  1283               	bcf	status, 5	;RP0=0, select bank0
  1468  0163  1303               	bcf	status, 6	;RP1=0, select bank0
  1469  0164  00C5               	movwf	(?_delaynms)
  1470  0165  3000               	movlw	high(01h)
  1471  0166  00C6               	movwf	((?_delaynms))+1
  1472  0167  120A  118A  25B1   	fcall	_delaynms
              120A  118A         
  1473                           	line	99
  1474                           ;main.c: 99: Initial_Flag = 1;
  1475  016C  1283               	bcf	status, 5	;RP0=0, select bank0
  1476  016D  1303               	bcf	status, 6	;RP1=0, select bank0
  1477  016E  01B6               	clrf	(_Initial_Flag)
  1478  016F  1403               	bsf	status,0
  1479  0170  0DB6               	rlf	(_Initial_Flag),f
  1480                           	line	100
  1481                           ;main.c: 100: kai = 1;
  1482  0171  01C4               	clrf	(_kai)
  1483  0172  1403               	bsf	status,0
  1484  0173  0DC4               	rlf	(_kai),f
  1485                           	line	101
  1486                           ;main.c: 101: break;
  1487  0174  297C               	goto	l9925
  1488                           	line	102
  1489                           	
  1490  0175                     l3093:	
  1491                           	line	91
  1492                           	
  1493  0175                     l9923:	
  1494  0175  1283               	bcf	status, 5	;RP0=0, select bank0
  1495  0176  1303               	bcf	status, 6	;RP1=0, select bank0
  1496  0177  0836               	movf	(_Initial_Flag),w
  1497  0178  1D03               	skipz
  1498  0179  297B               	goto	u4320
  1499  017A  2938               	goto	l9913
  1500  017B                     u4320:
  1501  017B  297C               	goto	l9925
  1502                           	
  1503  017C                     l3095:	
  1504                           	line	103
  1505                           	
  1506  017C                     l9925:	
  1507                           ;main.c: 102: }
  1508                           ;main.c: 103: if((Start_Flag == 0)&&(kai == 1))
  1509  017C  08BE               	movf	(_Start_Flag),f
  1510  017D  1D03               	skipz
  1511  017E  2980               	goto	u4331
  1512  017F  2981               	goto	u4330
  1513  0180                     u4331:
  1514  0180  298D               	goto	l9931
  1515  0181                     u4330:
  1516                           	
  1517  0181                     l9927:	
  1518  0181  0844               	movf	(_kai),w
  1519  0182  3A01               	xorlw	01h
  1520  0183  1D03               	skipz
  1521  0184  2986               	goto	u4341
  1522  0185  2987               	goto	u4340
  1523  0186                     u4341:
  1524  0186  298D               	goto	l9931
  1525  0187                     u4340:
  1526                           	line	105
  1527                           	
  1528  0187                     l9929:	
  1529                           ;main.c: 104: {
  1530                           ;main.c: 105: Motor_adjusting_speed();
  1531  0187  120A  118A  24C0   	fcall	_Motor_adjusting_speed
              120A  118A         
  1532                           	line	106
  1533                           ;main.c: 106: }
  1534  018C  2824               	goto	l9823
  1535                           	line	107
  1536                           	
  1537  018D                     l3096:	
  1538                           	
  1539  018D                     l9931:	
  1540                           ;main.c: 107: else if(Stop_Flag == 1)
  1541  018D  1283               	bcf	status, 5	;RP0=0, select bank0
  1542  018E  1303               	bcf	status, 6	;RP1=0, select bank0
  1543  018F  0840               	movf	(_Stop_Flag),w
  1544  0190  3A01               	xorlw	01h
  1545  0191  1D03               	skipz
  1546  0192  2994               	goto	u4351
  1547  0193  2995               	goto	u4350
  1548  0194                     u4351:
  1549  0194  2824               	goto	l9823
  1550  0195                     u4350:
  1551                           	line	109
  1552                           	
  1553  0195                     l9933:	
  1554                           ;main.c: 108: {
  1555                           ;main.c: 109: Open_Cover_Flag = 1;
  1556  0195  01BD               	clrf	(_Open_Cover_Flag)
  1557  0196  1403               	bsf	status,0
  1558  0197  0DBD               	rlf	(_Open_Cover_Flag),f
  1559                           	line	110
  1560                           ;main.c: 110: if(Once == 0)
  1561  0198  08B9               	movf	(_Once),f
  1562  0199  1D03               	skipz
  1563  019A  299C               	goto	u4361
  1564  019B  299D               	goto	u4360
  1565  019C                     u4361:
  1566  019C  29AB               	goto	l9941
  1567  019D                     u4360:
  1568                           	line	112
  1569                           	
  1570  019D                     l9935:	
  1571                           ;main.c: 111: {
  1572                           ;main.c: 112: MotorClose();
  1573  019D  120A  118A  221C   	fcall	_MotorClose
              120A  118A         
  1574                           	line	113
  1575                           	
  1576  01A2                     l9937:	
  1577                           ;main.c: 113: Once = 1;
  1578  01A2  1283               	bcf	status, 5	;RP0=0, select bank0
  1579  01A3  1303               	bcf	status, 6	;RP1=0, select bank0
  1580  01A4  01B9               	clrf	(_Once)
  1581  01A5  1403               	bsf	status,0
  1582  01A6  0DB9               	rlf	(_Once),f
  1583                           	line	114
  1584                           	
  1585  01A7                     l9939:	
  1586                           ;main.c: 114: Forbid_input = 1;
  1587  01A7  01B5               	clrf	(_Forbid_input)
  1588  01A8  1403               	bsf	status,0
  1589  01A9  0DB5               	rlf	(_Forbid_input),f
  1590  01AA  29AB               	goto	l9941
  1591                           	line	115
  1592                           	
  1593  01AB                     l3099:	
  1594                           	line	116
  1595                           	
  1596  01AB                     l9941:	
  1597                           ;main.c: 115: }
  1598                           ;main.c: 116: Count_Flag=0;
  1599  01AB  01F6               	clrf	(_Count_Flag)
  1600                           	line	117
  1601                           	
  1602  01AC                     l9943:	
  1603                           ;main.c: 117: if(Open_Cover_times >= 2700)
  1604  01AC  300A               	movlw	high(0A8Ch)
  1605  01AD  022F               	subwf	(_Open_Cover_times+1),w
  1606  01AE  308C               	movlw	low(0A8Ch)
  1607  01AF  1903               	skipnz
  1608  01B0  022E               	subwf	(_Open_Cover_times),w
  1609  01B1  1C03               	skipc
  1610  01B2  29B4               	goto	u4371
  1611  01B3  29B5               	goto	u4370
  1612  01B4                     u4371:
  1613  01B4  2824               	goto	l9823
  1614  01B5                     u4370:
  1615                           	line	120
  1616                           	
  1617  01B5                     l9945:	
  1618                           ;main.c: 118: {
  1619                           ;main.c: 120: The_Close();
  1620  01B5  120A  118A  2646   	fcall	_The_Close
              120A  118A         
  1621  01BA  2824               	goto	l9823
  1622                           	line	121
  1623                           	
  1624  01BB                     l3100:	
  1625  01BB  2824               	goto	l9823
  1626                           	line	122
  1627                           	
  1628  01BC                     l3098:	
  1629  01BC  2824               	goto	l9823
  1630                           	line	123
  1631                           	
  1632  01BD                     l3097:	
  1633                           ;main.c: 121: }
  1634                           ;main.c: 122: }
  1635                           ;main.c: 123: }
  1636  01BD  2824               	goto	l9823
  1637                           	line	124
  1638                           	
  1639  01BE                     l3092:	
  1640                           	
  1641  01BE                     l9947:	
  1642                           ;main.c: 124: else if(Key_Run == 2)
  1643  01BE  1283               	bcf	status, 5	;RP0=0, select bank0
  1644  01BF  1303               	bcf	status, 6	;RP1=0, select bank0
  1645  01C0  0837               	movf	(_Key_Run),w
  1646  01C1  3A02               	xorlw	02h
  1647  01C2  1D03               	skipz
  1648  01C3  29C5               	goto	u4381
  1649  01C4  29C6               	goto	u4380
  1650  01C5                     u4381:
  1651  01C5  2824               	goto	l9823
  1652  01C6                     u4380:
  1653                           	line	126
  1654                           	
  1655  01C6                     l9949:	
  1656                           # 126 "main.c"
  1657  01C6  0064               clrwdt ;#
  1658                           psect	maintext
  1659                           	line	127
  1660                           	
  1661  01C7                     l9951:	
  1662                           ;main.c: 127: Open_Cover_Flag = 1;
  1663  01C7  1283               	bcf	status, 5	;RP0=0, select bank0
  1664  01C8  1303               	bcf	status, 6	;RP1=0, select bank0
  1665  01C9  01BD               	clrf	(_Open_Cover_Flag)
  1666  01CA  1403               	bsf	status,0
  1667  01CB  0DBD               	rlf	(_Open_Cover_Flag),f
  1668                           	line	128
  1669                           ;main.c: 128: Forbid_input = 1;
  1670  01CC  01B5               	clrf	(_Forbid_input)
  1671  01CD  1403               	bsf	status,0
  1672  01CE  0DB5               	rlf	(_Forbid_input),f
  1673                           	line	129
  1674                           ;main.c: 129: if(Once == 0)
  1675  01CF  08B9               	movf	(_Once),f
  1676  01D0  1D03               	skipz
  1677  01D1  29D3               	goto	u4391
  1678  01D2  29D4               	goto	u4390
  1679  01D3                     u4391:
  1680  01D3  29DF               	goto	l9957
  1681  01D4                     u4390:
  1682                           	line	131
  1683                           	
  1684  01D4                     l9953:	
  1685                           ;main.c: 130: {
  1686                           ;main.c: 131: MotorClose();
  1687  01D4  120A  118A  221C   	fcall	_MotorClose
              120A  118A         
  1688                           	line	132
  1689                           	
  1690  01D9                     l9955:	
  1691                           ;main.c: 132: Once = 1;
  1692  01D9  1283               	bcf	status, 5	;RP0=0, select bank0
  1693  01DA  1303               	bcf	status, 6	;RP1=0, select bank0
  1694  01DB  01B9               	clrf	(_Once)
  1695  01DC  1403               	bsf	status,0
  1696  01DD  0DB9               	rlf	(_Once),f
  1697  01DE  29DF               	goto	l9957
  1698                           	line	133
  1699                           	
  1700  01DF                     l3103:	
  1701                           	line	134
  1702                           	
  1703  01DF                     l9957:	
  1704                           ;main.c: 133: }
  1705                           ;main.c: 134: Count_Flag=0;
  1706  01DF  01F6               	clrf	(_Count_Flag)
  1707                           	line	135
  1708                           	
  1709  01E0                     l9959:	
  1710                           ;main.c: 135: if(Open_Cover_times >= 2700)
  1711  01E0  300A               	movlw	high(0A8Ch)
  1712  01E1  022F               	subwf	(_Open_Cover_times+1),w
  1713  01E2  308C               	movlw	low(0A8Ch)
  1714  01E3  1903               	skipnz
  1715  01E4  022E               	subwf	(_Open_Cover_times),w
  1716  01E5  1C03               	skipc
  1717  01E6  29E8               	goto	u4401
  1718  01E7  29E9               	goto	u4400
  1719  01E8                     u4401:
  1720  01E8  2824               	goto	l9823
  1721  01E9                     u4400:
  1722                           	line	137
  1723                           	
  1724  01E9                     l9961:	
  1725                           ;main.c: 136: {
  1726                           ;main.c: 137: The_Close();
  1727  01E9  120A  118A  2646   	fcall	_The_Close
              120A  118A         
  1728  01EE  2824               	goto	l9823
  1729                           	line	138
  1730                           	
  1731  01EF                     l3104:	
  1732  01EF  2824               	goto	l9823
  1733                           	line	139
  1734                           	
  1735  01F0                     l3102:	
  1736  01F0  2824               	goto	l9823
  1737                           	line	140
  1738                           	
  1739  01F1                     l3101:	
  1740                           ;main.c: 138: }
  1741                           ;main.c: 139: }
  1742                           ;main.c: 140: }
  1743  01F1  2824               	goto	l9823
  1744                           	line	141
  1745                           	
  1746  01F2                     l3091:	
  1747                           ;main.c: 141: else if (PORTAbits.RA1 != 0) write_IIC(0x00,0x00 );
  1748  01F2  1C85               	btfss	(5),1	;volatile
  1749  01F3  29F5               	goto	u4411
  1750  01F4  29F6               	goto	u4410
  1751  01F5                     u4411:
  1752  01F5  29FE               	goto	l3106
  1753  01F6                     u4410:
  1754                           	
  1755  01F6                     l9963:	
  1756  01F6  01C7               	clrf	(?_write_IIC)
  1757  01F7  3000               	movlw	(0)
  1758  01F8  120A  118A  231B   	fcall	_write_IIC
              120A  118A         
  1759  01FD  2824               	goto	l9823
  1760                           	line	142
  1761                           	
  1762  01FE                     l3106:	
  1763                           ;main.c: 142: else if((PORTAbits.RA1 != 0) && (Initial_Flag == 1))
  1764  01FE  1C85               	btfss	(5),1	;volatile
  1765  01FF  2A01               	goto	u4421
  1766  0200  2A02               	goto	u4420
  1767  0201                     u4421:
  1768  0201  2824               	goto	l9823
  1769  0202                     u4420:
  1770                           	
  1771  0202                     l9965:	
  1772  0202  0836               	movf	(_Initial_Flag),w
  1773  0203  3A01               	xorlw	01h
  1774  0204  1D03               	skipz
  1775  0205  2A07               	goto	u4431
  1776  0206  2A08               	goto	u4430
  1777  0207                     u4431:
  1778  0207  2824               	goto	l9823
  1779  0208                     u4430:
  1780  0208  2A09               	goto	l9967
  1781                           	line	144
  1782                           ;main.c: 143: {
  1783                           ;main.c: 144: while(1)
  1784                           	
  1785  0209                     l3109:	
  1786                           	line	146
  1787                           	
  1788  0209                     l9967:	
  1789                           ;main.c: 145: {
  1790                           ;main.c: 146: write_IIC(0x00,0x00 ); ;
  1791  0209  1283               	bcf	status, 5	;RP0=0, select bank0
  1792  020A  1303               	bcf	status, 6	;RP1=0, select bank0
  1793  020B  01C7               	clrf	(?_write_IIC)
  1794  020C  3000               	movlw	(0)
  1795  020D  120A  118A  231B   	fcall	_write_IIC
              120A  118A         
  1796  0212  2A09               	goto	l9967
  1797                           	line	147
  1798                           	
  1799  0213                     l3110:	
  1800                           	line	144
  1801  0213  2A09               	goto	l9967
  1802                           	
  1803  0214                     l3111:	
  1804  0214  2824               	goto	l9823
  1805                           	line	148
  1806                           	
  1807  0215                     l3108:	
  1808  0215  2824               	goto	l9823
  1809                           	line	149
  1810                           	
  1811  0216                     l3107:	
  1812  0216  2824               	goto	l9823
  1813                           	
  1814  0217                     l3105:	
  1815  0217  2824               	goto	l9823
  1816                           	
  1817  0218                     l3112:	
  1818                           	line	32
  1819  0218  2824               	goto	l9823
  1820                           	
  1821  0219                     l3113:	
  1822                           	line	150
  1823                           	
  1824  0219                     l3114:	
  1825                           	global	start
  1826  0219  120A  118A  2812   	ljmp	start
  1827                           	opt stack 0
  1828                           GLOBAL	__end_of_main
  1829  021C                     	__end_of_main:
  1830 ;; =============== function _main ends ============
  1831                           
  1832                           	signat	_main,88
  1833                           	global	_MotorClose
  1834                           psect	text825,local,class=CODE,delta=2
  1835                           global __ptext825
  1836  021C                     __ptext825:
  1837                           
  1838 ;; *************** function _MotorClose *****************
  1839 ;; Defined at:
  1840 ;;		line 40 in file "work.c"
  1841 ;; Parameters:    Size  Location     Type
  1842 ;;		None
  1843 ;; Auto vars:     Size  Location     Type
  1844 ;;		None
  1845 ;; Return value:  Size  Location     Type
  1846 ;;		None               void
  1847 ;; Registers used:
  1848 ;;		wreg, status,2, status,0, btemp+1, pclath, cstack
  1849 ;; Tracked objects:
  1850 ;;		On entry : 0/0
  1851 ;;		On exit  : 0/0
  1852 ;;		Unchanged: 0/0
  1853 ;; Data sizes:     COMMON   BANK0   BANK1   BANK3   BANK2
  1854 ;;      Params:         0       0       0       0       0
  1855 ;;      Locals:         0       0       0       0       0
  1856 ;;      Temps:          0       1       0       0       0
  1857 ;;      Totals:         0       1       0       0       0
  1858 ;;Total ram usage:        1 bytes
  1859 ;; Hardware stack levels used:    1
  1860 ;; Hardware stack levels required when called:    4
  1861 ;; This function calls:
  1862 ;;		_write_IIC
  1863 ;;		_delaynms
  1864 ;; This function is called by:
  1865 ;;		_main
  1866 ;;		_Motor_working_time
  1867 ;; This function uses a non-reentrant model
  1868 ;;
  1869                           psect	text825
  1870                           	file	"work.c"
  1871                           	line	40
  1872                           	global	__size_of_MotorClose
  1873  00FF                     	__size_of_MotorClose	equ	__end_of_MotorClose-_MotorClose
  1874                           	
  1875  021C                     _MotorClose:	
  1876                           	opt	stack 3
  1877                           ; Regs used in _MotorClose: [wreg+status,2+status,0+btemp+1+pclath+cstack]
  1878                           	line	41
  1879                           	
  1880  021C                     l9785:	
  1881                           ;work.c: 41: write_IIC(0x08 ,0xfc );
  1882  021C  30FC               	movlw	(0FCh)
  1883  021D  1283               	bcf	status, 5	;RP0=0, select bank0
  1884  021E  1303               	bcf	status, 6	;RP1=0, select bank0
  1885  021F  00CB               	movwf	(??_MotorClose+0)+0
  1886  0220  084B               	movf	(??_MotorClose+0)+0,w
  1887  0221  00C7               	movwf	(?_write_IIC)
  1888  0222  3008               	movlw	(08h)
  1889  0223  120A  118A  231B   	fcall	_write_IIC
              120A  118A         
  1890                           	line	42
  1891                           	
  1892  0228                     l9787:	
  1893                           ;work.c: 42: delaynms(100);
  1894  0228  3064               	movlw	low(064h)
  1895  0229  1283               	bcf	status, 5	;RP0=0, select bank0
  1896  022A  1303               	bcf	status, 6	;RP1=0, select bank0
  1897  022B  00C5               	movwf	(?_delaynms)
  1898  022C  3000               	movlw	high(064h)
  1899  022D  00C6               	movwf	((?_delaynms))+1
  1900  022E  120A  118A  25B1   	fcall	_delaynms
              120A  118A         
  1901                           	line	43
  1902                           	
  1903  0233                     l9789:	
  1904                           ;work.c: 43: write_IIC(0x07 ,0x9E );
  1905  0233  309E               	movlw	(09Eh)
  1906  0234  1283               	bcf	status, 5	;RP0=0, select bank0
  1907  0235  1303               	bcf	status, 6	;RP1=0, select bank0
  1908  0236  00CB               	movwf	(??_MotorClose+0)+0
  1909  0237  084B               	movf	(??_MotorClose+0)+0,w
  1910  0238  00C7               	movwf	(?_write_IIC)
  1911  0239  3007               	movlw	(07h)
  1912  023A  120A  118A  231B   	fcall	_write_IIC
              120A  118A         
  1913                           	line	44
  1914                           ;work.c: 44: delaynms(100);
  1915  023F  3064               	movlw	low(064h)
  1916  0240  1283               	bcf	status, 5	;RP0=0, select bank0
  1917  0241  1303               	bcf	status, 6	;RP1=0, select bank0
  1918  0242  00C5               	movwf	(?_delaynms)
  1919  0243  3000               	movlw	high(064h)
  1920  0244  00C6               	movwf	((?_delaynms))+1
  1921  0245  120A  118A  25B1   	fcall	_delaynms
              120A  118A         
  1922                           	line	47
  1923                           	
  1924  024A                     l9791:	
  1925                           ;work.c: 47: write_IIC(0x06 ,0x66 );
  1926  024A  3066               	movlw	(066h)
  1927  024B  1283               	bcf	status, 5	;RP0=0, select bank0
  1928  024C  1303               	bcf	status, 6	;RP1=0, select bank0
  1929  024D  00CB               	movwf	(??_MotorClose+0)+0
  1930  024E  084B               	movf	(??_MotorClose+0)+0,w
  1931  024F  00C7               	movwf	(?_write_IIC)
  1932  0250  3006               	movlw	(06h)
  1933  0251  120A  118A  231B   	fcall	_write_IIC
              120A  118A         
  1934                           	line	48
  1935                           	
  1936  0256                     l9793:	
  1937                           ;work.c: 48: delaynms(100);
  1938  0256  3064               	movlw	low(064h)
  1939  0257  1283               	bcf	status, 5	;RP0=0, select bank0
  1940  0258  1303               	bcf	status, 6	;RP1=0, select bank0
  1941  0259  00C5               	movwf	(?_delaynms)
  1942  025A  3000               	movlw	high(064h)
  1943  025B  00C6               	movwf	((?_delaynms))+1
  1944  025C  120A  118A  25B1   	fcall	_delaynms
              120A  118A         
  1945                           	line	49
  1946                           ;work.c: 49: write_IIC(0x05,0x70 );
  1947  0261  3070               	movlw	(070h)
  1948  0262  1283               	bcf	status, 5	;RP0=0, select bank0
  1949  0263  1303               	bcf	status, 6	;RP1=0, select bank0
  1950  0264  00CB               	movwf	(??_MotorClose+0)+0
  1951  0265  084B               	movf	(??_MotorClose+0)+0,w
  1952  0266  00C7               	movwf	(?_write_IIC)
  1953  0267  3005               	movlw	(05h)
  1954  0268  120A  118A  231B   	fcall	_write_IIC
              120A  118A         
  1955                           	line	50
  1956                           	
  1957  026D                     l9795:	
  1958                           ;work.c: 50: delaynms(100);
  1959  026D  3064               	movlw	low(064h)
  1960  026E  1283               	bcf	status, 5	;RP0=0, select bank0
  1961  026F  1303               	bcf	status, 6	;RP1=0, select bank0
  1962  0270  00C5               	movwf	(?_delaynms)
  1963  0271  3000               	movlw	high(064h)
  1964  0272  00C6               	movwf	((?_delaynms))+1
  1965  0273  120A  118A  25B1   	fcall	_delaynms
              120A  118A         
  1966                           	line	53
  1967                           	
  1968  0278                     l9797:	
  1969                           ;work.c: 53: write_IIC(0x03,0xD6 );
  1970  0278  30D6               	movlw	(0D6h)
  1971  0279  1283               	bcf	status, 5	;RP0=0, select bank0
  1972  027A  1303               	bcf	status, 6	;RP1=0, select bank0
  1973  027B  00CB               	movwf	(??_MotorClose+0)+0
  1974  027C  084B               	movf	(??_MotorClose+0)+0,w
  1975  027D  00C7               	movwf	(?_write_IIC)
  1976  027E  3003               	movlw	(03h)
  1977  027F  120A  118A  231B   	fcall	_write_IIC
              120A  118A         
  1978                           	line	54
  1979                           ;work.c: 54: delaynms(100);
  1980  0284  3064               	movlw	low(064h)
  1981  0285  1283               	bcf	status, 5	;RP0=0, select bank0
  1982  0286  1303               	bcf	status, 6	;RP1=0, select bank0
  1983  0287  00C5               	movwf	(?_delaynms)
  1984  0288  3000               	movlw	high(064h)
  1985  0289  00C6               	movwf	((?_delaynms))+1
  1986  028A  120A  118A  25B1   	fcall	_delaynms
              120A  118A         
  1987                           	line	57
  1988                           	
  1989  028F                     l9799:	
  1990                           ;work.c: 57: write_IIC(0x02,0x6B );
  1991  028F  306B               	movlw	(06Bh)
  1992  0290  1283               	bcf	status, 5	;RP0=0, select bank0
  1993  0291  1303               	bcf	status, 6	;RP1=0, select bank0
  1994  0292  00CB               	movwf	(??_MotorClose+0)+0
  1995  0293  084B               	movf	(??_MotorClose+0)+0,w
  1996  0294  00C7               	movwf	(?_write_IIC)
  1997  0295  3002               	movlw	(02h)
  1998  0296  120A  118A  231B   	fcall	_write_IIC
              120A  118A         
  1999                           	line	58
  2000                           	
  2001  029B                     l9801:	
  2002                           ;work.c: 58: delaynms(100);
  2003  029B  3064               	movlw	low(064h)
  2004  029C  1283               	bcf	status, 5	;RP0=0, select bank0
  2005  029D  1303               	bcf	status, 6	;RP1=0, select bank0
  2006  029E  00C5               	movwf	(?_delaynms)
  2007  029F  3000               	movlw	high(064h)
  2008  02A0  00C6               	movwf	((?_delaynms))+1
  2009  02A1  120A  118A  25B1   	fcall	_delaynms
              120A  118A         
  2010                           	line	59
  2011                           ;work.c: 59: write_IIC(0x01,0xA3 );
  2012  02A6  30A3               	movlw	(0A3h)
  2013  02A7  1283               	bcf	status, 5	;RP0=0, select bank0
  2014  02A8  1303               	bcf	status, 6	;RP1=0, select bank0
  2015  02A9  00CB               	movwf	(??_MotorClose+0)+0
  2016  02AA  084B               	movf	(??_MotorClose+0)+0,w
  2017  02AB  00C7               	movwf	(?_write_IIC)
  2018  02AC  3001               	movlw	(01h)
  2019  02AD  120A  118A  231B   	fcall	_write_IIC
              120A  118A         
  2020                           	line	60
  2021                           	
  2022  02B2                     l9803:	
  2023                           ;work.c: 60: delaynms(100);
  2024  02B2  3064               	movlw	low(064h)
  2025  02B3  1283               	bcf	status, 5	;RP0=0, select bank0
  2026  02B4  1303               	bcf	status, 6	;RP1=0, select bank0
  2027  02B5  00C5               	movwf	(?_delaynms)
  2028  02B6  3000               	movlw	high(064h)
  2029  02B7  00C6               	movwf	((?_delaynms))+1
  2030  02B8  120A  118A  25B1   	fcall	_delaynms
              120A  118A         
  2031                           	line	61
  2032                           	
  2033  02BD                     l9805:	
  2034                           ;work.c: 61: write_IIC(0x00,0x64 );
  2035  02BD  3064               	movlw	(064h)
  2036  02BE  1283               	bcf	status, 5	;RP0=0, select bank0
  2037  02BF  1303               	bcf	status, 6	;RP1=0, select bank0
  2038  02C0  00CB               	movwf	(??_MotorClose+0)+0
  2039  02C1  084B               	movf	(??_MotorClose+0)+0,w
  2040  02C2  00C7               	movwf	(?_write_IIC)
  2041  02C3  3000               	movlw	(0)
  2042  02C4  120A  118A  231B   	fcall	_write_IIC
              120A  118A         
  2043                           	line	62
  2044                           ;work.c: 62: delaynms(100);
  2045  02C9  3064               	movlw	low(064h)
  2046  02CA  1283               	bcf	status, 5	;RP0=0, select bank0
  2047  02CB  1303               	bcf	status, 6	;RP1=0, select bank0
  2048  02CC  00C5               	movwf	(?_delaynms)
  2049  02CD  3000               	movlw	high(064h)
  2050  02CE  00C6               	movwf	((?_delaynms))+1
  2051  02CF  120A  118A  25B1   	fcall	_delaynms
              120A  118A         
  2052                           	line	63
  2053                           	
  2054  02D4                     l9807:	
  2055                           ;work.c: 63: write_IIC(0x00,0x32 );
  2056  02D4  3032               	movlw	(032h)
  2057  02D5  1283               	bcf	status, 5	;RP0=0, select bank0
  2058  02D6  1303               	bcf	status, 6	;RP1=0, select bank0
  2059  02D7  00CB               	movwf	(??_MotorClose+0)+0
  2060  02D8  084B               	movf	(??_MotorClose+0)+0,w
  2061  02D9  00C7               	movwf	(?_write_IIC)
  2062  02DA  3000               	movlw	(0)
  2063  02DB  120A  118A  231B   	fcall	_write_IIC
              120A  118A         
  2064                           	line	64
  2065                           	
  2066  02E0                     l9809:	
  2067                           ;work.c: 64: delaynms(100);
  2068  02E0  3064               	movlw	low(064h)
  2069  02E1  1283               	bcf	status, 5	;RP0=0, select bank0
  2070  02E2  1303               	bcf	status, 6	;RP1=0, select bank0
  2071  02E3  00C5               	movwf	(?_delaynms)
  2072  02E4  3000               	movlw	high(064h)
  2073  02E5  00C6               	movwf	((?_delaynms))+1
  2074  02E6  120A  118A  25B1   	fcall	_delaynms
              120A  118A         
  2075                           	line	65
  2076                           ;work.c: 65: write_IIC(0x00,0x14 );
  2077  02EB  3014               	movlw	(014h)
  2078  02EC  1283               	bcf	status, 5	;RP0=0, select bank0
  2079  02ED  1303               	bcf	status, 6	;RP1=0, select bank0
  2080  02EE  00CB               	movwf	(??_MotorClose+0)+0
  2081  02EF  084B               	movf	(??_MotorClose+0)+0,w
  2082  02F0  00C7               	movwf	(?_write_IIC)
  2083  02F1  3000               	movlw	(0)
  2084  02F2  120A  118A  231B   	fcall	_write_IIC
              120A  118A         
  2085                           	line	66
  2086                           	
  2087  02F7                     l9811:	
  2088                           ;work.c: 66: delaynms(100);
  2089  02F7  3064               	movlw	low(064h)
  2090  02F8  1283               	bcf	status, 5	;RP0=0, select bank0
  2091  02F9  1303               	bcf	status, 6	;RP1=0, select bank0
  2092  02FA  00C5               	movwf	(?_delaynms)
  2093  02FB  3000               	movlw	high(064h)
  2094  02FC  00C6               	movwf	((?_delaynms))+1
  2095  02FD  120A  118A  25B1   	fcall	_delaynms
              120A  118A         
  2096                           	line	67
  2097                           	
  2098  0302                     l9813:	
  2099                           ;work.c: 67: write_IIC(0x00,0x00 );
  2100  0302  1283               	bcf	status, 5	;RP0=0, select bank0
  2101  0303  1303               	bcf	status, 6	;RP1=0, select bank0
  2102  0304  01C7               	clrf	(?_write_IIC)
  2103  0305  3000               	movlw	(0)
  2104  0306  120A  118A  231B   	fcall	_write_IIC
              120A  118A         
  2105                           	line	68
  2106                           ;work.c: 68: delaynms(100);
  2107  030B  3064               	movlw	low(064h)
  2108  030C  1283               	bcf	status, 5	;RP0=0, select bank0
  2109  030D  1303               	bcf	status, 6	;RP1=0, select bank0
  2110  030E  00C5               	movwf	(?_delaynms)
  2111  030F  3000               	movlw	high(064h)
  2112  0310  00C6               	movwf	((?_delaynms))+1
  2113  0311  120A  118A  25B1   	fcall	_delaynms
              120A  118A         
  2114                           	line	69
  2115                           	
  2116  0316                     l9815:	
  2117                           ;work.c: 69: TMR1ON=1;
  2118  0316  1283               	bcf	status, 5	;RP0=0, select bank0
  2119  0317  1303               	bcf	status, 6	;RP1=0, select bank0
  2120  0318  1410               	bsf	(128/8),(128)&7
  2121                           	line	70
  2122                           	
  2123  0319                     l9817:	
  2124                           ;work.c: 70: GIE=1;
  2125  0319  178B               	bsf	(95/8),(95)&7
  2126                           	line	71
  2127                           	
  2128  031A                     l4109:	
  2129  031A  0008               	return
  2130                           	opt stack 0
  2131                           GLOBAL	__end_of_MotorClose
  2132  031B                     	__end_of_MotorClose:
  2133 ;; =============== function _MotorClose ends ============
  2134                           
  2135                           	signat	_MotorClose,88
  2136                           	global	_Motor_adjusting_speed
  2137                           psect	text826,local,class=CODE,delta=2
  2138                           global __ptext826
  2139  04C0                     __ptext826:
  2140                           
  2141 ;; *************** function _Motor_adjusting_speed *****************
  2142 ;; Defined at:
  2143 ;;		line 73 in file "work.c"
  2144 ;; Parameters:    Size  Location     Type
  2145 ;;		None
  2146 ;; Auto vars:     Size  Location     Type
  2147 ;;		None
  2148 ;; Return value:  Size  Location     Type
  2149 ;;		None               void
  2150 ;; Registers used:
  2151 ;;		wreg, status,2, status,0, btemp+1, pclath, cstack
  2152 ;; Tracked objects:
  2153 ;;		On entry : 0/0
  2154 ;;		On exit  : 0/0
  2155 ;;		Unchanged: 0/0
  2156 ;; Data sizes:     COMMON   BANK0   BANK1   BANK3   BANK2
  2157 ;;      Params:         0       0       0       0       0
  2158 ;;      Locals:         0       0       0       0       0
  2159 ;;      Temps:          0       1       0       0       0
  2160 ;;      Totals:         0       1       0       0       0
  2161 ;;Total ram usage:        1 bytes
  2162 ;; Hardware stack levels used:    1
  2163 ;; Hardware stack levels required when called:    4
  2164 ;; This function calls:
  2165 ;;		_write_IIC
  2166 ;; This function is called by:
  2167 ;;		_main
  2168 ;; This function uses a non-reentrant model
  2169 ;;
  2170                           psect	text826
  2171                           	file	"work.c"
  2172                           	line	73
  2173                           	global	__size_of_Motor_adjusting_speed
  2174  005C                     	__size_of_Motor_adjusting_speed	equ	__end_of_Motor_adjusting_speed-_Motor_adjusting_spe
                                 ed
  2175                           	
  2176  04C0                     _Motor_adjusting_speed:	
  2177                           	opt	stack 3
  2178                           ; Regs used in _Motor_adjusting_speed: [wreg+status,2+status,0+btemp+1+pclath+cstack]
  2179                           	line	74
  2180                           	
  2181  04C0                     l9755:	
  2182                           ;work.c: 74: while(Flag_FG_Period == 0);
  2183  04C0  2CC2               	goto	l9757
  2184                           	
  2185  04C1                     l4113:	
  2186  04C1  2CC2               	goto	l9757
  2187                           	
  2188  04C2                     l4112:	
  2189                           	
  2190  04C2                     l9757:	
  2191  04C2  1283               	bcf	status, 5	;RP0=0, select bank0
  2192  04C3  1303               	bcf	status, 6	;RP1=0, select bank0
  2193  04C4  0851               	movf	(_Flag_FG_Period),w
  2194  04C5  1D03               	skipz
  2195  04C6  2CC8               	goto	u4080
  2196  04C7  2CC2               	goto	l9757
  2197  04C8                     u4080:
  2198                           	
  2199  04C8                     l4114:	
  2200                           	line	75
  2201                           ;work.c: 75: Flag_FG_Period=0;
  2202  04C8  01D1               	clrf	(_Flag_FG_Period)
  2203                           	line	76
  2204                           ;work.c: 76: GIE=0;
  2205  04C9  138B               	bcf	(95/8),(95)&7
  2206                           	line	77
  2207                           	
  2208  04CA                     l9759:	
  2209                           ;work.c: 77: if(Flag_FG_Period_time>25)
  2210  04CA  3000               	movlw	high(01Ah)
  2211  04CB  0229               	subwf	(_Flag_FG_Period_time+1),w
  2212  04CC  301A               	movlw	low(01Ah)
  2213  04CD  1903               	skipnz
  2214  04CE  0228               	subwf	(_Flag_FG_Period_time),w
  2215  04CF  1C03               	skipc
  2216  04D0  2CD2               	goto	u4091
  2217  04D1  2CD3               	goto	u4090
  2218  04D2                     u4091:
  2219  04D2  2CF2               	goto	l9771
  2220  04D3                     u4090:
  2221                           	line	79
  2222                           	
  2223  04D3                     l9761:	
  2224                           ;work.c: 78: {
  2225                           ;work.c: 79: VOLT=VOLT+1;
  2226  04D3  084F               	movf	(_VOLT),w
  2227  04D4  3E01               	addlw	low(01h)
  2228  04D5  00CF               	movwf	(_VOLT)
  2229  04D6  0850               	movf	(_VOLT+1),w
  2230  04D7  1803               	skipnc
  2231  04D8  3E01               	addlw	1
  2232  04D9  3E00               	addlw	high(01h)
  2233  04DA  00D0               	movwf	1+(_VOLT)
  2234                           	line	80
  2235                           	
  2236  04DB                     l9763:	
  2237                           ;work.c: 80: VOLT_H=(VOLT&0xFF00)>>8;
  2238  04DB  0850               	movf	(_VOLT+1),w
  2239  04DC  00CB               	movwf	(??_Motor_adjusting_speed+0)+0
  2240  04DD  084B               	movf	(??_Motor_adjusting_speed+0)+0,w
  2241  04DE  00C1               	movwf	(_VOLT_H)
  2242                           	line	81
  2243                           	
  2244  04DF                     l9765:	
  2245                           ;work.c: 81: VOLT_L=VOLT&0x00FF;
  2246  04DF  084F               	movf	(_VOLT),w
  2247  04E0  00CB               	movwf	(??_Motor_adjusting_speed+0)+0
  2248  04E1  084B               	movf	(??_Motor_adjusting_speed+0)+0,w
  2249  04E2  00C2               	movwf	(_VOLT_L)
  2250                           	line	82
  2251                           	
  2252  04E3                     l9767:	
  2253                           ;work.c: 82: write_IIC(VOLT_H,VOLT_L );
  2254  04E3  0842               	movf	(_VOLT_L),w
  2255  04E4  00CB               	movwf	(??_Motor_adjusting_speed+0)+0
  2256  04E5  084B               	movf	(??_Motor_adjusting_speed+0)+0,w
  2257  04E6  00C7               	movwf	(?_write_IIC)
  2258  04E7  0841               	movf	(_VOLT_H),w
  2259  04E8  120A  118A  231B   	fcall	_write_IIC
              120A  118A         
  2260                           	line	83
  2261                           	
  2262  04ED                     l9769:	
  2263                           ;work.c: 83: FG_Period_time=0;
  2264  04ED  1283               	bcf	status, 5	;RP0=0, select bank0
  2265  04EE  1303               	bcf	status, 6	;RP1=0, select bank0
  2266  04EF  01A6               	clrf	(_FG_Period_time)
  2267  04F0  01A7               	clrf	(_FG_Period_time+1)
  2268  04F1  2CF2               	goto	l9771
  2269                           	line	84
  2270                           	
  2271  04F2                     l4115:	
  2272                           	line	85
  2273                           	
  2274  04F2                     l9771:	
  2275                           ;work.c: 84: }
  2276                           ;work.c: 85: if(Flag_FG_Period_time<10)
  2277  04F2  3000               	movlw	high(0Ah)
  2278  04F3  0229               	subwf	(_Flag_FG_Period_time+1),w
  2279  04F4  300A               	movlw	low(0Ah)
  2280  04F5  1903               	skipnz
  2281  04F6  0228               	subwf	(_Flag_FG_Period_time),w
  2282  04F7  1803               	skipnc
  2283  04F8  2CFA               	goto	u4101
  2284  04F9  2CFB               	goto	u4100
  2285  04FA                     u4101:
  2286  04FA  2D1A               	goto	l9783
  2287  04FB                     u4100:
  2288                           	line	87
  2289                           	
  2290  04FB                     l9773:	
  2291                           ;work.c: 86: {
  2292                           ;work.c: 87: VOLT=VOLT-1;
  2293  04FB  084F               	movf	(_VOLT),w
  2294  04FC  3EFF               	addlw	low(0FFFFh)
  2295  04FD  00CF               	movwf	(_VOLT)
  2296  04FE  0850               	movf	(_VOLT+1),w
  2297  04FF  1803               	skipnc
  2298  0500  3E01               	addlw	1
  2299  0501  3EFF               	addlw	high(0FFFFh)
  2300  0502  00D0               	movwf	1+(_VOLT)
  2301                           	line	88
  2302                           	
  2303  0503                     l9775:	
  2304                           ;work.c: 88: VOLT_H=(VOLT&0xFF00)>>8;
  2305  0503  0850               	movf	(_VOLT+1),w
  2306  0504  00CB               	movwf	(??_Motor_adjusting_speed+0)+0
  2307  0505  084B               	movf	(??_Motor_adjusting_speed+0)+0,w
  2308  0506  00C1               	movwf	(_VOLT_H)
  2309                           	line	89
  2310                           	
  2311  0507                     l9777:	
  2312                           ;work.c: 89: VOLT_L=VOLT&0x00FF;
  2313  0507  084F               	movf	(_VOLT),w
  2314  0508  00CB               	movwf	(??_Motor_adjusting_speed+0)+0
  2315  0509  084B               	movf	(??_Motor_adjusting_speed+0)+0,w
  2316  050A  00C2               	movwf	(_VOLT_L)
  2317                           	line	90
  2318                           	
  2319  050B                     l9779:	
  2320                           ;work.c: 90: write_IIC(VOLT_H,VOLT_L );
  2321  050B  0842               	movf	(_VOLT_L),w
  2322  050C  00CB               	movwf	(??_Motor_adjusting_speed+0)+0
  2323  050D  084B               	movf	(??_Motor_adjusting_speed+0)+0,w
  2324  050E  00C7               	movwf	(?_write_IIC)
  2325  050F  0841               	movf	(_VOLT_H),w
  2326  0510  120A  118A  231B   	fcall	_write_IIC
              120A  118A         
  2327                           	line	91
  2328                           	
  2329  0515                     l9781:	
  2330                           ;work.c: 91: FG_Period_time=0;
  2331  0515  1283               	bcf	status, 5	;RP0=0, select bank0
  2332  0516  1303               	bcf	status, 6	;RP1=0, select bank0
  2333  0517  01A6               	clrf	(_FG_Period_time)
  2334  0518  01A7               	clrf	(_FG_Period_time+1)
  2335  0519  2D1A               	goto	l9783
  2336                           	line	92
  2337                           	
  2338  051A                     l4116:	
  2339                           	line	93
  2340                           	
  2341  051A                     l9783:	
  2342                           ;work.c: 92: }
  2343                           ;work.c: 93: GIE=1;
  2344  051A  178B               	bsf	(95/8),(95)&7
  2345                           	line	94
  2346                           	
  2347  051B                     l4117:	
  2348  051B  0008               	return
  2349                           	opt stack 0
  2350                           GLOBAL	__end_of_Motor_adjusting_speed
  2351  051C                     	__end_of_Motor_adjusting_speed:
  2352 ;; =============== function _Motor_adjusting_speed ends ============
  2353                           
  2354                           	signat	_Motor_adjusting_speed,88
  2355                           	global	_The_Close
  2356                           psect	text827,local,class=CODE,delta=2
  2357                           global __ptext827
  2358  0646                     __ptext827:
  2359                           
  2360 ;; *************** function _The_Close *****************
  2361 ;; Defined at:
  2362 ;;		line 152 in file "main.c"
  2363 ;; Parameters:    Size  Location     Type
  2364 ;;		None
  2365 ;; Auto vars:     Size  Location     Type
  2366 ;;		None
  2367 ;; Return value:  Size  Location     Type
  2368 ;;		None               void
  2369 ;; Registers used:
  2370 ;;		wreg, status,2, status,0, pclath, cstack
  2371 ;; Tracked objects:
  2372 ;;		On entry : 0/0
  2373 ;;		On exit  : 0/0
  2374 ;;		Unchanged: 0/0
  2375 ;; Data sizes:     COMMON   BANK0   BANK1   BANK3   BANK2
  2376 ;;      Params:         0       0       0       0       0
  2377 ;;      Locals:         0       0       0       0       0
  2378 ;;      Temps:          0       0       0       0       0
  2379 ;;      Totals:         0       0       0       0       0
  2380 ;;Total ram usage:        0 bytes
  2381 ;; Hardware stack levels used:    1
  2382 ;; Hardware stack levels required when called:    3
  2383 ;; This function calls:
  2384 ;;		_delaynms
  2385 ;; This function is called by:
  2386 ;;		_main
  2387 ;; This function uses a non-reentrant model
  2388 ;;
  2389                           psect	text827
  2390                           	file	"main.c"
  2391                           	line	152
  2392                           	global	__size_of_The_Close
  2393  0028                     	__size_of_The_Close	equ	__end_of_The_Close-_The_Close
  2394                           	
  2395  0646                     _The_Close:	
  2396                           	opt	stack 4
  2397                           ; Regs used in _The_Close: [wreg+status,2+status,0+pclath+cstack]
  2398                           	line	153
  2399                           	
  2400  0646                     l9729:	
  2401                           ;main.c: 153: kai = 0;
  2402  0646  1283               	bcf	status, 5	;RP0=0, select bank0
  2403  0647  1303               	bcf	status, 6	;RP1=0, select bank0
  2404  0648  01C4               	clrf	(_kai)
  2405                           	line	154
  2406                           ;main.c: 154: Stop_Flag = 0;
  2407  0649  01C0               	clrf	(_Stop_Flag)
  2408                           	line	155
  2409                           ;main.c: 155: Start_Flag = 0;
  2410  064A  01BE               	clrf	(_Start_Flag)
  2411                           	line	156
  2412                           ;main.c: 156: Initial_Flag = 0;
  2413  064B  01B6               	clrf	(_Initial_Flag)
  2414                           	line	157
  2415                           ;main.c: 157: Work_Flag = 0;
  2416  064C  01FA               	clrf	(_Work_Flag)
  2417                           	line	158
  2418                           	
  2419  064D                     l9731:	
  2420                           ;main.c: 158: VOLT=1150;
  2421  064D  307E               	movlw	low(047Eh)
  2422  064E  00CF               	movwf	(_VOLT)
  2423  064F  3004               	movlw	high(047Eh)
  2424  0650  00D0               	movwf	((_VOLT))+1
  2425                           	line	159
  2426                           	
  2427  0651                     l9733:	
  2428                           ;main.c: 159: Open_Cover_Flag = 0;
  2429  0651  01BD               	clrf	(_Open_Cover_Flag)
  2430                           	line	160
  2431                           	
  2432  0652                     l9735:	
  2433                           ;main.c: 160: Open_Cover_times = 0;
  2434  0652  01AE               	clrf	(_Open_Cover_times)
  2435  0653  01AF               	clrf	(_Open_Cover_times+1)
  2436                           	line	161
  2437                           	
  2438  0654                     l9737:	
  2439                           ;main.c: 161: PORTAbits.RA2 = 1;asm ("NOP");
  2440  0654  1505               	bsf	(5),2	;volatile
  2441                           	
  2442  0655                     l9739:	
  2443                           # 161 "main.c"
  2444  0655  0000               NOP ;#
  2445                           psect	text827
  2446                           	line	162
  2447                           	
  2448  0656                     l9741:	
  2449                           ;main.c: 162: delaynms(10);
  2450  0656  300A               	movlw	low(0Ah)
  2451  0657  1283               	bcf	status, 5	;RP0=0, select bank0
  2452  0658  1303               	bcf	status, 6	;RP1=0, select bank0
  2453  0659  00C5               	movwf	(?_delaynms)
  2454  065A  3000               	movlw	high(0Ah)
  2455  065B  00C6               	movwf	((?_delaynms))+1
  2456  065C  120A  118A  25B1   	fcall	_delaynms
              120A  118A         
  2457                           	line	163
  2458                           	
  2459  0661                     l9743:	
  2460                           ;main.c: 163: PORTAbits.RA2 = 0;asm ("NOP");
  2461  0661  1283               	bcf	status, 5	;RP0=0, select bank0
  2462  0662  1303               	bcf	status, 6	;RP1=0, select bank0
  2463  0663  1105               	bcf	(5),2	;volatile
  2464                           	
  2465  0664                     l9745:	
  2466                           # 163 "main.c"
  2467  0664  0000               NOP ;#
  2468                           psect	text827
  2469                           	line	164
  2470                           	
  2471  0665                     l9747:	
  2472                           ;main.c: 164: Key_Run = 0;
  2473  0665  1283               	bcf	status, 5	;RP0=0, select bank0
  2474  0666  1303               	bcf	status, 6	;RP1=0, select bank0
  2475  0667  01B7               	clrf	(_Key_Run)
  2476                           	line	165
  2477                           	
  2478  0668                     l9749:	
  2479                           ;main.c: 165: Once = 0;
  2480  0668  01B9               	clrf	(_Once)
  2481                           	line	166
  2482                           	
  2483  0669                     l9751:	
  2484                           ;main.c: 166: Forbid_input=0;
  2485  0669  01B5               	clrf	(_Forbid_input)
  2486                           	line	167
  2487                           	
  2488  066A                     l9753:	
  2489                           ;main.c: 167: WDTCONbits.SWDTEN = 0;
  2490  066A  1283               	bcf	status, 5	;RP0=0, select bank2
  2491  066B  1703               	bsf	status, 6	;RP1=1, select bank2
  2492  066C  1005               	bcf	(261)^0100h,0	;volatile
  2493                           	line	168
  2494                           	
  2495  066D                     l3117:	
  2496  066D  0008               	return
  2497                           	opt stack 0
  2498                           GLOBAL	__end_of_The_Close
  2499  066E                     	__end_of_The_Close:
  2500 ;; =============== function _The_Close ends ============
  2501                           
  2502                           	signat	_The_Close,88
  2503                           	global	_write_IIC
  2504                           psect	text828,local,class=CODE,delta=2
  2505                           global __ptext828
  2506  031B                     __ptext828:
  2507                           
  2508 ;; *************** function _write_IIC *****************
  2509 ;; Defined at:
  2510 ;;		line 5 in file "IIC.c"
  2511 ;; Parameters:    Size  Location     Type
  2512 ;;  wdate_H         1    wreg     unsigned char 
  2513 ;;  wdate_L         1    2[BANK0 ] unsigned char 
  2514 ;; Auto vars:     Size  Location     Type
  2515 ;;  wdate_H         1    3[BANK0 ] unsigned char 
  2516 ;;  t               2    4[BANK0 ] int 
  2517 ;; Return value:  Size  Location     Type
  2518 ;;		None               void
  2519 ;; Registers used:
  2520 ;;		wreg, status,2, status,0, btemp+1, pclath, cstack
  2521 ;; Tracked objects:
  2522 ;;		On entry : 0/0
  2523 ;;		On exit  : 0/0
  2524 ;;		Unchanged: 0/0
  2525 ;; Data sizes:     COMMON   BANK0   BANK1   BANK3   BANK2
  2526 ;;      Params:         0       1       0       0       0
  2527 ;;      Locals:         0       3       0       0       0
  2528 ;;      Temps:          0       0       0       0       0
  2529 ;;      Totals:         0       4       0       0       0
  2530 ;;Total ram usage:        4 bytes
  2531 ;; Hardware stack levels used:    1
  2532 ;; Hardware stack levels required when called:    3
  2533 ;; This function calls:
  2534 ;;		_Delay
  2535 ;; This function is called by:
  2536 ;;		_main
  2537 ;;		_MotorClose
  2538 ;;		_Motor_adjusting_speed
  2539 ;;		_MotorStart
  2540 ;; This function uses a non-reentrant model
  2541 ;;
  2542                           psect	text828
  2543                           	file	"IIC.c"
  2544                           	line	5
  2545                           	global	__size_of_write_IIC
  2546  00E0                     	__size_of_write_IIC	equ	__end_of_write_IIC-_write_IIC
  2547                           	
  2548  031B                     _write_IIC:	
  2549                           	opt	stack 3
  2550                           ; Regs used in _write_IIC: [wreg+status,2+status,0+btemp+1+pclath+cstack]
  2551                           ;write_IIC@wdate_H stored from wreg
  2552  031B  1283               	bcf	status, 5	;RP0=0, select bank0
  2553  031C  1303               	bcf	status, 6	;RP1=0, select bank0
  2554  031D  00C8               	movwf	(write_IIC@wdate_H)
  2555                           	line	6
  2556                           	
  2557  031E                     l9659:	
  2558                           ;IIC.c: 6: int t=0;
  2559  031E  01C9               	clrf	(write_IIC@t)
  2560  031F  01CA               	clrf	(write_IIC@t+1)
  2561                           	line	7
  2562                           	
  2563  0320                     l9661:	
  2564                           ;IIC.c: 7: SSPIF=0;
  2565  0320  118C               	bcf	(99/8),(99)&7
  2566                           	line	8
  2567                           	
  2568  0321                     l9663:	
  2569                           ;IIC.c: 8: SEN=1;
  2570  0321  1683               	bsf	status, 5	;RP0=1, select bank1
  2571  0322  1303               	bcf	status, 6	;RP1=0, select bank1
  2572  0323  1411               	bsf	(1160/8)^080h,(1160)&7
  2573                           	line	9
  2574                           ;IIC.c: 9: while(SSPIF==0)
  2575  0324  2B3B               	goto	l5096
  2576                           	
  2577  0325                     l5097:	
  2578                           	line	11
  2579                           	
  2580  0325                     l9665:	
  2581                           ;IIC.c: 10: {
  2582                           ;IIC.c: 11: t++;
  2583  0325  3001               	movlw	low(01h)
  2584  0326  1283               	bcf	status, 5	;RP0=0, select bank0
  2585  0327  07C9               	addwf	(write_IIC@t),f
  2586  0328  1803               	skipnc
  2587  0329  0ACA               	incf	(write_IIC@t+1),f
  2588  032A  3000               	movlw	high(01h)
  2589  032B  07CA               	addwf	(write_IIC@t+1),f
  2590                           	line	12
  2591                           	
  2592  032C                     l9667:	
  2593                           ;IIC.c: 12: if(t > 1000) break;
  2594  032C  084A               	movf	(write_IIC@t+1),w
  2595  032D  3A80               	xorlw	80h
  2596  032E  00FF               	movwf	btemp+1
  2597  032F  3083               	movlw	(high(03E9h))^80h
  2598  0330  027F               	subwf	btemp+1,w
  2599  0331  1D03               	skipz
  2600  0332  2B35               	goto	u3985
  2601  0333  30E9               	movlw	low(03E9h)
  2602  0334  0249               	subwf	(write_IIC@t),w
  2603  0335                     u3985:
  2604                           
  2605  0335  1C03               	skipc
  2606  0336  2B38               	goto	u3981
  2607  0337  2B39               	goto	u3980
  2608  0338                     u3981:
  2609  0338  2B3B               	goto	l5096
  2610  0339                     u3980:
  2611  0339  2B42               	goto	l9671
  2612                           	
  2613  033A                     l9669:	
  2614  033A  2B42               	goto	l9671
  2615                           	
  2616  033B                     l5098:	
  2617                           	line	13
  2618                           	
  2619  033B                     l5096:	
  2620                           	line	9
  2621  033B  1283               	bcf	status, 5	;RP0=0, select bank0
  2622  033C  1303               	bcf	status, 6	;RP1=0, select bank0
  2623  033D  1D8C               	btfss	(99/8),(99)&7
  2624  033E  2B40               	goto	u3991
  2625  033F  2B41               	goto	u3990
  2626  0340                     u3991:
  2627  0340  2B25               	goto	l9665
  2628  0341                     u3990:
  2629  0341  2B42               	goto	l9671
  2630                           	
  2631  0342                     l5099:	
  2632                           	line	14
  2633                           	
  2634  0342                     l9671:	
  2635                           ;IIC.c: 13: }
  2636                           ;IIC.c: 14: t=0;
  2637  0342  1283               	bcf	status, 5	;RP0=0, select bank0
  2638  0343  1303               	bcf	status, 6	;RP1=0, select bank0
  2639  0344  01C9               	clrf	(write_IIC@t)
  2640  0345  01CA               	clrf	(write_IIC@t+1)
  2641                           	line	15
  2642                           	
  2643  0346                     l9673:	
  2644                           ;IIC.c: 15: SSPIF=0;
  2645  0346  118C               	bcf	(99/8),(99)&7
  2646                           	line	17
  2647                           	
  2648  0347                     l9675:	
  2649                           ;IIC.c: 17: SSPBUF=0X98;
  2650  0347  3098               	movlw	(098h)
  2651  0348  0093               	movwf	(19)	;volatile
  2652                           	line	18
  2653                           	
  2654  0349                     l9677:	
  2655                           ;IIC.c: 18: Delay(1);
  2656  0349  3001               	movlw	low(01h)
  2657  034A  00C5               	movwf	(?_Delay)
  2658  034B  3000               	movlw	high(01h)
  2659  034C  00C6               	movwf	((?_Delay))+1
  2660  034D  120A  118A  26F9   	fcall	_Delay
              120A  118A         
  2661                           	line	19
  2662                           ;IIC.c: 19: while(SSPIF==0)
  2663  0352  2B6A               	goto	l5100
  2664                           	
  2665  0353                     l5101:	
  2666                           	line	21
  2667                           	
  2668  0353                     l9679:	
  2669                           ;IIC.c: 20: {
  2670                           ;IIC.c: 21: t++;
  2671  0353  3001               	movlw	low(01h)
  2672  0354  1283               	bcf	status, 5	;RP0=0, select bank0
  2673  0355  1303               	bcf	status, 6	;RP1=0, select bank0
  2674  0356  07C9               	addwf	(write_IIC@t),f
  2675  0357  1803               	skipnc
  2676  0358  0ACA               	incf	(write_IIC@t+1),f
  2677  0359  3000               	movlw	high(01h)
  2678  035A  07CA               	addwf	(write_IIC@t+1),f
  2679                           	line	22
  2680                           	
  2681  035B                     l9681:	
  2682                           ;IIC.c: 22: if(t > 1000) break;
  2683  035B  084A               	movf	(write_IIC@t+1),w
  2684  035C  3A80               	xorlw	80h
  2685  035D  00FF               	movwf	btemp+1
  2686  035E  3083               	movlw	(high(03E9h))^80h
  2687  035F  027F               	subwf	btemp+1,w
  2688  0360  1D03               	skipz
  2689  0361  2B64               	goto	u4005
  2690  0362  30E9               	movlw	low(03E9h)
  2691  0363  0249               	subwf	(write_IIC@t),w
  2692  0364                     u4005:
  2693                           
  2694  0364  1C03               	skipc
  2695  0365  2B67               	goto	u4001
  2696  0366  2B68               	goto	u4000
  2697  0367                     u4001:
  2698  0367  2B6A               	goto	l5100
  2699  0368                     u4000:
  2700  0368  2B71               	goto	l9685
  2701                           	
  2702  0369                     l9683:	
  2703  0369  2B71               	goto	l9685
  2704                           	
  2705  036A                     l5102:	
  2706                           	line	23
  2707                           	
  2708  036A                     l5100:	
  2709                           	line	19
  2710  036A  1283               	bcf	status, 5	;RP0=0, select bank0
  2711  036B  1303               	bcf	status, 6	;RP1=0, select bank0
  2712  036C  1D8C               	btfss	(99/8),(99)&7
  2713  036D  2B6F               	goto	u4011
  2714  036E  2B70               	goto	u4010
  2715  036F                     u4011:
  2716  036F  2B53               	goto	l9679
  2717  0370                     u4010:
  2718  0370  2B71               	goto	l9685
  2719                           	
  2720  0371                     l5103:	
  2721                           	line	24
  2722                           	
  2723  0371                     l9685:	
  2724                           ;IIC.c: 23: }
  2725                           ;IIC.c: 24: t=0;
  2726  0371  1283               	bcf	status, 5	;RP0=0, select bank0
  2727  0372  1303               	bcf	status, 6	;RP1=0, select bank0
  2728  0373  01C9               	clrf	(write_IIC@t)
  2729  0374  01CA               	clrf	(write_IIC@t+1)
  2730                           	line	25
  2731                           	
  2732  0375                     l9687:	
  2733                           ;IIC.c: 25: SSPIF=0;
  2734  0375  118C               	bcf	(99/8),(99)&7
  2735                           	line	27
  2736                           	
  2737  0376                     l9689:	
  2738                           ;IIC.c: 27: SSPBUF=wdate_H;
  2739  0376  0848               	movf	(write_IIC@wdate_H),w
  2740  0377  0093               	movwf	(19)	;volatile
  2741                           	line	28
  2742                           	
  2743  0378                     l9691:	
  2744                           ;IIC.c: 28: Delay(1);
  2745  0378  3001               	movlw	low(01h)
  2746  0379  00C5               	movwf	(?_Delay)
  2747  037A  3000               	movlw	high(01h)
  2748  037B  00C6               	movwf	((?_Delay))+1
  2749  037C  120A  118A  26F9   	fcall	_Delay
              120A  118A         
  2750                           	line	29
  2751                           ;IIC.c: 29: while(SSPIF==0)
  2752  0381  2B99               	goto	l5104
  2753                           	
  2754  0382                     l5105:	
  2755                           	line	31
  2756                           	
  2757  0382                     l9693:	
  2758                           ;IIC.c: 30: {
  2759                           ;IIC.c: 31: t++;
  2760  0382  3001               	movlw	low(01h)
  2761  0383  1283               	bcf	status, 5	;RP0=0, select bank0
  2762  0384  1303               	bcf	status, 6	;RP1=0, select bank0
  2763  0385  07C9               	addwf	(write_IIC@t),f
  2764  0386  1803               	skipnc
  2765  0387  0ACA               	incf	(write_IIC@t+1),f
  2766  0388  3000               	movlw	high(01h)
  2767  0389  07CA               	addwf	(write_IIC@t+1),f
  2768                           	line	32
  2769                           	
  2770  038A                     l9695:	
  2771                           ;IIC.c: 32: if(t > 1000) break;
  2772  038A  084A               	movf	(write_IIC@t+1),w
  2773  038B  3A80               	xorlw	80h
  2774  038C  00FF               	movwf	btemp+1
  2775  038D  3083               	movlw	(high(03E9h))^80h
  2776  038E  027F               	subwf	btemp+1,w
  2777  038F  1D03               	skipz
  2778  0390  2B93               	goto	u4025
  2779  0391  30E9               	movlw	low(03E9h)
  2780  0392  0249               	subwf	(write_IIC@t),w
  2781  0393                     u4025:
  2782                           
  2783  0393  1C03               	skipc
  2784  0394  2B96               	goto	u4021
  2785  0395  2B97               	goto	u4020
  2786  0396                     u4021:
  2787  0396  2B99               	goto	l5104
  2788  0397                     u4020:
  2789  0397  2BA0               	goto	l9699
  2790                           	
  2791  0398                     l9697:	
  2792  0398  2BA0               	goto	l9699
  2793                           	
  2794  0399                     l5106:	
  2795                           	line	33
  2796                           	
  2797  0399                     l5104:	
  2798                           	line	29
  2799  0399  1283               	bcf	status, 5	;RP0=0, select bank0
  2800  039A  1303               	bcf	status, 6	;RP1=0, select bank0
  2801  039B  1D8C               	btfss	(99/8),(99)&7
  2802  039C  2B9E               	goto	u4031
  2803  039D  2B9F               	goto	u4030
  2804  039E                     u4031:
  2805  039E  2B82               	goto	l9693
  2806  039F                     u4030:
  2807  039F  2BA0               	goto	l9699
  2808                           	
  2809  03A0                     l5107:	
  2810                           	line	34
  2811                           	
  2812  03A0                     l9699:	
  2813                           ;IIC.c: 33: }
  2814                           ;IIC.c: 34: t=0;
  2815  03A0  1283               	bcf	status, 5	;RP0=0, select bank0
  2816  03A1  1303               	bcf	status, 6	;RP1=0, select bank0
  2817  03A2  01C9               	clrf	(write_IIC@t)
  2818  03A3  01CA               	clrf	(write_IIC@t+1)
  2819                           	line	35
  2820                           	
  2821  03A4                     l9701:	
  2822                           ;IIC.c: 35: SSPIF=0;
  2823  03A4  118C               	bcf	(99/8),(99)&7
  2824                           	line	37
  2825                           	
  2826  03A5                     l9703:	
  2827                           ;IIC.c: 37: SSPBUF=wdate_L;
  2828  03A5  0847               	movf	(write_IIC@wdate_L),w
  2829  03A6  0093               	movwf	(19)	;volatile
  2830                           	line	38
  2831                           	
  2832  03A7                     l9705:	
  2833                           ;IIC.c: 38: Delay(1);
  2834  03A7  3001               	movlw	low(01h)
  2835  03A8  00C5               	movwf	(?_Delay)
  2836  03A9  3000               	movlw	high(01h)
  2837  03AA  00C6               	movwf	((?_Delay))+1
  2838  03AB  120A  118A  26F9   	fcall	_Delay
              120A  118A         
  2839                           	line	39
  2840                           ;IIC.c: 39: while(SSPIF==0)
  2841  03B0  2BC8               	goto	l5108
  2842                           	
  2843  03B1                     l5109:	
  2844                           	line	41
  2845                           	
  2846  03B1                     l9707:	
  2847                           ;IIC.c: 40: {
  2848                           ;IIC.c: 41: t++;
  2849  03B1  3001               	movlw	low(01h)
  2850  03B2  1283               	bcf	status, 5	;RP0=0, select bank0
  2851  03B3  1303               	bcf	status, 6	;RP1=0, select bank0
  2852  03B4  07C9               	addwf	(write_IIC@t),f
  2853  03B5  1803               	skipnc
  2854  03B6  0ACA               	incf	(write_IIC@t+1),f
  2855  03B7  3000               	movlw	high(01h)
  2856  03B8  07CA               	addwf	(write_IIC@t+1),f
  2857                           	line	42
  2858                           	
  2859  03B9                     l9709:	
  2860                           ;IIC.c: 42: if(t > 1000) break;
  2861  03B9  084A               	movf	(write_IIC@t+1),w
  2862  03BA  3A80               	xorlw	80h
  2863  03BB  00FF               	movwf	btemp+1
  2864  03BC  3083               	movlw	(high(03E9h))^80h
  2865  03BD  027F               	subwf	btemp+1,w
  2866  03BE  1D03               	skipz
  2867  03BF  2BC2               	goto	u4045
  2868  03C0  30E9               	movlw	low(03E9h)
  2869  03C1  0249               	subwf	(write_IIC@t),w
  2870  03C2                     u4045:
  2871                           
  2872  03C2  1C03               	skipc
  2873  03C3  2BC5               	goto	u4041
  2874  03C4  2BC6               	goto	u4040
  2875  03C5                     u4041:
  2876  03C5  2BC8               	goto	l5108
  2877  03C6                     u4040:
  2878  03C6  2BCF               	goto	l9713
  2879                           	
  2880  03C7                     l9711:	
  2881  03C7  2BCF               	goto	l9713
  2882                           	
  2883  03C8                     l5110:	
  2884                           	line	43
  2885                           	
  2886  03C8                     l5108:	
  2887                           	line	39
  2888  03C8  1283               	bcf	status, 5	;RP0=0, select bank0
  2889  03C9  1303               	bcf	status, 6	;RP1=0, select bank0
  2890  03CA  1D8C               	btfss	(99/8),(99)&7
  2891  03CB  2BCD               	goto	u4051
  2892  03CC  2BCE               	goto	u4050
  2893  03CD                     u4051:
  2894  03CD  2BB1               	goto	l9707
  2895  03CE                     u4050:
  2896  03CE  2BCF               	goto	l9713
  2897                           	
  2898  03CF                     l5111:	
  2899                           	line	44
  2900                           	
  2901  03CF                     l9713:	
  2902                           ;IIC.c: 43: }
  2903                           ;IIC.c: 44: t=0;
  2904  03CF  1283               	bcf	status, 5	;RP0=0, select bank0
  2905  03D0  1303               	bcf	status, 6	;RP1=0, select bank0
  2906  03D1  01C9               	clrf	(write_IIC@t)
  2907  03D2  01CA               	clrf	(write_IIC@t+1)
  2908                           	line	45
  2909                           	
  2910  03D3                     l9715:	
  2911                           ;IIC.c: 45: SSPIF=0;
  2912  03D3  118C               	bcf	(99/8),(99)&7
  2913                           	line	47
  2914                           	
  2915  03D4                     l9717:	
  2916                           ;IIC.c: 47: PEN=1;
  2917  03D4  1683               	bsf	status, 5	;RP0=1, select bank1
  2918  03D5  1303               	bcf	status, 6	;RP1=0, select bank1
  2919  03D6  1511               	bsf	(1162/8)^080h,(1162)&7
  2920                           	line	48
  2921                           ;IIC.c: 48: while(SSPIF==0)
  2922  03D7  2BEE               	goto	l5112
  2923                           	
  2924  03D8                     l5113:	
  2925                           	line	50
  2926                           	
  2927  03D8                     l9719:	
  2928                           ;IIC.c: 49: {
  2929                           ;IIC.c: 50: t++;
  2930  03D8  3001               	movlw	low(01h)
  2931  03D9  1283               	bcf	status, 5	;RP0=0, select bank0
  2932  03DA  07C9               	addwf	(write_IIC@t),f
  2933  03DB  1803               	skipnc
  2934  03DC  0ACA               	incf	(write_IIC@t+1),f
  2935  03DD  3000               	movlw	high(01h)
  2936  03DE  07CA               	addwf	(write_IIC@t+1),f
  2937                           	line	51
  2938                           	
  2939  03DF                     l9721:	
  2940                           ;IIC.c: 51: if(t > 1000) break;
  2941  03DF  084A               	movf	(write_IIC@t+1),w
  2942  03E0  3A80               	xorlw	80h
  2943  03E1  00FF               	movwf	btemp+1
  2944  03E2  3083               	movlw	(high(03E9h))^80h
  2945  03E3  027F               	subwf	btemp+1,w
  2946  03E4  1D03               	skipz
  2947  03E5  2BE8               	goto	u4065
  2948  03E6  30E9               	movlw	low(03E9h)
  2949  03E7  0249               	subwf	(write_IIC@t),w
  2950  03E8                     u4065:
  2951                           
  2952  03E8  1C03               	skipc
  2953  03E9  2BEB               	goto	u4061
  2954  03EA  2BEC               	goto	u4060
  2955  03EB                     u4061:
  2956  03EB  2BEE               	goto	l5112
  2957  03EC                     u4060:
  2958  03EC  2BF5               	goto	l9725
  2959                           	
  2960  03ED                     l9723:	
  2961  03ED  2BF5               	goto	l9725
  2962                           	
  2963  03EE                     l5114:	
  2964                           	line	52
  2965                           	
  2966  03EE                     l5112:	
  2967                           	line	48
  2968  03EE  1283               	bcf	status, 5	;RP0=0, select bank0
  2969  03EF  1303               	bcf	status, 6	;RP1=0, select bank0
  2970  03F0  1D8C               	btfss	(99/8),(99)&7
  2971  03F1  2BF3               	goto	u4071
  2972  03F2  2BF4               	goto	u4070
  2973  03F3                     u4071:
  2974  03F3  2BD8               	goto	l9719
  2975  03F4                     u4070:
  2976  03F4  2BF5               	goto	l9725
  2977                           	
  2978  03F5                     l5115:	
  2979                           	line	53
  2980                           	
  2981  03F5                     l9725:	
  2982                           ;IIC.c: 52: }
  2983                           ;IIC.c: 53: t=0;
  2984  03F5  1283               	bcf	status, 5	;RP0=0, select bank0
  2985  03F6  1303               	bcf	status, 6	;RP1=0, select bank0
  2986  03F7  01C9               	clrf	(write_IIC@t)
  2987  03F8  01CA               	clrf	(write_IIC@t+1)
  2988                           	line	54
  2989                           	
  2990  03F9                     l9727:	
  2991                           ;IIC.c: 54: SSPIF=0;
  2992  03F9  118C               	bcf	(99/8),(99)&7
  2993                           	line	56
  2994                           	
  2995  03FA                     l5116:	
  2996  03FA  0008               	return
  2997                           	opt stack 0
  2998                           GLOBAL	__end_of_write_IIC
  2999  03FB                     	__end_of_write_IIC:
  3000 ;; =============== function _write_IIC ends ============
  3001                           
  3002                           	signat	_write_IIC,8312
  3003                           	global	_InitDevices
  3004                           psect	text829,local,class=CODE,delta=2
  3005                           global __ptext829
  3006  05E5                     __ptext829:
  3007                           
  3008 ;; *************** function _InitDevices *****************
  3009 ;; Defined at:
  3010 ;;		line 117 in file "InitDevices.c"
  3011 ;; Parameters:    Size  Location     Type
  3012 ;;		None
  3013 ;; Auto vars:     Size  Location     Type
  3014 ;;		None
  3015 ;; Return value:  Size  Location     Type
  3016 ;;		None               void
  3017 ;; Registers used:
  3018 ;;		wreg, status,2, status,0, pclath, cstack
  3019 ;; Tracked objects:
  3020 ;;		On entry : 0/0
  3021 ;;		On exit  : 0/0
  3022 ;;		Unchanged: 0/0
  3023 ;; Data sizes:     COMMON   BANK0   BANK1   BANK3   BANK2
  3024 ;;      Params:         0       0       0       0       0
  3025 ;;      Locals:         0       0       0       0       0
  3026 ;;      Temps:          0       0       0       0       0
  3027 ;;      Totals:         0       0       0       0       0
  3028 ;;Total ram usage:        0 bytes
  3029 ;; Hardware stack levels used:    1
  3030 ;; Hardware stack levels required when called:    3
  3031 ;; This function calls:
  3032 ;;		_systemOSC
  3033 ;;		_PortInit
  3034 ;;		_InitTimer0
  3035 ;;		_InitTimer1
  3036 ;;		_IIC_init
  3037 ;;		_InitialiseADC
  3038 ;;		_InitTimer2
  3039 ;;		_InitCn
  3040 ;; This function is called by:
  3041 ;;		_main
  3042 ;; This function uses a non-reentrant model
  3043 ;;
  3044                           psect	text829
  3045                           	file	"InitDevices.c"
  3046                           	line	117
  3047                           	global	__size_of_InitDevices
  3048  0032                     	__size_of_InitDevices	equ	__end_of_InitDevices-_InitDevices
  3049                           	
  3050  05E5                     _InitDevices:	
  3051                           	opt	stack 4
  3052                           ; Regs used in _InitDevices: [wreg+status,2+status,0+pclath+cstack]
  3053                           	line	118
  3054                           	
  3055  05E5                     l9649:	
  3056                           ;InitDevices.c: 118: systemOSC();
  3057  05E5  120A  118A  2756   	fcall	_systemOSC
              120A  118A         
  3058                           	line	119
  3059                           ;InitDevices.c: 119: PortInit();
  3060  05EA  120A  118A  26E4   	fcall	_PortInit
              120A  118A         
  3061                           	line	120
  3062                           ;InitDevices.c: 120: InitTimer0();
  3063  05EF  120A  118A  273D   	fcall	_InitTimer0
              120A  118A         
  3064                           	line	121
  3065                           ;InitDevices.c: 121: InitTimer1();
  3066  05F4  120A  118A  270D   	fcall	_InitTimer1
              120A  118A         
  3067                           	line	122
  3068                           ;InitDevices.c: 122: IIC_init();
  3069  05F9  120A  118A  271F   	fcall	_IIC_init
              120A  118A         
  3070                           	line	123
  3071                           ;InitDevices.c: 123: InitialiseADC();
  3072  05FE  120A  118A  26CE   	fcall	_InitialiseADC
              120A  118A         
  3073                           	line	124
  3074                           ;InitDevices.c: 124: InitTimer2();
  3075  0603  120A  118A  272F   	fcall	_InitTimer2
              120A  118A         
  3076                           	line	125
  3077                           ;InitDevices.c: 125: InitCn();
  3078  0608  120A  118A  274F   	fcall	_InitCn
              120A  118A         
  3079                           	line	126
  3080                           	
  3081  060D                     l9651:	
  3082                           ;InitDevices.c: 126: PEIE = 1;
  3083  060D  170B               	bsf	(94/8),(94)&7
  3084                           	line	127
  3085                           	
  3086  060E                     l9653:	
  3087                           ;InitDevices.c: 127: TMR1ON=1;
  3088  060E  1283               	bcf	status, 5	;RP0=0, select bank0
  3089  060F  1303               	bcf	status, 6	;RP1=0, select bank0
  3090  0610  1410               	bsf	(128/8),(128)&7
  3091                           	line	128
  3092                           	
  3093  0611                     l9655:	
  3094                           ;InitDevices.c: 128: GIE=1;
  3095  0611  178B               	bsf	(95/8),(95)&7
  3096                           	line	130
  3097                           	
  3098  0612                     l9657:	
  3099                           ;InitDevices.c: 130: WDTCON = 0x12;
  3100  0612  3012               	movlw	(012h)
  3101  0613  1283               	bcf	status, 5	;RP0=0, select bank2
  3102  0614  1703               	bsf	status, 6	;RP1=1, select bank2
  3103  0615  0085               	movwf	(261)^0100h	;volatile
  3104                           	line	132
  3105                           	
  3106  0616                     l991:	
  3107  0616  0008               	return
  3108                           	opt stack 0
  3109                           GLOBAL	__end_of_InitDevices
  3110  0617                     	__end_of_InitDevices:
  3111 ;; =============== function _InitDevices ends ============
  3112                           
  3113                           	signat	_InitDevices,88
  3114                           	global	___lwdiv
  3115                           psect	text830,local,class=CODE,delta=2
  3116                           global __ptext830
  3117  051C                     __ptext830:
  3118                           
  3119 ;; *************** function ___lwdiv *****************
  3120 ;; Defined at:
  3121 ;;		line 5 in file "C:\Program Files (x86)\HI-TECH Software\PICC\9.82\sources\lwdiv.c"
  3122 ;; Parameters:    Size  Location     Type
  3123 ;;  divisor         2    0[BANK0 ] unsigned int 
  3124 ;;  dividend        2    2[BANK0 ] unsigned int 
  3125 ;; Auto vars:     Size  Location     Type
  3126 ;;  quotient        2    6[BANK0 ] unsigned int 
  3127 ;;  counter         1    5[BANK0 ] unsigned char 
  3128 ;; Return value:  Size  Location     Type
  3129 ;;                  2    0[BANK0 ] unsigned int 
  3130 ;; Registers used:
  3131 ;;		wreg, status,2, status,0
  3132 ;; Tracked objects:
  3133 ;;		On entry : 0/0
  3134 ;;		On exit  : 0/0
  3135 ;;		Unchanged: 0/0
  3136 ;; Data sizes:     COMMON   BANK0   BANK1   BANK3   BANK2
  3137 ;;      Params:         0       4       0       0       0
  3138 ;;      Locals:         0       3       0       0       0
  3139 ;;      Temps:          0       1       0       0       0
  3140 ;;      Totals:         0       8       0       0       0
  3141 ;;Total ram usage:        8 bytes
  3142 ;; Hardware stack levels used:    1
  3143 ;; Hardware stack levels required when called:    2
  3144 ;; This function calls:
  3145 ;;		Nothing
  3146 ;; This function is called by:
  3147 ;;		_main
  3148 ;; This function uses a non-reentrant model
  3149 ;;
  3150                           psect	text830
  3151                           	file	"C:\Program Files (x86)\HI-TECH Software\PICC\9.82\sources\lwdiv.c"
  3152                           	line	5
  3153                           	global	__size_of___lwdiv
  3154  0050                     	__size_of___lwdiv	equ	__end_of___lwdiv-___lwdiv
  3155                           	
  3156  051C                     ___lwdiv:	
  3157                           	opt	stack 5
  3158                           ; Regs used in ___lwdiv: [wreg+status,2+status,0]
  3159                           	line	9
  3160                           	
  3161  051C                     l9623:	
  3162  051C  1283               	bcf	status, 5	;RP0=0, select bank0
  3163  051D  1303               	bcf	status, 6	;RP1=0, select bank0
  3164  051E  01CB               	clrf	(___lwdiv@quotient)
  3165  051F  01CC               	clrf	(___lwdiv@quotient+1)
  3166                           	line	10
  3167                           	
  3168  0520                     l9625:	
  3169  0520  0846               	movf	(___lwdiv@divisor+1),w
  3170  0521  0445               	iorwf	(___lwdiv@divisor),w
  3171  0522  1903               	skipnz
  3172  0523  2D25               	goto	u3911
  3173  0524  2D26               	goto	u3910
  3174  0525                     u3911:
  3175  0525  2D64               	goto	l9645
  3176  0526                     u3910:
  3177                           	line	11
  3178                           	
  3179  0526                     l9627:	
  3180  0526  01CA               	clrf	(___lwdiv@counter)
  3181  0527  1403               	bsf	status,0
  3182  0528  0DCA               	rlf	(___lwdiv@counter),f
  3183                           	line	12
  3184  0529  2D36               	goto	l9633
  3185                           	
  3186  052A                     l7061:	
  3187                           	line	13
  3188                           	
  3189  052A                     l9629:	
  3190  052A  3001               	movlw	01h
  3191                           	
  3192  052B                     u3925:
  3193  052B  1003               	clrc
  3194  052C  0DC5               	rlf	(___lwdiv@divisor),f
  3195  052D  0DC6               	rlf	(___lwdiv@divisor+1),f
  3196  052E  3EFF               	addlw	-1
  3197  052F  1D03               	skipz
  3198  0530  2D2B               	goto	u3925
  3199                           	line	14
  3200                           	
  3201  0531                     l9631:	
  3202  0531  3001               	movlw	(01h)
  3203  0532  00C9               	movwf	(??___lwdiv+0)+0
  3204  0533  0849               	movf	(??___lwdiv+0)+0,w
  3205  0534  07CA               	addwf	(___lwdiv@counter),f
  3206  0535  2D36               	goto	l9633
  3207                           	line	15
  3208                           	
  3209  0536                     l7060:	
  3210                           	line	12
  3211                           	
  3212  0536                     l9633:	
  3213  0536  1FC6               	btfss	(___lwdiv@divisor+1),(15)&7
  3214  0537  2D39               	goto	u3931
  3215  0538  2D3A               	goto	u3930
  3216  0539                     u3931:
  3217  0539  2D2A               	goto	l9629
  3218  053A                     u3930:
  3219  053A  2D3C               	goto	l9635
  3220                           	
  3221  053B                     l7062:	
  3222  053B  2D3C               	goto	l9635
  3223                           	line	16
  3224                           	
  3225  053C                     l7063:	
  3226                           	line	17
  3227                           	
  3228  053C                     l9635:	
  3229  053C  3001               	movlw	01h
  3230                           	
  3231  053D                     u3945:
  3232  053D  1003               	clrc
  3233  053E  0DCB               	rlf	(___lwdiv@quotient),f
  3234  053F  0DCC               	rlf	(___lwdiv@quotient+1),f
  3235  0540  3EFF               	addlw	-1
  3236  0541  1D03               	skipz
  3237  0542  2D3D               	goto	u3945
  3238                           	line	18
  3239  0543  0846               	movf	(___lwdiv@divisor+1),w
  3240  0544  0248               	subwf	(___lwdiv@dividend+1),w
  3241  0545  1D03               	skipz
  3242  0546  2D49               	goto	u3955
  3243  0547  0845               	movf	(___lwdiv@divisor),w
  3244  0548  0247               	subwf	(___lwdiv@dividend),w
  3245  0549                     u3955:
  3246  0549  1C03               	skipc
  3247  054A  2D4C               	goto	u3951
  3248  054B  2D4D               	goto	u3950
  3249  054C                     u3951:
  3250  054C  2D55               	goto	l9641
  3251  054D                     u3950:
  3252                           	line	19
  3253                           	
  3254  054D                     l9637:	
  3255  054D  0845               	movf	(___lwdiv@divisor),w
  3256  054E  02C7               	subwf	(___lwdiv@dividend),f
  3257  054F  0846               	movf	(___lwdiv@divisor+1),w
  3258  0550  1C03               	skipc
  3259  0551  03C8               	decf	(___lwdiv@dividend+1),f
  3260  0552  02C8               	subwf	(___lwdiv@dividend+1),f
  3261                           	line	20
  3262                           	
  3263  0553                     l9639:	
  3264  0553  144B               	bsf	(___lwdiv@quotient)+(0/8),(0)&7
  3265  0554  2D55               	goto	l9641
  3266                           	line	21
  3267                           	
  3268  0555                     l7064:	
  3269                           	line	22
  3270                           	
  3271  0555                     l9641:	
  3272  0555  3001               	movlw	01h
  3273                           	
  3274  0556                     u3965:
  3275  0556  1003               	clrc
  3276  0557  0CC6               	rrf	(___lwdiv@divisor+1),f
  3277  0558  0CC5               	rrf	(___lwdiv@divisor),f
  3278  0559  3EFF               	addlw	-1
  3279  055A  1D03               	skipz
  3280  055B  2D56               	goto	u3965
  3281                           	line	23
  3282                           	
  3283  055C                     l9643:	
  3284  055C  3001               	movlw	low(01h)
  3285  055D  02CA               	subwf	(___lwdiv@counter),f
  3286  055E  1D03               	btfss	status,2
  3287  055F  2D61               	goto	u3971
  3288  0560  2D62               	goto	u3970
  3289  0561                     u3971:
  3290  0561  2D3C               	goto	l9635
  3291  0562                     u3970:
  3292  0562  2D64               	goto	l9645
  3293                           	
  3294  0563                     l7065:	
  3295  0563  2D64               	goto	l9645
  3296                           	line	24
  3297                           	
  3298  0564                     l7059:	
  3299                           	line	25
  3300                           	
  3301  0564                     l9645:	
  3302  0564  084C               	movf	(___lwdiv@quotient+1),w
  3303  0565  01C6               	clrf	(?___lwdiv+1)
  3304  0566  07C6               	addwf	(?___lwdiv+1)
  3305  0567  084B               	movf	(___lwdiv@quotient),w
  3306  0568  01C5               	clrf	(?___lwdiv)
  3307  0569  07C5               	addwf	(?___lwdiv)
  3308                           
  3309  056A  2D6B               	goto	l7066
  3310                           	
  3311  056B                     l9647:	
  3312                           	line	26
  3313                           	
  3314  056B                     l7066:	
  3315  056B  0008               	return
  3316                           	opt stack 0
  3317                           GLOBAL	__end_of___lwdiv
  3318  056C                     	__end_of___lwdiv:
  3319 ;; =============== function ___lwdiv ends ============
  3320                           
  3321                           	signat	___lwdiv,8314
  3322                           	global	_Delay
  3323                           psect	text831,local,class=CODE,delta=2
  3324                           global __ptext831
  3325  06F9                     __ptext831:
  3326                           
  3327 ;; *************** function _Delay *****************
  3328 ;; Defined at:
  3329 ;;		line 98 in file "IIC.c"
  3330 ;; Parameters:    Size  Location     Type
  3331 ;;  n               2    0[BANK0 ] unsigned int 
  3332 ;; Auto vars:     Size  Location     Type
  3333 ;;		None
  3334 ;; Return value:  Size  Location     Type
  3335 ;;		None               void
  3336 ;; Registers used:
  3337 ;;		wreg, status,2, status,0
  3338 ;; Tracked objects:
  3339 ;;		On entry : 0/0
  3340 ;;		On exit  : 0/0
  3341 ;;		Unchanged: 0/0
  3342 ;; Data sizes:     COMMON   BANK0   BANK1   BANK3   BANK2
  3343 ;;      Params:         0       2       0       0       0
  3344 ;;      Locals:         0       0       0       0       0
  3345 ;;      Temps:          0       0       0       0       0
  3346 ;;      Totals:         0       2       0       0       0
  3347 ;;Total ram usage:        2 bytes
  3348 ;; Hardware stack levels used:    1
  3349 ;; Hardware stack levels required when called:    2
  3350 ;; This function calls:
  3351 ;;		Nothing
  3352 ;; This function is called by:
  3353 ;;		_write_IIC
  3354 ;; This function uses a non-reentrant model
  3355 ;;
  3356                           psect	text831
  3357                           	file	"IIC.c"
  3358                           	line	98
  3359                           	global	__size_of_Delay
  3360  0014                     	__size_of_Delay	equ	__end_of_Delay-_Delay
  3361                           	
  3362  06F9                     _Delay:	
  3363                           	opt	stack 3
  3364                           ; Regs used in _Delay: [wreg+status,2+status,0]
  3365                           	line	99
  3366                           	
  3367  06F9                     l9617:	
  3368                           ;IIC.c: 99: while(n)
  3369  06F9  2F03               	goto	l9621
  3370                           	
  3371  06FA                     l5120:	
  3372                           	line	101
  3373                           	
  3374  06FA                     l9619:	
  3375                           ;IIC.c: 100: {
  3376                           ;IIC.c: 101: n--;
  3377  06FA  3001               	movlw	low(01h)
  3378  06FB  1283               	bcf	status, 5	;RP0=0, select bank0
  3379  06FC  1303               	bcf	status, 6	;RP1=0, select bank0
  3380  06FD  02C5               	subwf	(Delay@n),f
  3381  06FE  3000               	movlw	high(01h)
  3382  06FF  1C03               	skipc
  3383  0700  03C6               	decf	(Delay@n+1),f
  3384  0701  02C6               	subwf	(Delay@n+1),f
  3385  0702  2F03               	goto	l9621
  3386                           	line	102
  3387                           	
  3388  0703                     l5119:	
  3389                           	line	99
  3390                           	
  3391  0703                     l9621:	
  3392  0703  1283               	bcf	status, 5	;RP0=0, select bank0
  3393  0704  1303               	bcf	status, 6	;RP1=0, select bank0
  3394  0705  0846               	movf	((Delay@n+1)),w
  3395  0706  0445               	iorwf	((Delay@n)),w
  3396  0707  1D03               	skipz
  3397  0708  2F0A               	goto	u3901
  3398  0709  2F0B               	goto	u3900
  3399  070A                     u3901:
  3400  070A  2EFA               	goto	l9619
  3401  070B                     u3900:
  3402  070B  2F0C               	goto	l5122
  3403                           	
  3404  070C                     l5121:	
  3405                           	line	103
  3406                           	
  3407  070C                     l5122:	
  3408  070C  0008               	return
  3409                           	opt stack 0
  3410                           GLOBAL	__end_of_Delay
  3411  070D                     	__end_of_Delay:
  3412 ;; =============== function _Delay ends ============
  3413                           
  3414                           	signat	_Delay,4216
  3415                           	global	_delaynms
  3416                           psect	text832,local,class=CODE,delta=2
  3417                           global __ptext832
  3418  05B1                     __ptext832:
  3419                           
  3420 ;; *************** function _delaynms *****************
  3421 ;; Defined at:
  3422 ;;		line 107 in file "IIC.c"
  3423 ;; Parameters:    Size  Location     Type
  3424 ;;  n               2    0[BANK0 ] unsigned int 
  3425 ;; Auto vars:     Size  Location     Type
  3426 ;;  j               2    4[BANK0 ] unsigned int 
  3427 ;;  i               2    2[BANK0 ] unsigned int 
  3428 ;; Return value:  Size  Location     Type
  3429 ;;		None               void
  3430 ;; Registers used:
  3431 ;;		wreg, status,2
  3432 ;; Tracked objects:
  3433 ;;		On entry : 0/0
  3434 ;;		On exit  : 0/0
  3435 ;;		Unchanged: 0/0
  3436 ;; Data sizes:     COMMON   BANK0   BANK1   BANK3   BANK2
  3437 ;;      Params:         0       2       0       0       0
  3438 ;;      Locals:         0       4       0       0       0
  3439 ;;      Temps:          0       0       0       0       0
  3440 ;;      Totals:         0       6       0       0       0
  3441 ;;Total ram usage:        6 bytes
  3442 ;; Hardware stack levels used:    1
  3443 ;; Hardware stack levels required when called:    2
  3444 ;; This function calls:
  3445 ;;		Nothing
  3446 ;; This function is called by:
  3447 ;;		_main
  3448 ;;		_The_Close
  3449 ;;		_MotorClose
  3450 ;;		_MotorStart
  3451 ;; This function uses a non-reentrant model
  3452 ;;
  3453                           psect	text832
  3454                           	file	"IIC.c"
  3455                           	line	107
  3456                           	global	__size_of_delaynms
  3457  0034                     	__size_of_delaynms	equ	__end_of_delaynms-_delaynms
  3458                           	
  3459  05B1                     _delaynms:	
  3460                           	opt	stack 4
  3461                           ; Regs used in _delaynms: [wreg+status,2]
  3462                           	line	110
  3463                           	
  3464  05B1                     l9573:	
  3465                           ;IIC.c: 108: unsigned int i,j;
  3466                           ;IIC.c: 110: for(i=0;i<n;i++)
  3467  05B1  1283               	bcf	status, 5	;RP0=0, select bank0
  3468  05B2  1303               	bcf	status, 6	;RP1=0, select bank0
  3469  05B3  01C7               	clrf	(delaynms@i)
  3470  05B4  01C8               	clrf	(delaynms@i+1)
  3471  05B5  2DD9               	goto	l5125
  3472                           	line	111
  3473                           	
  3474  05B6                     l5126:	
  3475                           	
  3476  05B6                     l9575:	
  3477                           ;IIC.c: 111: for(j=0;j<1600;j++);
  3478  05B6  01C9               	clrf	(delaynms@j)
  3479  05B7  01CA               	clrf	(delaynms@j+1)
  3480                           	
  3481  05B8                     l9577:	
  3482  05B8  3006               	movlw	high(0640h)
  3483  05B9  024A               	subwf	(delaynms@j+1),w
  3484  05BA  3040               	movlw	low(0640h)
  3485  05BB  1903               	skipnz
  3486  05BC  0249               	subwf	(delaynms@j),w
  3487  05BD  1C03               	skipc
  3488  05BE  2DC0               	goto	u3861
  3489  05BF  2DC1               	goto	u3860
  3490  05C0                     u3861:
  3491  05C0  2DC3               	goto	l9581
  3492  05C1                     u3860:
  3493  05C1  2DD3               	goto	l9583
  3494                           	
  3495  05C2                     l9579:	
  3496  05C2  2DD3               	goto	l9583
  3497                           	
  3498  05C3                     l5127:	
  3499                           	
  3500  05C3                     l9581:	
  3501  05C3  3001               	movlw	low(01h)
  3502  05C4  07C9               	addwf	(delaynms@j),f
  3503  05C5  1803               	skipnc
  3504  05C6  0ACA               	incf	(delaynms@j+1),f
  3505  05C7  3000               	movlw	high(01h)
  3506  05C8  07CA               	addwf	(delaynms@j+1),f
  3507  05C9  3006               	movlw	high(0640h)
  3508  05CA  024A               	subwf	(delaynms@j+1),w
  3509  05CB  3040               	movlw	low(0640h)
  3510  05CC  1903               	skipnz
  3511  05CD  0249               	subwf	(delaynms@j),w
  3512  05CE  1C03               	skipc
  3513  05CF  2DD1               	goto	u3871
  3514  05D0  2DD2               	goto	u3870
  3515  05D1                     u3871:
  3516  05D1  2DC3               	goto	l9581
  3517  05D2                     u3870:
  3518  05D2  2DD3               	goto	l9583
  3519                           	
  3520  05D3                     l5128:	
  3521                           	line	110
  3522                           	
  3523  05D3                     l9583:	
  3524  05D3  3001               	movlw	low(01h)
  3525  05D4  07C7               	addwf	(delaynms@i),f
  3526  05D5  1803               	skipnc
  3527  05D6  0AC8               	incf	(delaynms@i+1),f
  3528  05D7  3000               	movlw	high(01h)
  3529  05D8  07C8               	addwf	(delaynms@i+1),f
  3530                           	
  3531  05D9                     l5125:	
  3532  05D9  0846               	movf	(delaynms@n+1),w
  3533  05DA  0248               	subwf	(delaynms@i+1),w
  3534  05DB  1D03               	skipz
  3535  05DC  2DDF               	goto	u3885
  3536  05DD  0845               	movf	(delaynms@n),w
  3537  05DE  0247               	subwf	(delaynms@i),w
  3538  05DF                     u3885:
  3539  05DF  1C03               	skipc
  3540  05E0  2DE2               	goto	u3881
  3541  05E1  2DE3               	goto	u3880
  3542  05E2                     u3881:
  3543  05E2  2DB6               	goto	l9575
  3544  05E3                     u3880:
  3545  05E3  2DE4               	goto	l5130
  3546                           	
  3547  05E4                     l5129:	
  3548                           	line	112
  3549                           	
  3550  05E4                     l5130:	
  3551  05E4  0008               	return
  3552                           	opt stack 0
  3553                           GLOBAL	__end_of_delaynms
  3554  05E5                     	__end_of_delaynms:
  3555 ;; =============== function _delaynms ends ============
  3556                           
  3557                           	signat	_delaynms,4216
  3558                           	global	_ReadADC
  3559                           psect	text833,local,class=CODE,delta=2
  3560                           global __ptext833
  3561  056C                     __ptext833:
  3562                           
  3563 ;; *************** function _ReadADC *****************
  3564 ;; Defined at:
  3565 ;;		line 31 in file "ADC.c"
  3566 ;; Parameters:    Size  Location     Type
  3567 ;;  ADC_Channel     1    wreg     unsigned char 
  3568 ;; Auto vars:     Size  Location     Type
  3569 ;;  ADC_Channel     1    4[BANK0 ] unsigned char 
  3570 ;;  i               1    0        unsigned char 
  3571 ;; Return value:  Size  Location     Type
  3572 ;;                  2    0[BANK0 ] unsigned int 
  3573 ;; Registers used:
  3574 ;;		wreg, status,2, status,0, btemp+1
  3575 ;; Tracked objects:
  3576 ;;		On entry : 0/0
  3577 ;;		On exit  : 0/0
  3578 ;;		Unchanged: 0/0
  3579 ;; Data sizes:     COMMON   BANK0   BANK1   BANK3   BANK2
  3580 ;;      Params:         0       2       0       0       0
  3581 ;;      Locals:         0       1       0       0       0
  3582 ;;      Temps:          0       2       0       0       0
  3583 ;;      Totals:         0       5       0       0       0
  3584 ;;Total ram usage:        5 bytes
  3585 ;; Hardware stack levels used:    1
  3586 ;; Hardware stack levels required when called:    2
  3587 ;; This function calls:
  3588 ;;		Nothing
  3589 ;; This function is called by:
  3590 ;;		_main
  3591 ;; This function uses a non-reentrant model
  3592 ;;
  3593                           psect	text833
  3594                           	file	"ADC.c"
  3595                           	line	31
  3596                           	global	__size_of_ReadADC
  3597  0045                     	__size_of_ReadADC	equ	__end_of_ReadADC-_ReadADC
  3598                           	
  3599  056C                     _ReadADC:	
  3600                           	opt	stack 5
  3601                           ; Regs used in _ReadADC: [wreg+status,2+status,0+btemp+1]
  3602                           ;ReadADC@ADC_Channel stored from wreg
  3603                           	line	34
  3604  056C  1283               	bcf	status, 5	;RP0=0, select bank0
  3605  056D  1303               	bcf	status, 6	;RP1=0, select bank0
  3606  056E  00C9               	movwf	(ReadADC@ADC_Channel)
  3607                           	
  3608  056F                     l9551:	
  3609                           ;ADC.c: 32: static unsigned int ADC_VALUE;
  3610                           ;ADC.c: 33: unsigned char i;
  3611                           ;ADC.c: 34: ADC_Channel %=16;
  3612  056F  300F               	movlw	(0Fh)
  3613  0570  00C7               	movwf	(??_ReadADC+0)+0
  3614  0571  0847               	movf	(??_ReadADC+0)+0,w
  3615  0572  05C9               	andwf	(ReadADC@ADC_Channel),f
  3616                           	line	36
  3617                           	
  3618  0573                     l9553:	
  3619                           ;ADC.c: 36: ADCON0 = 0x80 +(ADC_Channel<<2) + 0x01;
  3620  0573  0849               	movf	(ReadADC@ADC_Channel),w
  3621  0574  00C7               	movwf	(??_ReadADC+0)+0
  3622  0575  3001               	movlw	(02h)-1
  3623  0576                     u3845:
  3624  0576  1003               	clrc
  3625  0577  0DC7               	rlf	(??_ReadADC+0)+0,f
  3626  0578  3EFF               	addlw	-1
  3627  0579  1D03               	skipz
  3628  057A  2D76               	goto	u3845
  3629  057B  1003               	clrc
  3630  057C  0D47               	rlf	(??_ReadADC+0)+0,w
  3631  057D  3E81               	addlw	081h
  3632  057E  009F               	movwf	(31)	;volatile
  3633                           	line	37
  3634                           	
  3635  057F                     l9555:	
  3636                           ;ADC.c: 37: ADIE = 0;
  3637  057F  1683               	bsf	status, 5	;RP0=1, select bank1
  3638  0580  1303               	bcf	status, 6	;RP1=0, select bank1
  3639  0581  130C               	bcf	(1126/8)^080h,(1126)&7
  3640                           	line	38
  3641                           	
  3642  0582                     l9557:	
  3643                           ;ADC.c: 38: ADIF = 0;
  3644  0582  1283               	bcf	status, 5	;RP0=0, select bank0
  3645  0583  1303               	bcf	status, 6	;RP1=0, select bank0
  3646  0584  130C               	bcf	(102/8),(102)&7
  3647                           	line	39
  3648                           	
  3649  0585                     l9559:	
  3650                           ;ADC.c: 39: ADRESL = 0;
  3651  0585  1683               	bsf	status, 5	;RP0=1, select bank1
  3652  0586  1303               	bcf	status, 6	;RP1=0, select bank1
  3653  0587  019E               	clrf	(158)^080h	;volatile
  3654                           	line	40
  3655                           	
  3656  0588                     l9561:	
  3657                           ;ADC.c: 40: ADRESH = 0;
  3658  0588  1283               	bcf	status, 5	;RP0=0, select bank0
  3659  0589  1303               	bcf	status, 6	;RP1=0, select bank0
  3660  058A  019E               	clrf	(30)	;volatile
  3661                           	line	41
  3662                           	
  3663  058B                     l9563:	
  3664                           ;ADC.c: 41: GO = 1;
  3665  058B  149F               	bsf	(249/8),(249)&7
  3666                           	line	42
  3667                           ;ADC.c: 42: while(!ADIF) continue;
  3668  058C  2D8D               	goto	l6115
  3669                           	
  3670  058D                     l6116:	
  3671                           	
  3672  058D                     l6115:	
  3673  058D  1F0C               	btfss	(102/8),(102)&7
  3674  058E  2D90               	goto	u3851
  3675  058F  2D91               	goto	u3850
  3676  0590                     u3851:
  3677  0590  2D8D               	goto	l6115
  3678  0591                     u3850:
  3679  0591  2D92               	goto	l9565
  3680                           	
  3681  0592                     l6117:	
  3682                           	line	43
  3683                           	
  3684  0592                     l9565:	
  3685                           ;ADC.c: 43: ADC_VALUE = ADRESL;
  3686  0592  1683               	bsf	status, 5	;RP0=1, select bank1
  3687  0593  1303               	bcf	status, 6	;RP1=0, select bank1
  3688  0594  081E               	movf	(158)^080h,w	;volatile
  3689  0595  1283               	bcf	status, 5	;RP0=0, select bank0
  3690  0596  1303               	bcf	status, 6	;RP1=0, select bank0
  3691  0597  00C7               	movwf	(??_ReadADC+0)+0
  3692  0598  01C8               	clrf	(??_ReadADC+0)+0+1
  3693  0599  0847               	movf	0+(??_ReadADC+0)+0,w
  3694  059A  00A0               	movwf	(ReadADC@ADC_VALUE)
  3695  059B  0848               	movf	1+(??_ReadADC+0)+0,w
  3696  059C  00A1               	movwf	(ReadADC@ADC_VALUE+1)
  3697                           	line	44
  3698                           	
  3699  059D                     l9567:	
  3700                           ;ADC.c: 44: ADC_VALUE += (ADRESH << 8);
  3701  059D  081E               	movf	(30),w	;volatile
  3702  059E  00C7               	movwf	(??_ReadADC+0)+0
  3703  059F  01C8               	clrf	(??_ReadADC+0)+0+1
  3704  05A0  0847               	movf	(??_ReadADC+0)+0,w
  3705  05A1  00C8               	movwf	(??_ReadADC+0)+1
  3706  05A2  01C7               	clrf	(??_ReadADC+0)+0
  3707  05A3  0847               	movf	0+(??_ReadADC+0)+0,w
  3708  05A4  07A0               	addwf	(ReadADC@ADC_VALUE),f
  3709  05A5  1803               	skipnc
  3710  05A6  0AA1               	incf	(ReadADC@ADC_VALUE+1),f
  3711  05A7  0848               	movf	1+(??_ReadADC+0)+0,w
  3712  05A8  07A1               	addwf	(ReadADC@ADC_VALUE+1),f
  3713                           	line	45
  3714                           	
  3715  05A9                     l9569:	
  3716                           ;ADC.c: 45: return (ADC_VALUE);
  3717  05A9  0821               	movf	(ReadADC@ADC_VALUE+1),w
  3718  05AA  01C6               	clrf	(?_ReadADC+1)
  3719  05AB  07C6               	addwf	(?_ReadADC+1)
  3720  05AC  0820               	movf	(ReadADC@ADC_VALUE),w
  3721  05AD  01C5               	clrf	(?_ReadADC)
  3722  05AE  07C5               	addwf	(?_ReadADC)
  3723                           
  3724  05AF  2DB0               	goto	l6118
  3725                           	
  3726  05B0                     l9571:	
  3727                           	line	46
  3728                           	
  3729  05B0                     l6118:	
  3730  05B0  0008               	return
  3731                           	opt stack 0
  3732                           GLOBAL	__end_of_ReadADC
  3733  05B1                     	__end_of_ReadADC:
  3734 ;; =============== function _ReadADC ends ============
  3735                           
  3736                           	signat	_ReadADC,4218
  3737                           	global	_InitCn
  3738                           psect	text834,local,class=CODE,delta=2
  3739                           global __ptext834
  3740  074F                     __ptext834:
  3741                           
  3742 ;; *************** function _InitCn *****************
  3743 ;; Defined at:
  3744 ;;		line 110 in file "InitDevices.c"
  3745 ;; Parameters:    Size  Location     Type
  3746 ;;		None
  3747 ;; Auto vars:     Size  Location     Type
  3748 ;;		None
  3749 ;; Return value:  Size  Location     Type
  3750 ;;		None               void
  3751 ;; Registers used:
  3752 ;;		wreg
  3753 ;; Tracked objects:
  3754 ;;		On entry : 0/0
  3755 ;;		On exit  : 0/0
  3756 ;;		Unchanged: 0/0
  3757 ;; Data sizes:     COMMON   BANK0   BANK1   BANK3   BANK2
  3758 ;;      Params:         0       0       0       0       0
  3759 ;;      Locals:         0       0       0       0       0
  3760 ;;      Temps:          0       0       0       0       0
  3761 ;;      Totals:         0       0       0       0       0
  3762 ;;Total ram usage:        0 bytes
  3763 ;; Hardware stack levels used:    1
  3764 ;; Hardware stack levels required when called:    2
  3765 ;; This function calls:
  3766 ;;		Nothing
  3767 ;; This function is called by:
  3768 ;;		_InitDevices
  3769 ;; This function uses a non-reentrant model
  3770 ;;
  3771                           psect	text834
  3772                           	file	"InitDevices.c"
  3773                           	line	110
  3774                           	global	__size_of_InitCn
  3775  0007                     	__size_of_InitCn	equ	__end_of_InitCn-_InitCn
  3776                           	
  3777  074F                     _InitCn:	
  3778                           	opt	stack 4
  3779                           ; Regs used in _InitCn: [wreg]
  3780                           	line	111
  3781                           	
  3782  074F                     l9545:	
  3783                           ;InitDevices.c: 111: IOCB=0X10;
  3784  074F  3010               	movlw	(010h)
  3785  0750  1683               	bsf	status, 5	;RP0=1, select bank1
  3786  0751  1303               	bcf	status, 6	;RP1=0, select bank1
  3787  0752  0096               	movwf	(150)^080h	;volatile
  3788                           	line	112
  3789                           	
  3790  0753                     l9547:	
  3791                           ;InitDevices.c: 112: RBIE=1;
  3792  0753  158B               	bsf	(91/8),(91)&7
  3793                           	line	113
  3794                           	
  3795  0754                     l9549:	
  3796                           ;InitDevices.c: 113: RBIF=0;
  3797  0754  100B               	bcf	(88/8),(88)&7
  3798                           	line	114
  3799                           	
  3800  0755                     l988:	
  3801  0755  0008               	return
  3802                           	opt stack 0
  3803                           GLOBAL	__end_of_InitCn
  3804  0756                     	__end_of_InitCn:
  3805 ;; =============== function _InitCn ends ============
  3806                           
  3807                           	signat	_InitCn,88
  3808                           	global	_InitTimer2
  3809                           psect	text835,local,class=CODE,delta=2
  3810                           global __ptext835
  3811  072F                     __ptext835:
  3812                           
  3813 ;; *************** function _InitTimer2 *****************
  3814 ;; Defined at:
  3815 ;;		line 100 in file "InitDevices.c"
  3816 ;; Parameters:    Size  Location     Type
  3817 ;;		None
  3818 ;; Auto vars:     Size  Location     Type
  3819 ;;		None
  3820 ;; Return value:  Size  Location     Type
  3821 ;;		None               void
  3822 ;; Registers used:
  3823 ;;		wreg, status,2
  3824 ;; Tracked objects:
  3825 ;;		On entry : 0/0
  3826 ;;		On exit  : 0/0
  3827 ;;		Unchanged: 0/0
  3828 ;; Data sizes:     COMMON   BANK0   BANK1   BANK3   BANK2
  3829 ;;      Params:         0       0       0       0       0
  3830 ;;      Locals:         0       0       0       0       0
  3831 ;;      Temps:          0       0       0       0       0
  3832 ;;      Totals:         0       0       0       0       0
  3833 ;;Total ram usage:        0 bytes
  3834 ;; Hardware stack levels used:    1
  3835 ;; Hardware stack levels required when called:    2
  3836 ;; This function calls:
  3837 ;;		Nothing
  3838 ;; This function is called by:
  3839 ;;		_InitDevices
  3840 ;; This function uses a non-reentrant model
  3841 ;;
  3842                           psect	text835
  3843                           	file	"InitDevices.c"
  3844                           	line	100
  3845                           	global	__size_of_InitTimer2
  3846  000E                     	__size_of_InitTimer2	equ	__end_of_InitTimer2-_InitTimer2
  3847                           	
  3848  072F                     _InitTimer2:	
  3849                           	opt	stack 4
  3850                           ; Regs used in _InitTimer2: [wreg+status,2]
  3851                           	line	101
  3852                           	
  3853  072F                     l9535:	
  3854                           ;InitDevices.c: 101: T2CON = 0X00;
  3855  072F  1283               	bcf	status, 5	;RP0=0, select bank0
  3856  0730  1303               	bcf	status, 6	;RP1=0, select bank0
  3857  0731  0192               	clrf	(18)	;volatile
  3858                           	line	102
  3859                           ;InitDevices.c: 102: TMR2=0;
  3860  0732  0191               	clrf	(17)	;volatile
  3861                           	line	103
  3862                           	
  3863  0733                     l9537:	
  3864                           ;InitDevices.c: 103: PR2=199;
  3865  0733  30C7               	movlw	(0C7h)
  3866  0734  1683               	bsf	status, 5	;RP0=1, select bank1
  3867  0735  1303               	bcf	status, 6	;RP1=0, select bank1
  3868  0736  0092               	movwf	(146)^080h	;volatile
  3869                           	line	104
  3870                           	
  3871  0737                     l9539:	
  3872                           ;InitDevices.c: 104: TMR2IE=1;
  3873  0737  148C               	bsf	(1121/8)^080h,(1121)&7
  3874                           	line	105
  3875                           	
  3876  0738                     l9541:	
  3877                           ;InitDevices.c: 105: TMR2IF = 0;
  3878  0738  1283               	bcf	status, 5	;RP0=0, select bank0
  3879  0739  1303               	bcf	status, 6	;RP1=0, select bank0
  3880  073A  108C               	bcf	(97/8),(97)&7
  3881                           	line	106
  3882                           	
  3883  073B                     l9543:	
  3884                           ;InitDevices.c: 106: TMR2ON = 0;
  3885  073B  1112               	bcf	(146/8),(146)&7
  3886                           	line	107
  3887                           	
  3888  073C                     l985:	
  3889  073C  0008               	return
  3890                           	opt stack 0
  3891                           GLOBAL	__end_of_InitTimer2
  3892  073D                     	__end_of_InitTimer2:
  3893 ;; =============== function _InitTimer2 ends ============
  3894                           
  3895                           	signat	_InitTimer2,88
  3896                           	global	_InitTimer1
  3897                           psect	text836,local,class=CODE,delta=2
  3898                           global __ptext836
  3899  070D                     __ptext836:
  3900                           
  3901 ;; *************** function _InitTimer1 *****************
  3902 ;; Defined at:
  3903 ;;		line 87 in file "InitDevices.c"
  3904 ;; Parameters:    Size  Location     Type
  3905 ;;		None
  3906 ;; Auto vars:     Size  Location     Type
  3907 ;;		None
  3908 ;; Return value:  Size  Location     Type
  3909 ;;		None               void
  3910 ;; Registers used:
  3911 ;;		wreg, status,2
  3912 ;; Tracked objects:
  3913 ;;		On entry : 0/0
  3914 ;;		On exit  : 0/0
  3915 ;;		Unchanged: 0/0
  3916 ;; Data sizes:     COMMON   BANK0   BANK1   BANK3   BANK2
  3917 ;;      Params:         0       0       0       0       0
  3918 ;;      Locals:         0       0       0       0       0
  3919 ;;      Temps:          0       0       0       0       0
  3920 ;;      Totals:         0       0       0       0       0
  3921 ;;Total ram usage:        0 bytes
  3922 ;; Hardware stack levels used:    1
  3923 ;; Hardware stack levels required when called:    2
  3924 ;; This function calls:
  3925 ;;		Nothing
  3926 ;; This function is called by:
  3927 ;;		_InitDevices
  3928 ;; This function uses a non-reentrant model
  3929 ;;
  3930                           psect	text836
  3931                           	file	"InitDevices.c"
  3932                           	line	87
  3933                           	global	__size_of_InitTimer1
  3934  0012                     	__size_of_InitTimer1	equ	__end_of_InitTimer1-_InitTimer1
  3935                           	
  3936  070D                     _InitTimer1:	
  3937                           	opt	stack 4
  3938                           ; Regs used in _InitTimer1: [wreg+status,2]
  3939                           	line	88
  3940                           	
  3941  070D                     l9519:	
  3942                           ;InitDevices.c: 88: T1CON=0x00;
  3943  070D  1283               	bcf	status, 5	;RP0=0, select bank0
  3944  070E  1303               	bcf	status, 6	;RP1=0, select bank0
  3945  070F  0190               	clrf	(16)	;volatile
  3946                           	line	89
  3947                           	
  3948  0710                     l9521:	
  3949                           ;InitDevices.c: 89: TMR1CS = 0;
  3950  0710  1090               	bcf	(129/8),(129)&7
  3951                           	line	90
  3952                           	
  3953  0711                     l9523:	
  3954                           ;InitDevices.c: 90: T1CONbits.T1CKPS0=1;
  3955  0711  1610               	bsf	(16),4	;volatile
  3956                           	line	91
  3957                           	
  3958  0712                     l9525:	
  3959                           ;InitDevices.c: 91: T1CONbits.T1CKPS1=0;
  3960  0712  1290               	bcf	(16),5	;volatile
  3961                           	line	93
  3962                           	
  3963  0713                     l9527:	
  3964                           ;InitDevices.c: 93: TMR1=15536;
  3965  0713  30B0               	movlw	low(03CB0h)
  3966  0714  008E               	movwf	(14)	;volatile
  3967  0715  303C               	movlw	high(03CB0h)
  3968  0716  008F               	movwf	((14))+1	;volatile
  3969                           	line	94
  3970                           	
  3971  0717                     l9529:	
  3972                           ;InitDevices.c: 94: TMR1IE=1;
  3973  0717  1683               	bsf	status, 5	;RP0=1, select bank1
  3974  0718  1303               	bcf	status, 6	;RP1=0, select bank1
  3975  0719  140C               	bsf	(1120/8)^080h,(1120)&7
  3976                           	line	95
  3977                           	
  3978  071A                     l9531:	
  3979                           ;InitDevices.c: 95: TMR1IF = 0;
  3980  071A  1283               	bcf	status, 5	;RP0=0, select bank0
  3981  071B  1303               	bcf	status, 6	;RP1=0, select bank0
  3982  071C  100C               	bcf	(96/8),(96)&7
  3983                           	line	96
  3984                           	
  3985  071D                     l9533:	
  3986                           ;InitDevices.c: 96: TMR1ON=0;
  3987  071D  1010               	bcf	(128/8),(128)&7
  3988                           	line	97
  3989                           	
  3990  071E                     l982:	
  3991  071E  0008               	return
  3992                           	opt stack 0
  3993                           GLOBAL	__end_of_InitTimer1
  3994  071F                     	__end_of_InitTimer1:
  3995 ;; =============== function _InitTimer1 ends ============
  3996                           
  3997                           	signat	_InitTimer1,88
  3998                           	global	_InitTimer0
  3999                           psect	text837,local,class=CODE,delta=2
  4000                           global __ptext837
  4001  073D                     __ptext837:
  4002                           
  4003 ;; *************** function _InitTimer0 *****************
  4004 ;; Defined at:
  4005 ;;		line 81 in file "InitDevices.c"
  4006 ;; Parameters:    Size  Location     Type
  4007 ;;		None
  4008 ;; Auto vars:     Size  Location     Type
  4009 ;;		None
  4010 ;; Return value:  Size  Location     Type
  4011 ;;		None               void
  4012 ;; Registers used:
  4013 ;;		wreg
  4014 ;; Tracked objects:
  4015 ;;		On entry : 0/0
  4016 ;;		On exit  : 0/0
  4017 ;;		Unchanged: 0/0
  4018 ;; Data sizes:     COMMON   BANK0   BANK1   BANK3   BANK2
  4019 ;;      Params:         0       0       0       0       0
  4020 ;;      Locals:         0       0       0       0       0
  4021 ;;      Temps:          0       0       0       0       0
  4022 ;;      Totals:         0       0       0       0       0
  4023 ;;Total ram usage:        0 bytes
  4024 ;; Hardware stack levels used:    1
  4025 ;; Hardware stack levels required when called:    2
  4026 ;; This function calls:
  4027 ;;		Nothing
  4028 ;; This function is called by:
  4029 ;;		_InitDevices
  4030 ;; This function uses a non-reentrant model
  4031 ;;
  4032                           psect	text837
  4033                           	file	"InitDevices.c"
  4034                           	line	81
  4035                           	global	__size_of_InitTimer0
  4036  000A                     	__size_of_InitTimer0	equ	__end_of_InitTimer0-_InitTimer0
  4037                           	
  4038  073D                     _InitTimer0:	
  4039                           	opt	stack 4
  4040                           ; Regs used in _InitTimer0: [wreg]
  4041                           	line	82
  4042                           	
  4043  073D                     l9515:	
  4044                           ;InitDevices.c: 82: OPTION_REG = 0X86;
  4045  073D  3086               	movlw	(086h)
  4046  073E  1683               	bsf	status, 5	;RP0=1, select bank1
  4047  073F  1303               	bcf	status, 6	;RP1=0, select bank1
  4048  0740  0081               	movwf	(129)^080h	;volatile
  4049                           	line	83
  4050                           ;InitDevices.c: 83: TMR0 = 0XFF;
  4051  0741  30FF               	movlw	(0FFh)
  4052  0742  1283               	bcf	status, 5	;RP0=0, select bank0
  4053  0743  1303               	bcf	status, 6	;RP1=0, select bank0
  4054  0744  0081               	movwf	(1)	;volatile
  4055                           	line	84
  4056                           	
  4057  0745                     l9517:	
  4058                           ;InitDevices.c: 84: T0IE=0;
  4059  0745  128B               	bcf	(93/8),(93)&7
  4060                           	line	85
  4061                           	
  4062  0746                     l979:	
  4063  0746  0008               	return
  4064                           	opt stack 0
  4065                           GLOBAL	__end_of_InitTimer0
  4066  0747                     	__end_of_InitTimer0:
  4067 ;; =============== function _InitTimer0 ends ============
  4068                           
  4069                           	signat	_InitTimer0,88
  4070                           	global	_IIC_init
  4071                           psect	text838,local,class=CODE,delta=2
  4072                           global __ptext838
  4073  071F                     __ptext838:
  4074                           
  4075 ;; *************** function _IIC_init *****************
  4076 ;; Defined at:
  4077 ;;		line 67 in file "InitDevices.c"
  4078 ;; Parameters:    Size  Location     Type
  4079 ;;		None
  4080 ;; Auto vars:     Size  Location     Type
  4081 ;;		None
  4082 ;; Return value:  Size  Location     Type
  4083 ;;		None               void
  4084 ;; Registers used:
  4085 ;;		wreg, status,2
  4086 ;; Tracked objects:
  4087 ;;		On entry : 0/0
  4088 ;;		On exit  : 0/0
  4089 ;;		Unchanged: 0/0
  4090 ;; Data sizes:     COMMON   BANK0   BANK1   BANK3   BANK2
  4091 ;;      Params:         0       0       0       0       0
  4092 ;;      Locals:         0       0       0       0       0
  4093 ;;      Temps:          0       0       0       0       0
  4094 ;;      Totals:         0       0       0       0       0
  4095 ;;Total ram usage:        0 bytes
  4096 ;; Hardware stack levels used:    1
  4097 ;; Hardware stack levels required when called:    2
  4098 ;; This function calls:
  4099 ;;		Nothing
  4100 ;; This function is called by:
  4101 ;;		_InitDevices
  4102 ;; This function uses a non-reentrant model
  4103 ;;
  4104                           psect	text838
  4105                           	file	"InitDevices.c"
  4106                           	line	67
  4107                           	global	__size_of_IIC_init
  4108  0010                     	__size_of_IIC_init	equ	__end_of_IIC_init-_IIC_init
  4109                           	
  4110  071F                     _IIC_init:	
  4111                           	opt	stack 4
  4112                           ; Regs used in _IIC_init: [wreg+status,2]
  4113                           	line	68
  4114                           	
  4115  071F                     l9507:	
  4116                           ;InitDevices.c: 68: TRISC3=1;
  4117  071F  1683               	bsf	status, 5	;RP0=1, select bank1
  4118  0720  1303               	bcf	status, 6	;RP1=0, select bank1
  4119  0721  1587               	bsf	(1083/8)^080h,(1083)&7
  4120                           	line	69
  4121                           ;InitDevices.c: 69: TRISC4=1;
  4122  0722  1607               	bsf	(1084/8)^080h,(1084)&7
  4123                           	line	70
  4124                           	
  4125  0723                     l9509:	
  4126                           ;InitDevices.c: 70: SSPSTAT=0x80;
  4127  0723  3080               	movlw	(080h)
  4128  0724  0094               	movwf	(148)^080h	;volatile
  4129                           	line	71
  4130                           ;InitDevices.c: 71: SSPCON=0x28;
  4131  0725  3028               	movlw	(028h)
  4132  0726  1283               	bcf	status, 5	;RP0=0, select bank0
  4133  0727  1303               	bcf	status, 6	;RP1=0, select bank0
  4134  0728  0094               	movwf	(20)	;volatile
  4135                           	line	72
  4136                           	
  4137  0729                     l9511:	
  4138                           ;InitDevices.c: 72: SSPCON2=0;
  4139  0729  1683               	bsf	status, 5	;RP0=1, select bank1
  4140  072A  1303               	bcf	status, 6	;RP1=0, select bank1
  4141  072B  0191               	clrf	(145)^080h	;volatile
  4142                           	line	76
  4143                           	
  4144  072C                     l9513:	
  4145                           ;InitDevices.c: 76: SSPADD=0x13;
  4146  072C  3013               	movlw	(013h)
  4147  072D  0093               	movwf	(147)^080h	;volatile
  4148                           	line	77
  4149                           	
  4150  072E                     l976:	
  4151  072E  0008               	return
  4152                           	opt stack 0
  4153                           GLOBAL	__end_of_IIC_init
  4154  072F                     	__end_of_IIC_init:
  4155 ;; =============== function _IIC_init ends ============
  4156                           
  4157                           	signat	_IIC_init,88
  4158                           	global	_InitialiseADC
  4159                           psect	text839,local,class=CODE,delta=2
  4160                           global __ptext839
  4161  06CE                     __ptext839:
  4162                           
  4163 ;; *************** function _InitialiseADC *****************
  4164 ;; Defined at:
  4165 ;;		line 43 in file "InitDevices.c"
  4166 ;; Parameters:    Size  Location     Type
  4167 ;;		None
  4168 ;; Auto vars:     Size  Location     Type
  4169 ;;		None
  4170 ;; Return value:  Size  Location     Type
  4171 ;;		None               void
  4172 ;; Registers used:
  4173 ;;		wreg, status,2
  4174 ;; Tracked objects:
  4175 ;;		On entry : 0/0
  4176 ;;		On exit  : 0/0
  4177 ;;		Unchanged: 0/0
  4178 ;; Data sizes:     COMMON   BANK0   BANK1   BANK3   BANK2
  4179 ;;      Params:         0       0       0       0       0
  4180 ;;      Locals:         0       0       0       0       0
  4181 ;;      Temps:          0       0       0       0       0
  4182 ;;      Totals:         0       0       0       0       0
  4183 ;;Total ram usage:        0 bytes
  4184 ;; Hardware stack levels used:    1
  4185 ;; Hardware stack levels required when called:    2
  4186 ;; This function calls:
  4187 ;;		Nothing
  4188 ;; This function is called by:
  4189 ;;		_InitDevices
  4190 ;; This function uses a non-reentrant model
  4191 ;;
  4192                           psect	text839
  4193                           	file	"InitDevices.c"
  4194                           	line	43
  4195                           	global	__size_of_InitialiseADC
  4196  0016                     	__size_of_InitialiseADC	equ	__end_of_InitialiseADC-_InitialiseADC
  4197                           	
  4198  06CE                     _InitialiseADC:	
  4199                           	opt	stack 4
  4200                           ; Regs used in _InitialiseADC: [wreg+status,2]
  4201                           	line	47
  4202                           	
  4203  06CE                     l9491:	
  4204                           ;InitDevices.c: 47: ANSEL = 0x08;
  4205  06CE  3008               	movlw	(08h)
  4206  06CF  1683               	bsf	status, 5	;RP0=1, select bank3
  4207  06D0  1703               	bsf	status, 6	;RP1=1, select bank3
  4208  06D1  0088               	movwf	(392)^0180h	;volatile
  4209                           	line	49
  4210                           ;InitDevices.c: 49: ADCON1 = 0x80;
  4211  06D2  3080               	movlw	(080h)
  4212  06D3  1683               	bsf	status, 5	;RP0=1, select bank1
  4213  06D4  1303               	bcf	status, 6	;RP1=0, select bank1
  4214  06D5  009F               	movwf	(159)^080h	;volatile
  4215                           	line	50
  4216                           	
  4217  06D6                     l9493:	
  4218                           ;InitDevices.c: 50: ADRESL = 0;
  4219  06D6  019E               	clrf	(158)^080h	;volatile
  4220                           	line	51
  4221                           	
  4222  06D7                     l9495:	
  4223                           ;InitDevices.c: 51: ADRESH = 0;
  4224  06D7  1283               	bcf	status, 5	;RP0=0, select bank0
  4225  06D8  1303               	bcf	status, 6	;RP1=0, select bank0
  4226  06D9  019E               	clrf	(30)	;volatile
  4227                           	line	52
  4228                           	
  4229  06DA                     l9497:	
  4230                           ;InitDevices.c: 52: ADIE = 0;
  4231  06DA  1683               	bsf	status, 5	;RP0=1, select bank1
  4232  06DB  1303               	bcf	status, 6	;RP1=0, select bank1
  4233  06DC  130C               	bcf	(1126/8)^080h,(1126)&7
  4234                           	line	53
  4235                           	
  4236  06DD                     l9499:	
  4237                           ;InitDevices.c: 53: PEIE = 1;
  4238  06DD  170B               	bsf	(94/8),(94)&7
  4239                           	line	54
  4240                           	
  4241  06DE                     l9501:	
  4242                           ;InitDevices.c: 54: ADIF = 0;
  4243  06DE  1283               	bcf	status, 5	;RP0=0, select bank0
  4244  06DF  1303               	bcf	status, 6	;RP1=0, select bank0
  4245  06E0  130C               	bcf	(102/8),(102)&7
  4246                           	line	55
  4247                           	
  4248  06E1                     l9503:	
  4249                           ;InitDevices.c: 55: GO_DONE = 1;
  4250  06E1  149F               	bsf	(249/8),(249)&7
  4251                           	line	56
  4252                           	
  4253  06E2                     l9505:	
  4254                           ;InitDevices.c: 56: ADON = 1;
  4255  06E2  141F               	bsf	(248/8),(248)&7
  4256                           	line	57
  4257                           	
  4258  06E3                     l973:	
  4259  06E3  0008               	return
  4260                           	opt stack 0
  4261                           GLOBAL	__end_of_InitialiseADC
  4262  06E4                     	__end_of_InitialiseADC:
  4263 ;; =============== function _InitialiseADC ends ============
  4264                           
  4265                           	signat	_InitialiseADC,88
  4266                           	global	_PortInit
  4267                           psect	text840,local,class=CODE,delta=2
  4268                           global __ptext840
  4269  06E4                     __ptext840:
  4270                           
  4271 ;; *************** function _PortInit *****************
  4272 ;; Defined at:
  4273 ;;		line 30 in file "InitDevices.c"
  4274 ;; Parameters:    Size  Location     Type
  4275 ;;		None
  4276 ;; Auto vars:     Size  Location     Type
  4277 ;;		None
  4278 ;; Return value:  Size  Location     Type
  4279 ;;		None               void
  4280 ;; Registers used:
  4281 ;;		wreg, status,2
  4282 ;; Tracked objects:
  4283 ;;		On entry : 0/0
  4284 ;;		On exit  : 0/0
  4285 ;;		Unchanged: 0/0
  4286 ;; Data sizes:     COMMON   BANK0   BANK1   BANK3   BANK2
  4287 ;;      Params:         0       0       0       0       0
  4288 ;;      Locals:         0       0       0       0       0
  4289 ;;      Temps:          0       0       0       0       0
  4290 ;;      Totals:         0       0       0       0       0
  4291 ;;Total ram usage:        0 bytes
  4292 ;; Hardware stack levels used:    1
  4293 ;; Hardware stack levels required when called:    2
  4294 ;; This function calls:
  4295 ;;		Nothing
  4296 ;; This function is called by:
  4297 ;;		_InitDevices
  4298 ;; This function uses a non-reentrant model
  4299 ;;
  4300                           psect	text840
  4301                           	file	"InitDevices.c"
  4302                           	line	30
  4303                           	global	__size_of_PortInit
  4304  0015                     	__size_of_PortInit	equ	__end_of_PortInit-_PortInit
  4305                           	
  4306  06E4                     _PortInit:	
  4307                           	opt	stack 4
  4308                           ; Regs used in _PortInit: [wreg+status,2]
  4309                           	line	31
  4310                           	
  4311  06E4                     l9481:	
  4312                           ;InitDevices.c: 31: PORTA = 0x00;
  4313  06E4  1283               	bcf	status, 5	;RP0=0, select bank0
  4314  06E5  1303               	bcf	status, 6	;RP1=0, select bank0
  4315  06E6  0185               	clrf	(5)	;volatile
  4316                           	line	32
  4317                           ;InitDevices.c: 32: PORTB = 0x00;
  4318  06E7  0186               	clrf	(6)	;volatile
  4319                           	line	33
  4320                           	
  4321  06E8                     l9483:	
  4322                           ;InitDevices.c: 33: TRISA = 0xEB;
  4323  06E8  30EB               	movlw	(0EBh)
  4324  06E9  1683               	bsf	status, 5	;RP0=1, select bank1
  4325  06EA  1303               	bcf	status, 6	;RP1=0, select bank1
  4326  06EB  0085               	movwf	(133)^080h	;volatile
  4327                           	line	34
  4328                           	
  4329  06EC                     l9485:	
  4330                           ;InitDevices.c: 34: TRISB = 0X12;
  4331  06EC  3012               	movlw	(012h)
  4332  06ED  0086               	movwf	(134)^080h	;volatile
  4333                           	line	35
  4334                           ;InitDevices.c: 35: PORTC = 0X00;
  4335  06EE  1283               	bcf	status, 5	;RP0=0, select bank0
  4336  06EF  1303               	bcf	status, 6	;RP1=0, select bank0
  4337  06F0  0187               	clrf	(7)	;volatile
  4338                           	line	36
  4339                           	
  4340  06F1                     l9487:	
  4341                           ;InitDevices.c: 36: TRISC = 0XE2;
  4342  06F1  30E2               	movlw	(0E2h)
  4343  06F2  1683               	bsf	status, 5	;RP0=1, select bank1
  4344  06F3  1303               	bcf	status, 6	;RP1=0, select bank1
  4345  06F4  0087               	movwf	(135)^080h	;volatile
  4346                           	line	37
  4347                           	
  4348  06F5                     l9489:	
  4349                           ;InitDevices.c: 37: ANSELH = 0x00;
  4350  06F5  1683               	bsf	status, 5	;RP0=1, select bank3
  4351  06F6  1703               	bsf	status, 6	;RP1=1, select bank3
  4352  06F7  0189               	clrf	(393)^0180h	;volatile
  4353                           	line	40
  4354                           	
  4355  06F8                     l970:	
  4356  06F8  0008               	return
  4357                           	opt stack 0
  4358                           GLOBAL	__end_of_PortInit
  4359  06F9                     	__end_of_PortInit:
  4360 ;; =============== function _PortInit ends ============
  4361                           
  4362                           	signat	_PortInit,88
  4363                           	global	_systemOSC
  4364                           psect	text841,local,class=CODE,delta=2
  4365                           global __ptext841
  4366  0756                     __ptext841:
  4367                           
  4368 ;; *************** function _systemOSC *****************
  4369 ;; Defined at:
  4370 ;;		line 25 in file "InitDevices.c"
  4371 ;; Parameters:    Size  Location     Type
  4372 ;;		None
  4373 ;; Auto vars:     Size  Location     Type
  4374 ;;		None
  4375 ;; Return value:  Size  Location     Type
  4376 ;;		None               void
  4377 ;; Registers used:
  4378 ;;		wreg
  4379 ;; Tracked objects:
  4380 ;;		On entry : 0/0
  4381 ;;		On exit  : 0/0
  4382 ;;		Unchanged: 0/0
  4383 ;; Data sizes:     COMMON   BANK0   BANK1   BANK3   BANK2
  4384 ;;      Params:         0       0       0       0       0
  4385 ;;      Locals:         0       0       0       0       0
  4386 ;;      Temps:          0       0       0       0       0
  4387 ;;      Totals:         0       0       0       0       0
  4388 ;;Total ram usage:        0 bytes
  4389 ;; Hardware stack levels used:    1
  4390 ;; Hardware stack levels required when called:    2
  4391 ;; This function calls:
  4392 ;;		Nothing
  4393 ;; This function is called by:
  4394 ;;		_InitDevices
  4395 ;; This function uses a non-reentrant model
  4396 ;;
  4397                           psect	text841
  4398                           	file	"InitDevices.c"
  4399                           	line	25
  4400                           	global	__size_of_systemOSC
  4401  0005                     	__size_of_systemOSC	equ	__end_of_systemOSC-_systemOSC
  4402                           	
  4403  0756                     _systemOSC:	
  4404                           	opt	stack 4
  4405                           ; Regs used in _systemOSC: [wreg]
  4406                           	line	26
  4407                           	
  4408  0756                     l9479:	
  4409                           ;InitDevices.c: 26: OSCCON = 0X71;
  4410  0756  3071               	movlw	(071h)
  4411  0757  1683               	bsf	status, 5	;RP0=1, select bank1
  4412  0758  1303               	bcf	status, 6	;RP1=0, select bank1
  4413  0759  008F               	movwf	(143)^080h	;volatile
  4414                           	line	27
  4415                           	
  4416  075A                     l967:	
  4417  075A  0008               	return
  4418                           	opt stack 0
  4419                           GLOBAL	__end_of_systemOSC
  4420  075B                     	__end_of_systemOSC:
  4421 ;; =============== function _systemOSC ends ============
  4422                           
  4423                           	signat	_systemOSC,88
  4424                           	global	_com
  4425                           psect	text842,local,class=CODE,delta=2
  4426                           global __ptext842
  4427  0617                     __ptext842:
  4428                           
  4429 ;; *************** function _com *****************
  4430 ;; Defined at:
  4431 ;;		line 5 in file "Interrupt.c"
  4432 ;; Parameters:    Size  Location     Type
  4433 ;;		None
  4434 ;; Auto vars:     Size  Location     Type
  4435 ;;		None
  4436 ;; Return value:  Size  Location     Type
  4437 ;;		None               void
  4438 ;; Registers used:
  4439 ;;		wreg, status,2, status,0, pclath, cstack
  4440 ;; Tracked objects:
  4441 ;;		On entry : 0/0
  4442 ;;		On exit  : 0/0
  4443 ;;		Unchanged: 0/0
  4444 ;; Data sizes:     COMMON   BANK0   BANK1   BANK3   BANK2
  4445 ;;      Params:         0       0       0       0       0
  4446 ;;      Locals:         0       0       0       0       0
  4447 ;;      Temps:          4       0       0       0       0
  4448 ;;      Totals:         4       0       0       0       0
  4449 ;;Total ram usage:        4 bytes
  4450 ;; Hardware stack levels used:    1
  4451 ;; Hardware stack levels required when called:    1
  4452 ;; This function calls:
  4453 ;;		_RBCN_int
  4454 ;;		_TMR2_int
  4455 ;;		_TMR1_int
  4456 ;; This function is called by:
  4457 ;;		Interrupt level 1
  4458 ;; This function uses a non-reentrant model
  4459 ;;
  4460                           psect	text842
  4461                           	file	"Interrupt.c"
  4462                           	line	5
  4463                           	global	__size_of_com
  4464  002F                     	__size_of_com	equ	__end_of_com-_com
  4465                           	
  4466  0617                     _com:	
  4467                           	opt	stack 3
  4468                           ; Regs used in _com: [wreg+status,2+status,0+pclath+cstack]
  4469                           psect	intentry,class=CODE,delta=2
  4470                           global __pintentry
  4471  0004                     __pintentry:
  4472                           global interrupt_function
  4473  0004                     interrupt_function:
  4474                           	global saved_w
  4475  007E                     	saved_w	set	btemp+0
  4476  0004  00FE               	movwf	saved_w
  4477  0005  0E03               	swapf	status,w
  4478  0006  00F2               	movwf	(??_com+0)
  4479  0007  0804               	movf	fsr0,w
  4480  0008  00F3               	movwf	(??_com+1)
  4481  0009  080A               	movf	pclath,w
  4482  000A  00F4               	movwf	(??_com+2)
  4483  000B  1283               	bcf	status, 5	;RP0=0, select bank0
  4484  000C  1303               	bcf	status, 6	;RP1=0, select bank0
  4485  000D  087F               	movf	btemp+1,w
  4486  000E  00F5               	movwf	(??_com+3)
  4487  000F  120A  118A  2E17   	ljmp	_com
  4488                           psect	text842
  4489                           	line	6
  4490                           	
  4491  0617                     i1l8957:	
  4492                           ;Interrupt.c: 6: if(RBIF)
  4493  0617  1C0B               	btfss	(88/8),(88)&7
  4494  0618  2E1A               	goto	u300_21
  4495  0619  2E1B               	goto	u300_20
  4496  061A                     u300_21:
  4497  061A  2E21               	goto	i1l8961
  4498  061B                     u300_20:
  4499                           	line	8
  4500                           	
  4501  061B                     i1l8959:	
  4502                           ;Interrupt.c: 7: {
  4503                           ;Interrupt.c: 8: RBCN_int();
  4504  061B  120A  118A  2693   	fcall	_RBCN_int
              120A  118A         
  4505  0620  2E21               	goto	i1l8961
  4506                           	line	9
  4507                           	
  4508  0621                     i1l2018:	
  4509                           	line	10
  4510                           	
  4511  0621                     i1l8961:	
  4512                           ;Interrupt.c: 9: }
  4513                           ;Interrupt.c: 10: if(TMR2IF)
  4514  0621  1283               	bcf	status, 5	;RP0=0, select bank0
  4515  0622  1303               	bcf	status, 6	;RP1=0, select bank0
  4516  0623  1C8C               	btfss	(97/8),(97)&7
  4517  0624  2E26               	goto	u301_21
  4518  0625  2E27               	goto	u301_20
  4519  0626                     u301_21:
  4520  0626  2E2D               	goto	i1l8965
  4521  0627                     u301_20:
  4522                           	line	12
  4523                           	
  4524  0627                     i1l8963:	
  4525                           ;Interrupt.c: 11: {
  4526                           ;Interrupt.c: 12: TMR2_int();
  4527  0627  120A  118A  26B5   	fcall	_TMR2_int
              120A  118A         
  4528  062C  2E2D               	goto	i1l8965
  4529                           	line	13
  4530                           	
  4531  062D                     i1l2019:	
  4532                           	line	14
  4533                           	
  4534  062D                     i1l8965:	
  4535                           ;Interrupt.c: 13: }
  4536                           ;Interrupt.c: 14: if(TMR1IF)
  4537  062D  1283               	bcf	status, 5	;RP0=0, select bank0
  4538  062E  1303               	bcf	status, 6	;RP1=0, select bank0
  4539  062F  1C0C               	btfss	(96/8),(96)&7
  4540  0630  2E32               	goto	u302_21
  4541  0631  2E33               	goto	u302_20
  4542  0632                     u302_21:
  4543  0632  2E39               	goto	i1l2021
  4544  0633                     u302_20:
  4545                           	line	16
  4546                           	
  4547  0633                     i1l8967:	
  4548                           ;Interrupt.c: 15: {
  4549                           ;Interrupt.c: 16: TMR1_int();
  4550  0633  120A  118A  23FB   	fcall	_TMR1_int
              120A  118A         
  4551  0638  2E39               	goto	i1l2021
  4552                           	line	17
  4553                           	
  4554  0639                     i1l2020:	
  4555                           	line	23
  4556                           	
  4557  0639                     i1l2021:	
  4558  0639  0875               	movf	(??_com+3),w
  4559  063A  1283               	bcf	status, 5	;RP0=0, select bank0
  4560  063B  1303               	bcf	status, 6	;RP1=0, select bank0
  4561  063C  00FF               	movwf	btemp+1
  4562  063D  0874               	movf	(??_com+2),w
  4563  063E  008A               	movwf	pclath
  4564  063F  0873               	movf	(??_com+1),w
  4565  0640  0084               	movwf	fsr0
  4566  0641  0E72               	swapf	(??_com+0)^0FFFFFF80h,w
  4567  0642  0083               	movwf	status
  4568  0643  0EFE               	swapf	saved_w,f
  4569  0644  0E7E               	swapf	saved_w,w
  4570  0645  0009               	retfie
  4571                           	opt stack 0
  4572                           GLOBAL	__end_of_com
  4573  0646                     	__end_of_com:
  4574 ;; =============== function _com ends ============
  4575                           
  4576                           	signat	_com,88
  4577                           	global	_TMR1_int
  4578                           psect	text843,local,class=CODE,delta=2
  4579                           global __ptext843
  4580  03FB                     __ptext843:
  4581                           
  4582 ;; *************** function _TMR1_int *****************
  4583 ;; Defined at:
  4584 ;;		line 50 in file "Interrupt.c"
  4585 ;; Parameters:    Size  Location     Type
  4586 ;;		None
  4587 ;; Auto vars:     Size  Location     Type
  4588 ;;  t               1    1[COMMON] unsigned char 
  4589 ;;  i               1    0        unsigned char 
  4590 ;; Return value:  Size  Location     Type
  4591 ;;		None               void
  4592 ;; Registers used:
  4593 ;;		wreg, status,2, status,0
  4594 ;; Tracked objects:
  4595 ;;		On entry : 0/0
  4596 ;;		On exit  : 0/0
  4597 ;;		Unchanged: 0/0
  4598 ;; Data sizes:     COMMON   BANK0   BANK1   BANK3   BANK2
  4599 ;;      Params:         0       0       0       0       0
  4600 ;;      Locals:         1       0       0       0       0
  4601 ;;      Temps:          1       0       0       0       0
  4602 ;;      Totals:         2       0       0       0       0
  4603 ;;Total ram usage:        2 bytes
  4604 ;; Hardware stack levels used:    1
  4605 ;; This function calls:
  4606 ;;		Nothing
  4607 ;; This function is called by:
  4608 ;;		_com
  4609 ;; This function uses a non-reentrant model
  4610 ;;
  4611                           psect	text843
  4612                           	file	"Interrupt.c"
  4613                           	line	50
  4614                           	global	__size_of_TMR1_int
  4615  00C5                     	__size_of_TMR1_int	equ	__end_of_TMR1_int-_TMR1_int
  4616                           	
  4617  03FB                     _TMR1_int:	
  4618                           	opt	stack 3
  4619                           ; Regs used in _TMR1_int: [wreg+status,2+status,0]
  4620                           	line	52
  4621                           	
  4622  03FB                     i1l8995:	
  4623                           ;Interrupt.c: 51: unsigned char t,i;
  4624                           ;Interrupt.c: 52: t = TMR1IF;
  4625  03FB  3000               	movlw	0
  4626  03FC  1283               	bcf	status, 5	;RP0=0, select bank0
  4627  03FD  1303               	bcf	status, 6	;RP1=0, select bank0
  4628  03FE  180C               	btfsc	(96/8),(96)&7
  4629  03FF  3001               	movlw	1
  4630  0400  00F0               	movwf	(??_TMR1_int+0)+0
  4631  0401  0870               	movf	(??_TMR1_int+0)+0,w
  4632  0402  00F1               	movwf	(TMR1_int@t)
  4633                           	line	53
  4634                           	
  4635  0403                     i1l8997:	
  4636                           ;Interrupt.c: 53: TMR1IF =0;
  4637  0403  100C               	bcf	(96/8),(96)&7
  4638                           	line	54
  4639                           ;Interrupt.c: 54: TMR1=15536;
  4640  0404  30B0               	movlw	low(03CB0h)
  4641  0405  008E               	movwf	(14)	;volatile
  4642  0406  303C               	movlw	high(03CB0h)
  4643  0407  008F               	movwf	((14))+1	;volatile
  4644                           	line	80
  4645                           	
  4646  0408                     i1l8999:	
  4647                           ;Interrupt.c: 80: if((PORTAbits.RA1 == 0) && (Not_two == 1) && (Forbid_input == 0))
  4648  0408  1885               	btfsc	(5),1	;volatile
  4649  0409  2C0B               	goto	u305_21
  4650  040A  2C0C               	goto	u305_20
  4651  040B                     u305_21:
  4652  040B  2C3C               	goto	i1l9021
  4653  040C                     u305_20:
  4654                           	
  4655  040C                     i1l9001:	
  4656  040C  0879               	movf	(_Not_two),w
  4657  040D  3A01               	xorlw	01h
  4658  040E  1D03               	skipz
  4659  040F  2C11               	goto	u306_21
  4660  0410  2C12               	goto	u306_20
  4661  0411                     u306_21:
  4662  0411  2C3C               	goto	i1l9021
  4663  0412                     u306_20:
  4664                           	
  4665  0412                     i1l9003:	
  4666  0412  08B5               	movf	(_Forbid_input),f
  4667  0413  1D03               	skipz
  4668  0414  2C16               	goto	u307_21
  4669  0415  2C17               	goto	u307_20
  4670  0416                     u307_21:
  4671  0416  2C3C               	goto	i1l9021
  4672  0417                     u307_20:
  4673                           	line	82
  4674                           	
  4675  0417                     i1l9005:	
  4676                           ;Interrupt.c: 81: {
  4677                           ;Interrupt.c: 82: if(PORTBbits.RB1 == 1) Key_Up = 0;
  4678  0417  1C86               	btfss	(6),1	;volatile
  4679  0418  2C1A               	goto	u308_21
  4680  0419  2C1B               	goto	u308_20
  4681  041A                     u308_21:
  4682  041A  2C1C               	goto	i1l2025
  4683  041B                     u308_20:
  4684                           	
  4685  041B                     i1l9007:	
  4686  041B  01B8               	clrf	(_Key_Up)
  4687                           	
  4688  041C                     i1l2025:	
  4689                           	line	83
  4690                           ;Interrupt.c: 83: if((PORTBbits.RB1 == 0) && (Key_Up == 0))
  4691  041C  1886               	btfsc	(6),1	;volatile
  4692  041D  2C1F               	goto	u309_21
  4693  041E  2C20               	goto	u309_20
  4694  041F                     u309_21:
  4695  041F  2C39               	goto	i1l2026
  4696  0420                     u309_20:
  4697                           	
  4698  0420                     i1l9009:	
  4699  0420  08B8               	movf	(_Key_Up),f
  4700  0421  1D03               	skipz
  4701  0422  2C24               	goto	u310_21
  4702  0423  2C25               	goto	u310_20
  4703  0424                     u310_21:
  4704  0424  2C39               	goto	i1l2026
  4705  0425                     u310_20:
  4706                           	line	85
  4707                           	
  4708  0425                     i1l9011:	
  4709                           ;Interrupt.c: 84: {
  4710                           ;Interrupt.c: 85: Key_Run_times++;
  4711  0425  3001               	movlw	(01h)
  4712  0426  00F0               	movwf	(??_TMR1_int+0)+0
  4713  0427  0870               	movf	(??_TMR1_int+0)+0,w
  4714  0428  07F8               	addwf	(_Key_Run_times),f
  4715                           	line	86
  4716                           	
  4717  0429                     i1l9013:	
  4718                           ;Interrupt.c: 86: if(Key_Run_times == 40)
  4719  0429  0878               	movf	(_Key_Run_times),w
  4720  042A  3A28               	xorlw	028h
  4721  042B  1D03               	skipz
  4722  042C  2C2E               	goto	u311_21
  4723  042D  2C2F               	goto	u311_20
  4724  042E                     u311_21:
  4725  042E  2C3C               	goto	i1l9021
  4726  042F                     u311_20:
  4727                           	line	88
  4728                           	
  4729  042F                     i1l9015:	
  4730                           ;Interrupt.c: 87: {
  4731                           ;Interrupt.c: 88: Key_Run++;
  4732  042F  3001               	movlw	(01h)
  4733  0430  00F0               	movwf	(??_TMR1_int+0)+0
  4734  0431  0870               	movf	(??_TMR1_int+0)+0,w
  4735  0432  07B7               	addwf	(_Key_Run),f
  4736                           	line	89
  4737                           	
  4738  0433                     i1l9017:	
  4739                           ;Interrupt.c: 89: Key_Run_times = 0;
  4740  0433  01F8               	clrf	(_Key_Run_times)
  4741                           	line	90
  4742                           	
  4743  0434                     i1l9019:	
  4744                           ;Interrupt.c: 90: Key_Up = 1;
  4745  0434  01B8               	clrf	(_Key_Up)
  4746  0435  1403               	bsf	status,0
  4747  0436  0DB8               	rlf	(_Key_Up),f
  4748  0437  2C3C               	goto	i1l9021
  4749                           	line	91
  4750                           	
  4751  0438                     i1l2027:	
  4752                           	line	92
  4753                           ;Interrupt.c: 91: }
  4754                           ;Interrupt.c: 92: } else Key_Run_times = 0;
  4755  0438  2C3C               	goto	i1l9021
  4756                           	
  4757  0439                     i1l2026:	
  4758  0439  01F8               	clrf	(_Key_Run_times)
  4759  043A  2C3C               	goto	i1l9021
  4760                           	
  4761  043B                     i1l2028:	
  4762  043B  2C3C               	goto	i1l9021
  4763                           	line	93
  4764                           	
  4765  043C                     i1l2024:	
  4766                           	line	95
  4767                           	
  4768  043C                     i1l9021:	
  4769                           ;Interrupt.c: 93: }
  4770                           ;Interrupt.c: 95: if(Work_Flag == 0)
  4771  043C  08FA               	movf	(_Work_Flag),f
  4772  043D  1D03               	skipz
  4773  043E  2C40               	goto	u312_21
  4774  043F  2C41               	goto	u312_20
  4775  0440                     u312_21:
  4776  0440  2C66               	goto	i1l9039
  4777  0441                     u312_20:
  4778                           	line	97
  4779                           	
  4780  0441                     i1l9023:	
  4781                           ;Interrupt.c: 96: {
  4782                           ;Interrupt.c: 97: if(PORTCbits.RC1 == 1) Onekey_Key_Up = 0;
  4783  0441  1C87               	btfss	(7),1	;volatile
  4784  0442  2C44               	goto	u313_21
  4785  0443  2C45               	goto	u313_20
  4786  0444                     u313_21:
  4787  0444  2C46               	goto	i1l2030
  4788  0445                     u313_20:
  4789                           	
  4790  0445                     i1l9025:	
  4791  0445  01BB               	clrf	(_Onekey_Key_Up)
  4792                           	
  4793  0446                     i1l2030:	
  4794                           	line	98
  4795                           ;Interrupt.c: 98: if((PORTCbits.RC1 == 0) && (Onekey_Key_Up == 0))
  4796  0446  1887               	btfsc	(7),1	;volatile
  4797  0447  2C49               	goto	u314_21
  4798  0448  2C4A               	goto	u314_20
  4799  0449                     u314_21:
  4800  0449  2C63               	goto	i1l2031
  4801  044A                     u314_20:
  4802                           	
  4803  044A                     i1l9027:	
  4804  044A  08BB               	movf	(_Onekey_Key_Up),f
  4805  044B  1D03               	skipz
  4806  044C  2C4E               	goto	u315_21
  4807  044D  2C4F               	goto	u315_20
  4808  044E                     u315_21:
  4809  044E  2C63               	goto	i1l2031
  4810  044F                     u315_20:
  4811                           	line	100
  4812                           	
  4813  044F                     i1l9029:	
  4814                           ;Interrupt.c: 99: {
  4815                           ;Interrupt.c: 100: Onekey_times++;
  4816  044F  3001               	movlw	(01h)
  4817  0450  00F0               	movwf	(??_TMR1_int+0)+0
  4818  0451  0870               	movf	(??_TMR1_int+0)+0,w
  4819  0452  07BC               	addwf	(_Onekey_times),f
  4820                           	line	101
  4821                           	
  4822  0453                     i1l9031:	
  4823                           ;Interrupt.c: 101: if(Onekey_times == 40)
  4824  0453  083C               	movf	(_Onekey_times),w
  4825  0454  3A28               	xorlw	028h
  4826  0455  1D03               	skipz
  4827  0456  2C58               	goto	u316_21
  4828  0457  2C59               	goto	u316_20
  4829  0458                     u316_21:
  4830  0458  2C66               	goto	i1l9039
  4831  0459                     u316_20:
  4832                           	line	103
  4833                           	
  4834  0459                     i1l9033:	
  4835                           ;Interrupt.c: 102: {
  4836                           ;Interrupt.c: 103: Onekey_Flag++;
  4837  0459  3001               	movlw	(01h)
  4838  045A  00F0               	movwf	(??_TMR1_int+0)+0
  4839  045B  0870               	movf	(??_TMR1_int+0)+0,w
  4840  045C  07BA               	addwf	(_Onekey_Flag),f
  4841                           	line	104
  4842                           	
  4843  045D                     i1l9035:	
  4844                           ;Interrupt.c: 104: Onekey_times =0;
  4845  045D  01BC               	clrf	(_Onekey_times)
  4846                           	line	105
  4847                           	
  4848  045E                     i1l9037:	
  4849                           ;Interrupt.c: 105: Onekey_Key_Up = 1;
  4850  045E  01BB               	clrf	(_Onekey_Key_Up)
  4851  045F  1403               	bsf	status,0
  4852  0460  0DBB               	rlf	(_Onekey_Key_Up),f
  4853  0461  2C66               	goto	i1l9039
  4854                           	line	106
  4855                           	
  4856  0462                     i1l2032:	
  4857                           	line	107
  4858                           ;Interrupt.c: 106: }
  4859                           ;Interrupt.c: 107: } else Onekey_times = 0;
  4860  0462  2C66               	goto	i1l9039
  4861                           	
  4862  0463                     i1l2031:	
  4863  0463  01BC               	clrf	(_Onekey_times)
  4864  0464  2C66               	goto	i1l9039
  4865                           	
  4866  0465                     i1l2033:	
  4867  0465  2C66               	goto	i1l9039
  4868                           	line	108
  4869                           	
  4870  0466                     i1l2029:	
  4871                           	line	110
  4872                           	
  4873  0466                     i1l9039:	
  4874                           ;Interrupt.c: 108: }
  4875                           ;Interrupt.c: 110: if(Open_Cover_Flag == 1)
  4876  0466  083D               	movf	(_Open_Cover_Flag),w
  4877  0467  3A01               	xorlw	01h
  4878  0468  1D03               	skipz
  4879  0469  2C6B               	goto	u317_21
  4880  046A  2C6C               	goto	u317_20
  4881  046B                     u317_21:
  4882  046B  2C72               	goto	i1l2034
  4883  046C                     u317_20:
  4884                           	line	112
  4885                           	
  4886  046C                     i1l9041:	
  4887                           ;Interrupt.c: 111: {
  4888                           ;Interrupt.c: 112: Open_Cover_times++;
  4889  046C  3001               	movlw	low(01h)
  4890  046D  07AE               	addwf	(_Open_Cover_times),f
  4891  046E  1803               	skipnc
  4892  046F  0AAF               	incf	(_Open_Cover_times+1),f
  4893  0470  3000               	movlw	high(01h)
  4894  0471  07AF               	addwf	(_Open_Cover_times+1),f
  4895                           	line	113
  4896                           	
  4897  0472                     i1l2034:	
  4898                           	line	115
  4899                           ;Interrupt.c: 113: }
  4900                           ;Interrupt.c: 115: if(Count_Flag == 1)
  4901  0472  0876               	movf	(_Count_Flag),w
  4902  0473  3A01               	xorlw	01h
  4903  0474  1D03               	skipz
  4904  0475  2C77               	goto	u318_21
  4905  0476  2C78               	goto	u318_20
  4906  0477                     u318_21:
  4907  0477  2CBA               	goto	i1l9057
  4908  0478                     u318_20:
  4909                           	line	117
  4910                           	
  4911  0478                     i1l9043:	
  4912                           ;Interrupt.c: 116: {
  4913                           ;Interrupt.c: 117: Flag_working_time++;
  4914  0478  3001               	movlw	low(01h)
  4915  0479  07AC               	addwf	(_Flag_working_time),f
  4916  047A  1803               	skipnc
  4917  047B  0AAD               	incf	(_Flag_working_time+1),f
  4918  047C  3000               	movlw	high(01h)
  4919  047D  07AD               	addwf	(_Flag_working_time+1),f
  4920                           	line	118
  4921                           ;Interrupt.c: 118: if((Flag_working_time >= 6000) )
  4922  047E  3017               	movlw	high(01770h)
  4923  047F  022D               	subwf	(_Flag_working_time+1),w
  4924  0480  3070               	movlw	low(01770h)
  4925  0481  1903               	skipnz
  4926  0482  022C               	subwf	(_Flag_working_time),w
  4927  0483  1C03               	skipc
  4928  0484  2C86               	goto	u319_21
  4929  0485  2C87               	goto	u319_20
  4930  0486                     u319_21:
  4931  0486  2C90               	goto	i1l9049
  4932  0487                     u319_20:
  4933                           	line	120
  4934                           	
  4935  0487                     i1l9045:	
  4936                           ;Interrupt.c: 119: {
  4937                           ;Interrupt.c: 120: Start_Flag = 1;
  4938  0487  01BE               	clrf	(_Start_Flag)
  4939  0488  1403               	bsf	status,0
  4940  0489  0DBE               	rlf	(_Start_Flag),f
  4941                           	line	121
  4942                           ;Interrupt.c: 121: Stop_Flag = 1;
  4943  048A  01C0               	clrf	(_Stop_Flag)
  4944  048B  1403               	bsf	status,0
  4945  048C  0DC0               	rlf	(_Stop_Flag),f
  4946                           	line	122
  4947                           	
  4948  048D                     i1l9047:	
  4949                           ;Interrupt.c: 122: Flag_working_time = 0;
  4950  048D  01AC               	clrf	(_Flag_working_time)
  4951  048E  01AD               	clrf	(_Flag_working_time+1)
  4952  048F  2C90               	goto	i1l9049
  4953                           	line	123
  4954                           	
  4955  0490                     i1l2036:	
  4956                           	line	124
  4957                           	
  4958  0490                     i1l9049:	
  4959                           ;Interrupt.c: 123: }
  4960                           ;Interrupt.c: 124: if(Flag_working_time > 400)
  4961  0490  3001               	movlw	high(0191h)
  4962  0491  022D               	subwf	(_Flag_working_time+1),w
  4963  0492  3091               	movlw	low(0191h)
  4964  0493  1903               	skipnz
  4965  0494  022C               	subwf	(_Flag_working_time),w
  4966  0495  1C03               	skipc
  4967  0496  2C98               	goto	u320_21
  4968  0497  2C99               	goto	u320_20
  4969  0498                     u320_21:
  4970  0498  2CB7               	goto	i1l2037
  4971  0499                     u320_20:
  4972                           	line	126
  4973                           	
  4974  0499                     i1l9051:	
  4975                           ;Interrupt.c: 125: {
  4976                           ;Interrupt.c: 126: Speed_LED_times++;
  4977  0499  3001               	movlw	low(01h)
  4978  049A  07B2               	addwf	(_Speed_LED_times),f
  4979  049B  1803               	skipnc
  4980  049C  0AB3               	incf	(_Speed_LED_times+1),f
  4981  049D  3000               	movlw	high(01h)
  4982  049E  07B3               	addwf	(_Speed_LED_times+1),f
  4983                           	line	127
  4984                           ;Interrupt.c: 127: if(Speed_LED_times == 20)
  4985  049F  3014               	movlw	014h
  4986  04A0  0632               	xorwf	(_Speed_LED_times),w
  4987  04A1  0433               	iorwf	(_Speed_LED_times+1),w
  4988  04A2  1D03               	skipz
  4989  04A3  2CA5               	goto	u321_21
  4990  04A4  2CA6               	goto	u321_20
  4991  04A5                     u321_21:
  4992  04A5  2CB8               	goto	i1l2039
  4993  04A6                     u321_20:
  4994                           	line	129
  4995                           	
  4996  04A6                     i1l9053:	
  4997                           ;Interrupt.c: 128: {
  4998                           ;Interrupt.c: 129: PORTBbits.RB0 = ~ PORTBbits.RB0;
  4999  04A6  1003               	clrc
  5000  04A7  1C06               	btfss	(6),0	;volatile
  5001  04A8  1403               	setc
  5002  04A9  1803               	btfsc	status,0
  5003  04AA  2CAC               	goto	u322_21
  5004  04AB  2CB0               	goto	u322_20
  5005                           	
  5006  04AC                     u322_21:
  5007  04AC  1283               	bcf	status, 5	;RP0=0, select bank0
  5008  04AD  1303               	bcf	status, 6	;RP1=0, select bank0
  5009  04AE  1406               	bsf	(6),0	;volatile
  5010  04AF  2CB3               	goto	u323_24
  5011  04B0                     u322_20:
  5012  04B0  1283               	bcf	status, 5	;RP0=0, select bank0
  5013  04B1  1303               	bcf	status, 6	;RP1=0, select bank0
  5014  04B2  1006               	bcf	(6),0	;volatile
  5015  04B3                     u323_24:
  5016                           	line	130
  5017                           	
  5018  04B3                     i1l9055:	
  5019                           ;Interrupt.c: 130: Speed_LED_times = 0;
  5020  04B3  01B2               	clrf	(_Speed_LED_times)
  5021  04B4  01B3               	clrf	(_Speed_LED_times+1)
  5022  04B5  2CB8               	goto	i1l2039
  5023                           	line	131
  5024                           	
  5025  04B6                     i1l2038:	
  5026                           	line	132
  5027                           ;Interrupt.c: 131: }
  5028                           ;Interrupt.c: 132: }else PORTBbits.RB0 = 1;asm ("NOP");
  5029  04B6  2CB8               	goto	i1l2039
  5030                           	
  5031  04B7                     i1l2037:	
  5032  04B7  1406               	bsf	(6),0	;volatile
  5033                           	
  5034  04B8                     i1l2039:	
  5035                           # 132 "Interrupt.c"
  5036  04B8  0000               NOP ;#
  5037                           psect	text843
  5038                           	line	133
  5039                           ;Interrupt.c: 133: } else Flag_working_time = 0;
  5040  04B9  2CBF               	goto	i1l2041
  5041                           	
  5042  04BA                     i1l2035:	
  5043                           	
  5044  04BA                     i1l9057:	
  5045  04BA  1283               	bcf	status, 5	;RP0=0, select bank0
  5046  04BB  1303               	bcf	status, 6	;RP1=0, select bank0
  5047  04BC  01AC               	clrf	(_Flag_working_time)
  5048  04BD  01AD               	clrf	(_Flag_working_time+1)
  5049  04BE  2CBF               	goto	i1l2041
  5050                           	
  5051  04BF                     i1l2040:	
  5052                           	line	134
  5053                           	
  5054  04BF                     i1l2041:	
  5055  04BF  0008               	return
  5056                           	opt stack 0
  5057                           GLOBAL	__end_of_TMR1_int
  5058  04C0                     	__end_of_TMR1_int:
  5059 ;; =============== function _TMR1_int ends ============
  5060                           
  5061                           	signat	_TMR1_int,88
  5062                           	global	_TMR2_int
  5063                           psect	text844,local,class=CODE,delta=2
  5064                           global __ptext844
  5065  06B5                     __ptext844:
  5066                           
  5067 ;; *************** function _TMR2_int *****************
  5068 ;; Defined at:
  5069 ;;		line 136 in file "Interrupt.c"
  5070 ;; Parameters:    Size  Location     Type
  5071 ;;		None
  5072 ;; Auto vars:     Size  Location     Type
  5073 ;;		None
  5074 ;; Return value:  Size  Location     Type
  5075 ;;		None               void
  5076 ;; Registers used:
  5077 ;;		wreg, status,2
  5078 ;; Tracked objects:
  5079 ;;		On entry : 0/0
  5080 ;;		On exit  : 0/0
  5081 ;;		Unchanged: 0/0
  5082 ;; Data sizes:     COMMON   BANK0   BANK1   BANK3   BANK2
  5083 ;;      Params:         0       0       0       0       0
  5084 ;;      Locals:         0       0       0       0       0
  5085 ;;      Temps:          0       0       0       0       0
  5086 ;;      Totals:         0       0       0       0       0
  5087 ;;Total ram usage:        0 bytes
  5088 ;; Hardware stack levels used:    1
  5089 ;; This function calls:
  5090 ;;		Nothing
  5091 ;; This function is called by:
  5092 ;;		_com
  5093 ;; This function uses a non-reentrant model
  5094 ;;
  5095                           psect	text844
  5096                           	file	"Interrupt.c"
  5097                           	line	136
  5098                           	global	__size_of_TMR2_int
  5099  0019                     	__size_of_TMR2_int	equ	__end_of_TMR2_int-_TMR2_int
  5100                           	
  5101  06B5                     _TMR2_int:	
  5102                           	opt	stack 3
  5103                           ; Regs used in _TMR2_int: [wreg+status,2]
  5104                           	line	137
  5105                           	
  5106  06B5                     i1l8985:	
  5107                           ;Interrupt.c: 137: TMR2IF=0;
  5108  06B5  1283               	bcf	status, 5	;RP0=0, select bank0
  5109  06B6  1303               	bcf	status, 6	;RP1=0, select bank0
  5110  06B7  108C               	bcf	(97/8),(97)&7
  5111                           	line	138
  5112                           	
  5113  06B8                     i1l8987:	
  5114                           ;Interrupt.c: 138: TMR2=0;
  5115  06B8  0191               	clrf	(17)	;volatile
  5116                           	line	139
  5117                           	
  5118  06B9                     i1l8989:	
  5119                           ;Interrupt.c: 139: FG_Period_time++;
  5120  06B9  3001               	movlw	low(01h)
  5121  06BA  07A6               	addwf	(_FG_Period_time),f
  5122  06BB  1803               	skipnc
  5123  06BC  0AA7               	incf	(_FG_Period_time+1),f
  5124  06BD  3000               	movlw	high(01h)
  5125  06BE  07A7               	addwf	(_FG_Period_time+1),f
  5126                           	line	140
  5127                           	
  5128  06BF                     i1l8991:	
  5129                           ;Interrupt.c: 140: if(FG_Period_time >=300) FG_Period_time = 300;
  5130  06BF  3001               	movlw	high(012Ch)
  5131  06C0  0227               	subwf	(_FG_Period_time+1),w
  5132  06C1  302C               	movlw	low(012Ch)
  5133  06C2  1903               	skipnz
  5134  06C3  0226               	subwf	(_FG_Period_time),w
  5135  06C4  1C03               	skipc
  5136  06C5  2EC7               	goto	u304_21
  5137  06C6  2EC8               	goto	u304_20
  5138  06C7                     u304_21:
  5139  06C7  2ECD               	goto	i1l2045
  5140  06C8                     u304_20:
  5141                           	
  5142  06C8                     i1l8993:	
  5143  06C8  302C               	movlw	low(012Ch)
  5144  06C9  00A6               	movwf	(_FG_Period_time)
  5145  06CA  3001               	movlw	high(012Ch)
  5146  06CB  00A7               	movwf	((_FG_Period_time))+1
  5147  06CC  2ECD               	goto	i1l2045
  5148                           	
  5149  06CD                     i1l2044:	
  5150                           	line	141
  5151                           	
  5152  06CD                     i1l2045:	
  5153  06CD  0008               	return
  5154                           	opt stack 0
  5155                           GLOBAL	__end_of_TMR2_int
  5156  06CE                     	__end_of_TMR2_int:
  5157 ;; =============== function _TMR2_int ends ============
  5158                           
  5159                           	signat	_TMR2_int,88
  5160                           	global	_RBCN_int
  5161                           psect	text845,local,class=CODE,delta=2
  5162                           global __ptext845
  5163  0693                     __ptext845:
  5164                           
  5165 ;; *************** function _RBCN_int *****************
  5166 ;; Defined at:
  5167 ;;		line 143 in file "Interrupt.c"
  5168 ;; Parameters:    Size  Location     Type
  5169 ;;		None
  5170 ;; Auto vars:     Size  Location     Type
  5171 ;;  Sameple         1    1[COMMON] unsigned char 
  5172 ;; Return value:  Size  Location     Type
  5173 ;;		None               void
  5174 ;; Registers used:
  5175 ;;		wreg, status,2, status,0
  5176 ;; Tracked objects:
  5177 ;;		On entry : 0/0
  5178 ;;		On exit  : 0/0
  5179 ;;		Unchanged: 0/0
  5180 ;; Data sizes:     COMMON   BANK0   BANK1   BANK3   BANK2
  5181 ;;      Params:         0       0       0       0       0
  5182 ;;      Locals:         1       0       0       0       0
  5183 ;;      Temps:          1       0       0       0       0
  5184 ;;      Totals:         2       0       0       0       0
  5185 ;;Total ram usage:        2 bytes
  5186 ;; Hardware stack levels used:    1
  5187 ;; This function calls:
  5188 ;;		Nothing
  5189 ;; This function is called by:
  5190 ;;		_com
  5191 ;; This function uses a non-reentrant model
  5192 ;;
  5193                           psect	text845
  5194                           	file	"Interrupt.c"
  5195                           	line	143
  5196                           	global	__size_of_RBCN_int
  5197  0022                     	__size_of_RBCN_int	equ	__end_of_RBCN_int-_RBCN_int
  5198                           	
  5199  0693                     _RBCN_int:	
  5200                           	opt	stack 3
  5201                           ; Regs used in _RBCN_int: [wreg+status,2+status,0]
  5202                           	line	145
  5203                           	
  5204  0693                     i1l8969:	
  5205                           ;Interrupt.c: 144: unsigned char Sameple;
  5206                           ;Interrupt.c: 145: Sameple = PORTB;
  5207  0693  1283               	bcf	status, 5	;RP0=0, select bank0
  5208  0694  1303               	bcf	status, 6	;RP1=0, select bank0
  5209  0695  0806               	movf	(6),w	;volatile
  5210  0696  00F0               	movwf	(??_RBCN_int+0)+0
  5211  0697  0870               	movf	(??_RBCN_int+0)+0,w
  5212  0698  00F1               	movwf	(RBCN_int@Sameple)
  5213                           	line	146
  5214                           	
  5215  0699                     i1l8971:	
  5216                           ;Interrupt.c: 146: RBIF=0;
  5217  0699  100B               	bcf	(88/8),(88)&7
  5218                           	line	147
  5219                           	
  5220  069A                     i1l8973:	
  5221                           ;Interrupt.c: 147: FG_CN_Count++;
  5222  069A  3001               	movlw	(01h)
  5223  069B  00F0               	movwf	(??_RBCN_int+0)+0
  5224  069C  0870               	movf	(??_RBCN_int+0)+0,w
  5225  069D  07F7               	addwf	(_FG_CN_Count),f
  5226                           	line	148
  5227                           	
  5228  069E                     i1l8975:	
  5229                           ;Interrupt.c: 148: if(FG_CN_Count==3)
  5230  069E  0877               	movf	(_FG_CN_Count),w
  5231  069F  3A03               	xorlw	03h
  5232  06A0  1D03               	skipz
  5233  06A1  2EA3               	goto	u303_21
  5234  06A2  2EA4               	goto	u303_20
  5235  06A3                     u303_21:
  5236  06A3  2EB2               	goto	i1l2048
  5237  06A4                     u303_20:
  5238                           	line	150
  5239                           	
  5240  06A4                     i1l8977:	
  5241                           ;Interrupt.c: 149: {
  5242                           ;Interrupt.c: 150: FG_CN_Count=0;
  5243  06A4  01F7               	clrf	(_FG_CN_Count)
  5244                           	line	151
  5245                           ;Interrupt.c: 151: TMR2ON=0;
  5246  06A5  1112               	bcf	(146/8),(146)&7
  5247                           	line	152
  5248                           	
  5249  06A6                     i1l8979:	
  5250                           ;Interrupt.c: 152: Flag_FG_Period=1;
  5251  06A6  01D1               	clrf	(_Flag_FG_Period)
  5252  06A7  1403               	bsf	status,0
  5253  06A8  0DD1               	rlf	(_Flag_FG_Period),f
  5254                           	line	153
  5255                           	
  5256  06A9                     i1l8981:	
  5257                           ;Interrupt.c: 153: Flag_FG_Period_time=FG_Period_time;
  5258  06A9  0827               	movf	(_FG_Period_time+1),w
  5259  06AA  01A9               	clrf	(_Flag_FG_Period_time+1)
  5260  06AB  07A9               	addwf	(_Flag_FG_Period_time+1)
  5261  06AC  0826               	movf	(_FG_Period_time),w
  5262  06AD  01A8               	clrf	(_Flag_FG_Period_time)
  5263  06AE  07A8               	addwf	(_Flag_FG_Period_time)
  5264                           
  5265                           	line	154
  5266                           	
  5267  06AF                     i1l8983:	
  5268                           ;Interrupt.c: 154: FG_Period_time=0;
  5269  06AF  01A6               	clrf	(_FG_Period_time)
  5270  06B0  01A7               	clrf	(_FG_Period_time+1)
  5271                           	line	155
  5272                           ;Interrupt.c: 155: }
  5273  06B1  2EB4               	goto	i1l2050
  5274                           	line	156
  5275                           	
  5276  06B2                     i1l2048:	
  5277                           	line	158
  5278                           ;Interrupt.c: 156: else
  5279                           ;Interrupt.c: 157: {
  5280                           ;Interrupt.c: 158: TMR2ON=1;
  5281  06B2  1512               	bsf	(146/8),(146)&7
  5282  06B3  2EB4               	goto	i1l2050
  5283                           	line	159
  5284                           	
  5285  06B4                     i1l2049:	
  5286                           	line	161
  5287                           	
  5288  06B4                     i1l2050:	
  5289  06B4  0008               	return
  5290                           	opt stack 0
  5291                           GLOBAL	__end_of_RBCN_int
  5292  06B5                     	__end_of_RBCN_int:
  5293 ;; =============== function _RBCN_int ends ============
  5294                           
  5295                           	signat	_RBCN_int,88
  5296                           psect	text846,local,class=CODE,delta=2
  5297                           global __ptext846
  5298  0000                     __ptext846:
  5299                           	global	btemp
  5300  007E                     	btemp set 07Eh
  5301                           
  5302                           	DABS	1,126,2	;btemp
  5303                           	global	wtemp0
  5304  007E                     	wtemp0 set btemp


HI-TECH Software PICC Macro Assembler V9.82 build 9453 
Symbol Table                                                                                   Wed Nov 20 17:49:17 2019

                            _GO 00F9                              _RD 0C60                              _WR 0C61  
                            fsr 0004                             l970 06F8                             l973 06E3  
                           l982 071E                             l967 075A                             l991 0616  
                           l976 072E                             l985 073C                             l979 0746  
                           _GIE 005F                             l988 0755                             _PR2 0092  
                           _PEN 048A                             _SEN 0488                             _kai 0044  
                           _com 0617                             fsr0 0004                             indf 0000  
                 _Key_Run_times 0078                            l3100 01BB                            l3101 01F1  
                          l3110 0213                            l3102 01F0                            l3111 0214  
                          l3103 01DF                            l3112 0218                            l3104 01EF  
                          l3113 0219                            l3105 0217                            l3114 0219  
                          l3106 01FE                            l3107 0216                            l3108 0215  
                          l3117 066D                            l3109 0209                            l4112 04C2  
                          l3080 006E                            l4113 04C1                            l3081 00AA  
                          l3073 0024                            l4114 04C8                            l3090 0123  
                          l3082 00A9                            l3074 002D                            l4115 04F2  
                          l3091 01F2                            l3083 00D9                            l3075 0030  
                          l5100 036A                            l4116 051A                            l3092 01BE  
                          l3084 00B8                            l3076 0040                            l5101 0353  
                          l4117 051B                            l4109 031A                            l3093 0175  
                          l3085 00D8                            l3077 004A                            l5110 03C8  
                          l5102 036A                            l3094 0138                            l3086 00D7  
                          l3078 004A                            l5111 03CF                            l5103 0371  
                          l3095 017C                            l3087 00D3                            l3079 0055  
                          ?_com 0070                            l5120 06FA                            l5112 03EE  
                          l5104 0399                            l3096 018D                            l3088 00D6  
                          l5121 070C                            l5113 03D8                            l5105 0382  
                          l3097 01BD                            l3089 00F4                            l5130 05E4  
                          l5122 070C                            l5114 03EE                            l5106 0399  
                          l3098 01BC                            l5115 03F5                            l5107 03A0  
                          l3099 01AB                            l5116 03FA                            l5108 03C8  
                          l5125 05D9                            l5109 03B1                            l5126 05B6  
                          l5127 05C3                            l5119 0703                            l5128 05D3  
                          l5129 05E4                            l6115 058D                            l6116 058D  
                          l6117 0592                            l6118 05B0                            l5096 033B  
                          l5097 0325                            l5098 033B                            l5099 0342  
                          l7060 0536                            l7061 052A                            l7062 053B  
                          l7063 053C                            l7064 0555                            l7065 0563  
                          l7066 056B                            l7059 0564                            _ADIE 0466  
                          _ADIF 0066                            l9501 06DE                            l9503 06E1  
                          l9511 0729                            l9505 06E2                            l9513 072C  
                          l9521 0710                            l9507 071F                            l9515 073D  
                          l9531 071A                            l9523 0711                            _ADON 00F8  
                          l9509 0723                            l9517 0745                            l9533 071D  
                          l9525 0712                            l9541 0738                            l9621 0703  
                          l9701 03A4                            l9527 0713                            l9519 070D  
                          l9543 073B                            l9535 072F                            l9551 056F  
                          l9631 0531                            l9623 051C                            l9711 03C7  
                          l9703 03A5                            l9481 06E4                            l9529 0717  
                          l9537 0733                            l9545 074F                            l9561 0588  
                          l9553 0573                            l9617 06F9                            l9641 0555  
                          l9633 0536                            l9625 0520                            l9721 03DF  
                          l9713 03CF                            l9705 03A7                            l9801 029B  
                          l9483 06E8                            l9491 06CE                            l9539 0737  
                          l9547 0753                            l9571 05B0                            l9563 058B  
                          l9555 057F                            l9619 06FA                            l9643 055C  
                          l9635 053C                            l9627 0526                            l9651 060D  
                          l9723 03ED                            l9715 03D3                            l9707 03B1  
                          l9731 064D                            l9811 02F7                            l9803 02B2  
                          l9485 06EC                            l9493 06D6                            l9549 0754  
                          l9565 0592                            l9557 0582                            l9581 05C3  
                          l9573 05B1                            l9637 054D                            l9629 052A  
                          l9645 0564                            l9653 060E                            l9725 03F5  
                          l9717 03D4                            l9709 03B9                            l9661 0320  
                          l9741 0656                            l9733 0651                            l9813 0302  
                          l9805 02BD                            l9901 011E                            l9821 001A  
                          l9479 0756                            l9487 06F1                            l9495 06D7  
                          l9567 059D                            l9559 0585                            l9583 05D3  
                          l9575 05B6                            l9647 056B                            l9639 0553  
                          l9655 0611                            l9727 03F9                            l9719 03D8  
                          l9671 0342                            l9663 0321                            l9751 0669  
                          l9743 0661                            l9735 0652                            l9815 0316  
                          l9807 02D4                            l9911 0133                            l9903 011F  
                          l9831 003B                            l9823 0024                            l9489 06F5  
                          l9497 06DA                            l9569 05A9                            l9577 05B8  
                          l9657 0612                            l9649 05E5                            l9681 035B  
                          l9673 0346                            l9665 0325                            l9753 066A  
                          l9745 0664                            l9737 0654                            l9729 0646  
                          l9761 04D3                            l9817 0319                            l9809 02E0  
                          l9921 0161                            l9913 0138                            l9905 0123  
                          l9841 0055                            l9833 0040                            l9825 002A  
                          l9499 06DD                            l9579 05C2                            l9691 0378  
                          l9683 0369                            l9675 0347                            l9667 032C  
                          l9659 031E                            l9747 0665                            l9739 0655  
                          l9763 04DB                            l9771 04F2                            l9755 04C0  
                          l9931 018D                            l9915 013E                            l9923 0175  
                          l9907 0127                            l9851 008E                            l9843 0063  
                          l9835 0047                            l9827 0030                            l9819 0015  
                          l9693 0382                            l9685 0371                            l9677 0349  
                          l9669 033A                            l9749 0668                            l9781 0515  
                          l9773 04FB                            l9765 04DF                            l9757 04C2  
                          l9941 01AB                            l9933 0195                            l9925 017C  
                          l9917 014A                            l9909 012D                            l9861 00B8  
                          l9853 0092                            l9845 0067                            l9837 004D  
                          l9829 0035                            l9695 038A                            l9687 0375  
                          l9679 0353                            l9775 0503                            l9783 051A  
                          l9767 04E3                            l9759 04CA                            l9791 024A  
                          l9951 01C7                            l9943 01AC                            l9935 019D  
                          l9927 0181                            l9919 0155                            l9871 00E1  
                          l9863 00C3                            l9855 009F                            l9839 0054  
                          l9847 006E                            l9697 0398                            l9689 0376  
                          l9777 0507                            l9769 04ED                            l9793 0256  
                          l9785 021C                            l9961 01E9                            l9953 01D4  
                          l9945 01B5                            l9937 01A2                            l9929 0187  
                          l9881 0101                            l9873 00E6                            l9865 00CC  
                          l9857 00AA                            l9849 0085                            l9699 03A0  
                          l9779 050B                            l9795 026D                            l9787 0228  
                          l9963 01F6                            l9955 01D9                            l9939 01A7  
                          l9947 01BE                            l9891 0115                            l9883 0103  
                          l9875 00F0                            l9867 00D0                            l9859 00B5  
                          l9797 0278                            l9789 0233                            l9965 0202  
                          l9957 01DF                            l9949 01C6                            l9893 0116  
                          l9885 010E                            l9877 00F4                            l9869 00D9  
                          l9799 028F                            l9967 0209                            l9959 01E0  
                          l9895 0119                            l9887 0111                            l9879 00FC  
                          l9897 011A                            l9889 0112                            l9899 011D  
                          _T0IE 005D                            _IOCB 0096                            u4000 0368  
                          u4001 0367                            u4010 0370                            u4011 036F  
                          u4020 0397                            u4100 04FB                            u4021 0396  
                          u4005 0364                            u4101 04FA                            u4030 039F  
                          u4110 002A                            u4031 039E                            u4111 0029  
                          u4040 03C6                            u4120 0035                            u4041 03C5  
                          u4025 0393                            u4121 0034                            u4050 03CE  
                          u4210 00B5                            u4130 003B                            u4051 03CD  
                          u4211 00B4                            u4131 003A                            u4060 03EC  
                          u4300 012D                            u4220 00C3                            u4204 009F  
                          u4140 0047                            u4061 03EB                            u4045 03C2  
                          u4301 012C                            u4221 00C2                            u4141 0046  
                          u4070 03F4                            u4310 0133                            u4230 00CC  
                          u4150 0053                            u4071 03F3                            u4311 0132  
                          u4231 00CB                            u4151 0052                            u4080 04C8  
                          u4400 01E9                            u4320 017B                            u4240 00D0  
                          u4160 006D                            u4065 03E8                            u4401 01E8  
                          u4241 00CF                            u4161 006C                            u4090 04D3  
                          u4410 01F6                            u4330 0181                            u4250 00E1  
                          u4170 008E                            u4091 04D2                            u4411 01F5  
                          u4331 0180                            u4251 00E0                            u4171 008D  
                          u4420 0202                            u4340 0187                            u4260 00E6  
                          u4180 0092                            u4421 0201                            u4341 0186  
                          u4261 00E5                            u4181 0091                            u4430 0208  
                          u4350 0195                            u4270 00FC                            u4190 009C  
                          u4431 0207                            u4351 0194                            u4271 00FB  
                          u4191 0098                            u4360 019D                            u4280 0101  
                          u4361 019C                            u4281 0100                            u4370 01B5  
                          u4290 0127                            u4371 01B4                            u4291 0126  
                          _PEIE 005E                            u3900 070B                            u4380 01C6  
                          u3901 070A                            u4381 01C5                            u3910 0526  
                          u4390 01D4                            u3911 0525                            u4391 01D3  
                          _RBIE 005B                            _RBIF 0058                            u3850 0591  
                          u3930 053A                            u3851 0590                            u3931 0539  
                          u3860 05C1                            u3845 0576                            u3861 05C0  
                          u3925 052B                            u3870 05D2                            u3950 054D  
                          u3871 05D1                            u3951 054C                            u3880 05E3  
                          u3881 05E2                            u3945 053D                            u3970 0562  
                          u3971 0561                            u3955 0549                            u3980 0339  
                          u3885 05DF                            u3965 0556                            u3981 0338  
                          u3990 0341                            u3991 0340                            u3985 0335  
                          _TMR0 0001                            _TMR1 000E                            _TMR2 0011  
                          _WREN 0C62                            _VOLT 004F                            _Once 0039  
                          _main 0015                   ??_InitDevices 0045                            btemp 007E  
            _REALVOLTAGE_BAT_DC 0030                            start 0012          __size_of_InitialiseADC 0016  
               __end_of_ReadADC 05B1                           ??_com 0072                __end_of_IIC_init 072F  
                         ?_main 0070                           _EEADR 010D                           _CARRY 0018  
              __end_of_RBCN_int 06B5                           _ANSEL 0188                           _T1CON 0010  
                         _T2CON 0012                 __end_of___lwdiv 056C           _Motor_adjusting_speed 04C0  
                         _PORTA 0005                           _PORTB 0006                           _PORTC 0007  
                         _TRISA 0085                           _TRISB 0086                           _TRISC 0087  
                         _SSPIF 0063                           _Delay 06F9                           _adsum 0043  
              __end_of_TMR1_int 04C0                __end_of_TMR2_int 06CE                           main@i 004E  
                __pbitbssCOMMON 03D8                           pclath 000A                      _Count_Flag 0076  
                         status 0003                           wtemp0 007E                      _InitTimer0 073D  
                    _InitTimer1 070D                      _InitTimer2 072F                    __end_of_main 021C  
           __end_of_InitDevices 0617                          ??_main 004D                          ?_Delay 0045  
                 _InitialiseADC 06CE                __end_of_PortInit 06F9                          _ADCON0 001F  
                        _ADCON1 009F                          _ADRESH 001E                          _ADRESL 009E  
                        _EEDATA 010C                          _EECON1 018C                          _EECON2 018D  
                        _ANSELH 0189                          i1l2020 0639                          i1l2021 0639  
                        i1l2030 0446                          i1l2031 0463                          i1l2040 04BF  
                        i1l2032 0462                          i1l2024 043C                          i1l2041 04BF  
                        i1l2033 0465                          i1l2025 041C                          i1l2050 06B4  
                        i1l2034 0472                          i1l2026 0439                          i1l2018 0621  
                        i1l2035 04BA                          i1l2027 0438                          i1l2019 062D  
                        i1l2044 06CD                          i1l2036 0490                          i1l2028 043B  
                        i1l2045 06CD                          i1l2037 04B7                          i1l2029 0466  
                        i1l2038 04B6                          i1l2039 04B8                          i1l2048 06B2  
                        i1l2049 06B4                          u300_20 061B                          u300_21 061A  
                        u301_20 0627                          i1l9001 040C                          u301_21 0626  
                        Delay@n 0045                          i1l9011 0425                          i1l9003 0412  
                        i1l9013 0429                          i1l9005 0417                          i1l9021 043C  
                        i1l9031 0453                          i1l9023 0441                          i1l9015 042F  
                        i1l9007 041B                          u310_20 0425                          u302_20 0633  
                        i1l9041 046C                          i1l9033 0459                          i1l9025 0445  
                        i1l9017 0433                          u310_21 0424                          i1l9009 0420  
                        u302_21 0632                          i1l9051 0499                          i1l9043 0478  
                        i1l9035 045D                          i1l9027 044A                          i1l9019 0434  
                        i1l9053 04A6                          i1l9045 0487                          i1l9037 045E  
                        i1l9029 044F                          i1l9055 04B3                          i1l9047 048D  
                        i1l9039 0466                          u303_20 06A4                          u311_20 042F  
                        u303_21 06A3                          i1l9049 0490                          i1l9057 04BA  
                        u311_21 042E                          u304_20 06C8                          u320_20 0499  
                        u312_20 0441                          u304_21 06C7                          u320_21 0498  
                        u312_21 0440                          u321_20 04A6                          u313_20 0445  
                        u305_20 040C                          u321_21 04A5                          u313_21 0444  
                        u305_21 040B                          u322_20 04B0                          u314_20 044A  
                        u306_20 0412                          u322_21 04AC                          u314_21 0449  
                        u306_21 0411                          i1l8961 0621                          i1l8971 0699  
                        i1l8963 0627                          i1l8981 06A9                          i1l8973 069A  
                        i1l8965 062D                          i1l8957 0617                          i1l8983 06AF  
                        i1l8975 069E                          i1l8991 06BF                          i1l8967 0633  
                        i1l8959 061B                          u315_20 044F                          u307_20 0417  
                        i1l8977 06A4                          i1l8969 0693                          i1l8993 06C8  
                        i1l8985 06B5                          u315_21 044E                          u307_21 0416  
                        i1l8979 06A6                          i1l8987 06B8                          i1l8995 03FB  
                        u323_24 04B3                          i1l8989 06B9                          i1l8997 0403  
                        i1l8999 0408                          u316_20 0459                          u308_20 041B  
                        u316_21 0458                          u308_21 041A                          u317_20 046C  
                        u309_20 0420                          u317_21 046B                          u309_21 041F  
                        u318_20 0478                          u318_21 0477                          u319_20 0487  
                        u319_21 0486                          _OSCCON 008F                          _TMR1IE 0460  
                        _TMR1IF 0060                          _TMR1CS 0081                          _TMR2IE 0461  
                        _TMR2IF 0061                          _TMR1ON 0080                          _TMR2ON 0092  
                        _WDTCON 0105                          _SSPADD 0093                          _TRISC3 043B  
                        _TRISC4 043C                          _SSPCON 0014                          _SSPBUF 0013  
                        _VOLT_H 0041                          _VOLT_L 0042                       ??_ReadADC 0047  
              __end_of_delaynms 05E5                          _InitCn 074F                          _Key_Up 0038  
                    _MotorClose 021C              __size_of_The_Close 0028                       ??___lwdiv 0049  
        ?_Motor_adjusting_speed 0070                          clrloop 0748                  ?_InitialiseADC 0070  
                        saved_w 007E                      _Start_Flag 003E                       ?_IIC_init 0070  
                   _InitDevices 05E5                       ?_RBCN_int 0070                   __end_of_Delay 070D  
                   ?_InitTimer0 0070                     ?_InitTimer1 0070                     ?_InitTimer2 0070  
                __pcstackCOMMON 0070                    __pidataBANK0 075B                       ?_TMR1_int 0070  
                     ?_TMR2_int 0070              ReadADC@ADC_Channel 0049                         ??_Delay 0047  
             __end_of_The_Close 066E                      __pbssBANK0 0020                ReadADC@ADC_VALUE 0020  
                    ??_IIC_init 0045                      ??_RBCN_int 0070                         ?_InitCn 0070  
                   ?_MotorClose 0070                      __pmaintext 0015                       ?_PortInit 0070  
                    __pintentry 0004                      ??_TMR1_int 0070                      ??_TMR2_int 0070  
                       _ADC_Val 0022                  _ADC_RESULT_BAT 0034                 ??_InitialiseADC 0045  
                   _Onekey_Flag 003A                         _GO_DONE 00F9                       ?_delaynms 0045  
                     TMR1_int@t 0071                  _FG_Period_time 0026                         _SSPCON2 0091  
           __size_of_InitTimer0 000A             __size_of_InitTimer1 0012             __size_of_InitTimer2 000E  
                       _SSPSTAT 0094                write_IIC@wdate_H 0048                write_IIC@wdate_L 0047  
                       _ReadADC 056C              __size_of_write_IIC 00E0                         _Key_Run 0037  
               RBCN_int@Sameple 0071                 __size_of_InitCn 0007              __size_of_systemOSC 0005  
                       _Not_two 0079                      ??_PortInit 0045                _Open_Cover_times 002E  
          _Flag_adjusting_speed 002A                   _BAT_LED_times 0024                         ___lwdiv 051C  
             _Start_KeyRun_Flag 003F                       _T1CONbits 0010                    __size_of_com 002F  
                 _Onekey_Key_Up 003B                      ??_delaynms 0047             __size_of_MotorClose 00FF  
          end_of_initialization 068F                       _RELAY_BAT 03D9         ??_Motor_adjusting_speed 004B  
                     _PORTAbits 0005                       _PORTBbits 0006                       _PORTCbits 0007  
             __end_of_write_IIC 03FB                    _Forbid_input 0035               __end_of_systemOSC 075B  
               _Speed_LED_times 0032                    ?_InitDevices 0070               __size_of_IIC_init 0010  
                  ??_InitTimer0 0045                    ??_InitTimer1 0045                    ??_InitTimer2 0045  
                __end_of_InitCn 0756               __size_of_RBCN_int 0022               __size_of_TMR1_int 00C5  
             __size_of_TMR2_int 0019             start_initialization 066E                     __end_of_com 0646  
                  _Initial_Flag 0036              __end_of_InitTimer0 0747              __end_of_InitTimer1 071F  
            __end_of_InitTimer2 073D                       _The_Close 0646                        ??_InitCn 0045  
                  ??_MotorClose 004B               _Flag_working_time 002C                     __pdataBANK0 004F  
             __size_of_PortInit 0015                       _Stop_Flag 0040                     __pbssCOMMON 0076  
                 __pcstackBANK0 0045                       _Work_Flag 007A              __end_of_MotorClose 031B  
             __size_of_delaynms 0034                      ?_The_Close 0070                        ?_ReadADC 0045  
              ___lwdiv@dividend 0047                       __ptext830 051C                       __ptext831 06F9  
                     __ptext840 06E4                       __ptext832 05B1                       __ptext841 0756  
                     __ptext833 056C                       __ptext825 021C                       __ptext842 0617  
                     __ptext834 074F                       __ptext826 04C0                       __ptext843 03FB  
                     __ptext835 072F                       __ptext827 0646                       __ptext844 06B5  
                     __ptext836 070D                       __ptext828 031B                       __ptext845 0693  
                     __ptext837 073D                       __ptext829 05E5                       __ptext846 0000  
                     __ptext838 071F                       __ptext839 06CE                        ?___lwdiv 0045  
         __end_of_InitialiseADC 06E4                 _Open_Cover_Flag 003D                  __size_of_Delay 0014  
              ___lwdiv@quotient 004B               interrupt_function 0004                        _IIC_init 071F  
                     delaynms@i 0047                       delaynms@j 0049                       delaynms@n 0045  
                   _FG_CN_Count 0077                    _Onekey_times 003C                        _RBCN_int 0693  
                      _RELAY_AC 03D8            __size_of_InitDevices 0032                        _TMR1_int 03FB  
                      _TMR2_int 06B5  __size_of_Motor_adjusting_speed 005C   __end_of_Motor_adjusting_speed 051C  
                     _write_IIC 031B                       _systemOSC 0756                     ??_The_Close 004B  
              __size_of_ReadADC 0045                        _PortInit 06E4                __size_of___lwdiv 0050  
               ___lwdiv@divisor 0045                        _delaynms 05B1                 ___lwdiv@counter 004A  
                    ?_write_IIC 0047                      ?_systemOSC 0070                   __size_of_main 0207  
                      clear_ram 0747                      write_IIC@t 0049                        intlevel1 0000  
                    _OPTION_REG 0081             _Flag_FG_Period_time 0028                     ??_write_IIC 0048  
                    _WDTCONbits 0105                     ??_systemOSC 0045                  _Flag_FG_Period 0051  
