

HI-TECH Software PIC LITE Macro Assembler V9.82 build 9453 
                                                                                               Tue Oct 15 16:16:17 2019

HI-TECH Software Omniscient Code Generator (Lite mode) build 9453
     1  0000                     opt subtitle "HI-TECH Software Omniscient Code Generator (Lite mode) build 9453"
     2                           
     3                           opt pagewidth 120
     4                           
     5                           	opt lm
     6                           
     7                           	processor	16F886
     8                           clrc	macro
     9                           	bcf	3,0
    10  0000                     	endm
    11                           clrz	macro
    12                           	bcf	3,2
    13  0000                     	endm
    14                           setc	macro
    15                           	bsf	3,0
    16  0000                     	endm
    17                           setz	macro
    18                           	bsf	3,2
    19  0000                     	endm
    20                           skipc	macro
    21                           	btfss	3,0
    22  0000                     	endm
    23                           skipz	macro
    24                           	btfss	3,2
    25  0000                     	endm
    26                           skipnc	macro
    27                           	btfsc	3,0
    28  0000                     	endm
    29                           skipnz	macro
    30                           	btfsc	3,2
    31  0000                     	endm
    32  0000                     indf	equ	0
    33  0000                     indf0	equ	0
    34  0002                     pc	equ	2
    35  0002                     pcl	equ	2
    36  0003                     status	equ	3
    37  0004                     fsr	equ	4
    38  0004                     fsr0	equ	4
    39  0001                     c	equ	1
    40  0000                     z	equ	0
    41  000A                     pclath	equ	10
    42                           # 13 "main.h"
    43                           	psect config,class=CONFIG,delta=2 ;#
    44                           # 13 "main.h"
    45  2007  EFF5               	dw 0xFFFD & 0xFFF7 & 0xFFFF & 0xFFFF & 0xFFFF & 0xFFFF & 0xFFFF & 0xFFFF & 0xFFFF & 0xE
                                 FFF ;#
    46                           # 14 "main.h"
    47                           	psect config,class=CONFIG,delta=2 ;#
    48                           # 14 "main.h"
    49  2008  FFFF               	dw 0xFFFF & 0xFFFF ;#
    50                           	FNCALL	_main,_InitDevices
    51                           	FNCALL	_main,_ReadADC
    52                           	FNCALL	_main,___lwdiv
    53                           	FNCALL	_main,_delaynms
    54                           	FNCALL	_main,_write_IIC
    55                           	FNCALL	_main,_Motor_adjusting_speed
    56                           	FNCALL	_main,_MotorClose
    57                           	FNCALL	_main,_The_Close
    58                           	FNCALL	_MotorClose,_write_IIC
    59                           	FNCALL	_MotorClose,_delaynms
    60                           	FNCALL	_Motor_adjusting_speed,_write_IIC
    61                           	FNCALL	_The_Close,_delaynms
    62                           	FNCALL	_write_IIC,_Delay
    63                           	FNCALL	_InitDevices,_systemOSC
    64                           	FNCALL	_InitDevices,_PortInit
    65                           	FNCALL	_InitDevices,_InitTimer1
    66                           	FNCALL	_InitDevices,_IIC_init
    67                           	FNCALL	_InitDevices,_InitialiseADC
    68                           	FNCALL	_InitDevices,_InitTimer2
    69                           	FNCALL	_InitDevices,_InitCn
    70                           	FNROOT	_main
    71                           	FNCALL	_com,_RBCN_int
    72                           	FNCALL	_com,_TMR2_int
    73                           	FNCALL	_com,_TMR1_int
    74                           	FNCALL	intlevel1,_com
    75                           	global	intlevel1
    76                           	FNROOT	intlevel1
    77                           	global	_VOLT
    78                           	global	_Flag_FG_Period
    79                           psect	idataBANK0,class=CODE,space=0,delta=2
    80                           global __pidataBANK0
    81  0718                     __pidataBANK0:
    82                           	file	"work.h"
    83                           	line	20
    84                           
    85                           ;initializer for _VOLT
    86  0718  347E               	retlw	07Eh
    87  0719  3404               	retlw	04h
    88                           
    89                           	file	"Interrupt.h"
    90                           	line	6
    91                           
    92                           ;initializer for _Flag_FG_Period
    93  071A  3401               	retlw	01h
    94                           	global	ReadADC@ADC_VALUE
    95                           	global	_ADC_Val
    96                           	global	_BAT_LED_times
    97                           	global	_FG_Period_time
    98                           	global	_Flag_FG_Period_time
    99                           	global	_Flag_adjusting_speed
   100                           	global	_Flag_working_time
   101                           	global	_Open_Cover_times
   102                           	global	_REALVOLTAGE_BAT_DC
   103                           	global	_Speed_LED_times
   104                           	global	_ADC_RESULT_BAT
   105                           	global	_Initial_Flag
   106                           	global	_Key_Run
   107                           	global	_Key_Up
   108                           	global	_Once
   109                           	global	_Onekey_Flag
   110                           	global	_Onekey_Key_Up
   111                           	global	_Onekey_times
   112                           	global	_Open_Cover_Flag
   113                           	global	_Start_Flag
   114                           	global	_Start_KeyRun_Flag
   115                           	global	_Stop_Flag
   116                           	global	_VOLT_H
   117                           	global	_VOLT_L
   118                           	global	_adsum
   119                           	global	_kai
   120                           	global	_Count_Flag
   121                           	global	_FG_CN_Count
   122                           	global	_Key_Run_times
   123                           	global	_Not_two
   124                           	global	_Work_Flag
   125                           	global	_RELAY_AC
   126                           	global	_RELAY_BAT
   127                           	global	_TMR1
   128  000E                     _TMR1	set	14
   129                           	global	_ADCON0
   130  001F                     _ADCON0	set	31
   131                           	global	_ADRESH
   132  001E                     _ADRESH	set	30
   133                           	global	_PORTA
   134  0005                     _PORTA	set	5
   135                           	global	_PORTAbits
   136  0005                     _PORTAbits	set	5
   137                           	global	_PORTB
   138  0006                     _PORTB	set	6
   139                           	global	_PORTBbits
   140  0006                     _PORTBbits	set	6
   141                           	global	_PORTC
   142  0007                     _PORTC	set	7
   143                           	global	_PORTCbits
   144  0007                     _PORTCbits	set	7
   145                           	global	_SSPBUF
   146  0013                     _SSPBUF	set	19
   147                           	global	_SSPCON
   148  0014                     _SSPCON	set	20
   149                           	global	_T1CON
   150  0010                     _T1CON	set	16
   151                           	global	_T1CONbits
   152  0010                     _T1CONbits	set	16
   153                           	global	_T2CON
   154  0012                     _T2CON	set	18
   155                           	global	_TMR0
   156  0001                     _TMR0	set	1
   157                           	global	_TMR2
   158  0011                     _TMR2	set	17
   159                           	global	_ADIF
   160  0066                     _ADIF	set	102
   161                           	global	_ADON
   162  00F8                     _ADON	set	248
   163                           	global	_CARRY
   164  0018                     _CARRY	set	24
   165                           	global	_GIE
   166  005F                     _GIE	set	95
   167                           	global	_GO
   168  00F9                     _GO	set	249
   169                           	global	_GO_DONE
   170  00F9                     _GO_DONE	set	249
   171                           	global	_PEIE
   172  005E                     _PEIE	set	94
   173                           	global	_RBIE
   174  005B                     _RBIE	set	91
   175                           	global	_RBIF
   176  0058                     _RBIF	set	88
   177                           	global	_SSPIF
   178  0063                     _SSPIF	set	99
   179                           	global	_T0IE
   180  005D                     _T0IE	set	93
   181                           	global	_TMR1CS
   182  0081                     _TMR1CS	set	129
   183                           	global	_TMR1IF
   184  0060                     _TMR1IF	set	96
   185                           	global	_TMR1ON
   186  0080                     _TMR1ON	set	128
   187                           	global	_TMR2IF
   188  0061                     _TMR2IF	set	97
   189                           	global	_TMR2ON
   190  0092                     _TMR2ON	set	146
   191                           	global	_ADCON1
   192  009F                     _ADCON1	set	159
   193                           	global	_ADRESL
   194  009E                     _ADRESL	set	158
   195                           	global	_IOCB
   196  0096                     _IOCB	set	150
   197                           	global	_OPTION_REG
   198  0081                     _OPTION_REG	set	129
   199                           	global	_OSCCON
   200  008F                     _OSCCON	set	143
   201                           	global	_PR2
   202  0092                     _PR2	set	146
   203                           	global	_SSPADD
   204  0093                     _SSPADD	set	147
   205                           	global	_SSPCON2
   206  0091                     _SSPCON2	set	145
   207                           	global	_SSPSTAT
   208  0094                     _SSPSTAT	set	148
   209                           	global	_TRISA
   210  0085                     _TRISA	set	133
   211                           	global	_TRISB
   212  0086                     _TRISB	set	134
   213                           	global	_TRISC
   214  0087                     _TRISC	set	135
   215                           	global	_ADIE
   216  0466                     _ADIE	set	1126
   217                           	global	_PEN
   218  048A                     _PEN	set	1162
   219                           	global	_SEN
   220  0488                     _SEN	set	1160
   221                           	global	_TMR1IE
   222  0460                     _TMR1IE	set	1120
   223                           	global	_TMR2IE
   224  0461                     _TMR2IE	set	1121
   225                           	global	_TRISC3
   226  043B                     _TRISC3	set	1083
   227                           	global	_TRISC4
   228  043C                     _TRISC4	set	1084
   229                           	global	_EEADR
   230  010D                     _EEADR	set	269
   231                           	global	_EEDATA
   232  010C                     _EEDATA	set	268
   233                           	global	_ANSEL
   234  0188                     _ANSEL	set	392
   235                           	global	_ANSELH
   236  0189                     _ANSELH	set	393
   237                           	global	_EECON1
   238  018C                     _EECON1	set	396
   239                           	global	_EECON2
   240  018D                     _EECON2	set	397
   241                           	global	_RD
   242  0C60                     _RD	set	3168
   243                           	global	_WR
   244  0C61                     _WR	set	3169
   245                           	global	_WREN
   246  0C62                     _WREN	set	3170
   247                           	file	"C:\Users\1\AppData\Local\Temp\semk."
   248                           	line	#
   249                           psect cinit,class=CODE,delta=2
   250                           global start_initialization
   251  0611                     start_initialization:
   252                           
   253                           psect	bitbssCOMMON,class=COMMON,bit,space=1
   254                           global __pbitbssCOMMON
   255  03D8                     __pbitbssCOMMON:
   256  03D8                     _RELAY_AC:
   257  03D8                            ds      1
   258                           
   259  03D9                     _RELAY_BAT:
   260  03D9                            ds      1
   261                           
   262                           psect	bssCOMMON,class=COMMON,space=1
   263                           global __pbssCOMMON
   264  0076                     __pbssCOMMON:
   265  0076                     _Count_Flag:
   266  0076                            ds      1
   267                           
   268  0077                     _FG_CN_Count:
   269  0077                            ds      1
   270                           
   271  0078                     _Key_Run_times:
   272  0078                            ds      1
   273                           
   274  0079                     _Not_two:
   275  0079                            ds      1
   276                           
   277  007A                     _Work_Flag:
   278  007A                            ds      1
   279                           
   280                           psect	bssBANK0,class=BANK0,space=1
   281                           global __pbssBANK0
   282  0020                     __pbssBANK0:
   283  0020                     ReadADC@ADC_VALUE:
   284  0020                            ds      2
   285                           
   286  0022                     _ADC_Val:
   287  0022                            ds      2
   288                           
   289  0024                     _BAT_LED_times:
   290  0024                            ds      2
   291                           
   292  0026                     _FG_Period_time:
   293  0026                            ds      2
   294                           
   295  0028                     _Flag_FG_Period_time:
   296  0028                            ds      2
   297                           
   298  002A                     _Flag_adjusting_speed:
   299  002A                            ds      2
   300                           
   301  002C                     _Flag_working_time:
   302  002C                            ds      2
   303                           
   304  002E                     _Open_Cover_times:
   305  002E                            ds      2
   306                           
   307  0030                     _REALVOLTAGE_BAT_DC:
   308  0030                            ds      2
   309                           
   310  0032                     _Speed_LED_times:
   311  0032                            ds      2
   312                           
   313  0034                     _ADC_RESULT_BAT:
   314  0034                            ds      1
   315                           
   316  0035                     _Initial_Flag:
   317  0035                            ds      1
   318                           
   319  0036                     _Key_Run:
   320  0036                            ds      1
   321                           
   322  0037                     _Key_Up:
   323  0037                            ds      1
   324                           
   325  0038                     _Once:
   326  0038                            ds      1
   327                           
   328  0039                     _Onekey_Flag:
   329  0039                            ds      1
   330                           
   331  003A                     _Onekey_Key_Up:
   332  003A                            ds      1
   333                           
   334  003B                     _Onekey_times:
   335  003B                            ds      1
   336                           
   337  003C                     _Open_Cover_Flag:
   338  003C                            ds      1
   339                           
   340  003D                     _Start_Flag:
   341  003D                            ds      1
   342                           
   343  003E                     _Start_KeyRun_Flag:
   344  003E                            ds      1
   345                           
   346  003F                     _Stop_Flag:
   347  003F                            ds      1
   348                           
   349  0040                     _VOLT_H:
   350  0040                            ds      1
   351                           
   352  0041                     _VOLT_L:
   353  0041                            ds      1
   354                           
   355  0042                     _adsum:
   356  0042                            ds      1
   357                           
   358  0043                     _kai:
   359  0043                            ds      1
   360                           
   361                           psect	dataBANK0,class=BANK0,space=1
   362                           global __pdataBANK0
   363  004E                     __pdataBANK0:
   364                           	file	"work.h"
   365                           	line	20
   366  004E                     _VOLT:
   367  004E                            ds      2
   368                           
   369                           psect	dataBANK0
   370                           	file	"Interrupt.h"
   371                           	line	6
   372  0050                     _Flag_FG_Period:
   373  0050                            ds      1
   374                           
   375                           psect clrtext,class=CODE,delta=2
   376                           global clear_ram
   377                           ;	Called with FSR containing the base address, and
   378                           ;	W with the last address+1
   379  0704                     clear_ram:
   380  0704  0064               	clrwdt			;clear the watchdog before getting into this loop
   381  0705                     clrloop:
   382  0705  0180               	clrf	indf		;clear RAM location pointed to by FSR
   383  0706  0A84               	incf	fsr,f		;increment pointer
   384  0707  0604               	xorwf	fsr,w		;XOR with final address
   385  0708  1903               	btfsc	status,2	;have we reached the end yet?
   386  0709  3400               	retlw	0		;all done for this memory range, return
   387  070A  0604               	xorwf	fsr,w		;XOR again to restore value
   388  070B  2F05               	goto	clrloop		;do the next byte
   389                           
   390                           ; Clear objects allocated to BITCOMMON
   391                           psect cinit,class=CODE,delta=2
   392  0611  01FB               	clrf	((__pbitbssCOMMON/8)+0)&07Fh
   393                           ; Clear objects allocated to COMMON
   394                           psect cinit,class=CODE,delta=2
   395  0612  01F6               	clrf	((__pbssCOMMON)+0)&07Fh
   396  0613  01F7               	clrf	((__pbssCOMMON)+1)&07Fh
   397  0614  01F8               	clrf	((__pbssCOMMON)+2)&07Fh
   398  0615  01F9               	clrf	((__pbssCOMMON)+3)&07Fh
   399  0616  01FA               	clrf	((__pbssCOMMON)+4)&07Fh
   400                           ; Clear objects allocated to BANK0
   401                           psect cinit,class=CODE,delta=2
   402  0617  1383               	bcf	status, 7	;select IRP bank0
   403  0618  3020               	movlw	low(__pbssBANK0)
   404  0619  0084               	movwf	fsr
   405  061A  3044               	movlw	low((__pbssBANK0)+024h)
   406  061B  120A  118A  2704   	fcall	clear_ram
              120A  118A         
   407                           ; Initialize objects allocated to BANK0
   408                           	global __pidataBANK0
   409                           psect cinit,class=CODE,delta=2
   410  0620  120A  118A  2718   	fcall	__pidataBANK0+0		;fetch initializer
              120A  118A         
   411  0625  00CE               	movwf	__pdataBANK0+0&07fh		
   412  0626  120A  118A  2719   	fcall	__pidataBANK0+1		;fetch initializer
              120A  118A         
   413  062B  00CF               	movwf	__pdataBANK0+1&07fh		
   414  062C  120A  118A  271A   	fcall	__pidataBANK0+2		;fetch initializer
              120A  118A         
   415  0631  00D0               	movwf	__pdataBANK0+2&07fh		
   416                           psect cinit,class=CODE,delta=2
   417                           global end_of_initialization
   418                           
   419                           ;End of C runtime variable initialization code
   420                           
   421  0632                     end_of_initialization:
   422  0632  0183               clrf status
   423  0633  120A  118A  2815   ljmp _main	;jump to C main() function
   424                           psect	cstackCOMMON,class=COMMON,space=1
   425                           global __pcstackCOMMON
   426  0070                     __pcstackCOMMON:
   427                           	global	?_RBCN_int
   428  0070                     ?_RBCN_int:	; 0 bytes @ 0x0
   429                           	global	??_RBCN_int
   430  0070                     ??_RBCN_int:	; 0 bytes @ 0x0
   431                           	global	?_TMR2_int
   432  0070                     ?_TMR2_int:	; 0 bytes @ 0x0
   433                           	global	??_TMR2_int
   434  0070                     ??_TMR2_int:	; 0 bytes @ 0x0
   435                           	global	?_TMR1_int
   436  0070                     ?_TMR1_int:	; 0 bytes @ 0x0
   437                           	global	??_TMR1_int
   438  0070                     ??_TMR1_int:	; 0 bytes @ 0x0
   439                           	global	?_Motor_adjusting_speed
   440  0070                     ?_Motor_adjusting_speed:	; 0 bytes @ 0x0
   441                           	global	?_MotorClose
   442  0070                     ?_MotorClose:	; 0 bytes @ 0x0
   443                           	global	?_The_Close
   444  0070                     ?_The_Close:	; 0 bytes @ 0x0
   445                           	global	?_systemOSC
   446  0070                     ?_systemOSC:	; 0 bytes @ 0x0
   447                           	global	?_PortInit
   448  0070                     ?_PortInit:	; 0 bytes @ 0x0
   449                           	global	?_InitialiseADC
   450  0070                     ?_InitialiseADC:	; 0 bytes @ 0x0
   451                           	global	?_IIC_init
   452  0070                     ?_IIC_init:	; 0 bytes @ 0x0
   453                           	global	?_InitTimer1
   454  0070                     ?_InitTimer1:	; 0 bytes @ 0x0
   455                           	global	?_InitTimer2
   456  0070                     ?_InitTimer2:	; 0 bytes @ 0x0
   457                           	global	?_InitCn
   458  0070                     ?_InitCn:	; 0 bytes @ 0x0
   459                           	global	?_InitDevices
   460  0070                     ?_InitDevices:	; 0 bytes @ 0x0
   461                           	global	?_com
   462  0070                     ?_com:	; 0 bytes @ 0x0
   463                           	global	?_main
   464  0070                     ?_main:	; 0 bytes @ 0x0
   465  0070                     	ds	1
   466                           	global	TMR1_int@t
   467  0071                     TMR1_int@t:	; 1 bytes @ 0x1
   468                           	global	RBCN_int@Sameple
   469  0071                     RBCN_int@Sameple:	; 1 bytes @ 0x1
   470  0071                     	ds	1
   471                           	global	??_com
   472  0072                     ??_com:	; 0 bytes @ 0x2
   473  0072                     	ds	4
   474                           psect	cstackBANK0,class=BANK0,space=1
   475                           global __pcstackBANK0
   476  0044                     __pcstackBANK0:
   477                           	global	?_delaynms
   478  0044                     ?_delaynms:	; 0 bytes @ 0x0
   479                           	global	?_Delay
   480  0044                     ?_Delay:	; 0 bytes @ 0x0
   481                           	global	??_systemOSC
   482  0044                     ??_systemOSC:	; 0 bytes @ 0x0
   483                           	global	??_PortInit
   484  0044                     ??_PortInit:	; 0 bytes @ 0x0
   485                           	global	??_InitialiseADC
   486  0044                     ??_InitialiseADC:	; 0 bytes @ 0x0
   487                           	global	??_IIC_init
   488  0044                     ??_IIC_init:	; 0 bytes @ 0x0
   489                           	global	??_InitTimer1
   490  0044                     ??_InitTimer1:	; 0 bytes @ 0x0
   491                           	global	??_InitTimer2
   492  0044                     ??_InitTimer2:	; 0 bytes @ 0x0
   493                           	global	??_InitCn
   494  0044                     ??_InitCn:	; 0 bytes @ 0x0
   495                           	global	??_InitDevices
   496  0044                     ??_InitDevices:	; 0 bytes @ 0x0
   497                           	global	?_ReadADC
   498  0044                     ?_ReadADC:	; 2 bytes @ 0x0
   499                           	global	?___lwdiv
   500  0044                     ?___lwdiv:	; 2 bytes @ 0x0
   501                           	global	Delay@n
   502  0044                     Delay@n:	; 2 bytes @ 0x0
   503                           	global	delaynms@n
   504  0044                     delaynms@n:	; 2 bytes @ 0x0
   505                           	global	___lwdiv@divisor
   506  0044                     ___lwdiv@divisor:	; 2 bytes @ 0x0
   507  0044                     	ds	2
   508                           	global	??_ReadADC
   509  0046                     ??_ReadADC:	; 0 bytes @ 0x2
   510                           	global	??_delaynms
   511  0046                     ??_delaynms:	; 0 bytes @ 0x2
   512                           	global	?_write_IIC
   513  0046                     ?_write_IIC:	; 0 bytes @ 0x2
   514                           	global	??_Delay
   515  0046                     ??_Delay:	; 0 bytes @ 0x2
   516                           	global	write_IIC@wdate_L
   517  0046                     write_IIC@wdate_L:	; 1 bytes @ 0x2
   518                           	global	delaynms@i
   519  0046                     delaynms@i:	; 2 bytes @ 0x2
   520                           	global	___lwdiv@dividend
   521  0046                     ___lwdiv@dividend:	; 2 bytes @ 0x2
   522  0046                     	ds	1
   523                           	global	??_write_IIC
   524  0047                     ??_write_IIC:	; 0 bytes @ 0x3
   525                           	global	write_IIC@wdate_H
   526  0047                     write_IIC@wdate_H:	; 1 bytes @ 0x3
   527  0047                     	ds	1
   528                           	global	??___lwdiv
   529  0048                     ??___lwdiv:	; 0 bytes @ 0x4
   530                           	global	ReadADC@ADC_Channel
   531  0048                     ReadADC@ADC_Channel:	; 1 bytes @ 0x4
   532                           	global	write_IIC@t
   533  0048                     write_IIC@t:	; 2 bytes @ 0x4
   534                           	global	delaynms@j
   535  0048                     delaynms@j:	; 2 bytes @ 0x4
   536  0048                     	ds	1
   537                           	global	___lwdiv@counter
   538  0049                     ___lwdiv@counter:	; 1 bytes @ 0x5
   539  0049                     	ds	1
   540                           	global	??_Motor_adjusting_speed
   541  004A                     ??_Motor_adjusting_speed:	; 0 bytes @ 0x6
   542                           	global	??_MotorClose
   543  004A                     ??_MotorClose:	; 0 bytes @ 0x6
   544                           	global	??_The_Close
   545  004A                     ??_The_Close:	; 0 bytes @ 0x6
   546                           	global	___lwdiv@quotient
   547  004A                     ___lwdiv@quotient:	; 2 bytes @ 0x6
   548  004A                     	ds	2
   549                           	global	??_main
   550  004C                     ??_main:	; 0 bytes @ 0x8
   551  004C                     	ds	1
   552                           	global	main@i
   553  004D                     main@i:	; 1 bytes @ 0x9
   554  004D                     	ds	1
   555 ;;Data sizes: Strings 0, constant 0, data 3, bss 41, persistent 0 stack 0
   556 ;;Auto spaces:   Size  Autos    Used
   557 ;; COMMON          14      6      12
   558 ;; BANK0           80     10      49
   559 ;; BANK1           80      0       0
   560 ;; BANK3           96      0       0
   561 ;; BANK2           96      0       0
   562                           
   563 ;;
   564 ;; Pointer list with targets:
   565                           
   566 ;; ?_ReadADC	unsigned int  size(1) Largest target is 0
   567 ;;
   568 ;; ?___lwdiv	unsigned int  size(1) Largest target is 0
   569 ;;
   570                           
   571                           
   572 ;;
   573 ;; Critical Paths under _main in COMMON
   574 ;;
   575 ;;   None.
   576 ;;
   577 ;; Critical Paths under _com in COMMON
   578 ;;
   579 ;;   _com->_RBCN_int
   580 ;;   _com->_TMR1_int
   581 ;;
   582 ;; Critical Paths under _main in BANK0
   583 ;;
   584 ;;   _main->___lwdiv
   585 ;;   _MotorClose->_write_IIC
   586 ;;   _MotorClose->_delaynms
   587 ;;   _Motor_adjusting_speed->_write_IIC
   588 ;;   _The_Close->_delaynms
   589 ;;   _write_IIC->_Delay
   590 ;;
   591 ;; Critical Paths under _com in BANK0
   592 ;;
   593 ;;   None.
   594 ;;
   595 ;; Critical Paths under _main in BANK1
   596 ;;
   597 ;;   None.
   598 ;;
   599 ;; Critical Paths under _com in BANK1
   600 ;;
   601 ;;   None.
   602 ;;
   603 ;; Critical Paths under _main in BANK3
   604 ;;
   605 ;;   None.
   606 ;;
   607 ;; Critical Paths under _com in BANK3
   608 ;;
   609 ;;   None.
   610 ;;
   611 ;; Critical Paths under _main in BANK2
   612 ;;
   613 ;;   None.
   614 ;;
   615 ;; Critical Paths under _com in BANK2
   616 ;;
   617 ;;   None.
   618                           
   619 ;;
   620 ;;Main: autosize = 0, tempsize = 1, incstack = 0, save=0
   621 ;;
   622                           
   623 ;;
   624 ;;Call Graph Tables:
   625 ;;
   626 ;; ---------------------------------------------------------------------------------
   627 ;; (Depth) Function   	        Calls       Base Space   Used Autos Params    Refs
   628 ;; ---------------------------------------------------------------------------------
   629 ;; (0) _main                                                 2     2      0    1603
   630 ;;                                              8 BANK0      2     2      0
   631 ;;                        _InitDevices
   632 ;;                            _ReadADC
   633 ;;                            ___lwdiv
   634 ;;                           _delaynms
   635 ;;                          _write_IIC
   636 ;;              _Motor_adjusting_speed
   637 ;;                         _MotorClose
   638 ;;                          _The_Close
   639 ;; ---------------------------------------------------------------------------------
   640 ;; (1) _MotorClose                                           1     1      0     420
   641 ;;                                              6 BANK0      1     1      0
   642 ;;                          _write_IIC
   643 ;;                           _delaynms
   644 ;; ---------------------------------------------------------------------------------
   645 ;; (1) _Motor_adjusting_speed                                1     1      0     284
   646 ;;                                              6 BANK0      1     1      0
   647 ;;                          _write_IIC
   648 ;; ---------------------------------------------------------------------------------
   649 ;; (1) _The_Close                                            0     0      0     136
   650 ;;                           _delaynms
   651 ;; ---------------------------------------------------------------------------------
   652 ;; (2) _write_IIC                                            4     3      1     284
   653 ;;                                              2 BANK0      4     3      1
   654 ;;                              _Delay
   655 ;; ---------------------------------------------------------------------------------
   656 ;; (1) _InitDevices                                          0     0      0       0
   657 ;;                          _systemOSC
   658 ;;                           _PortInit
   659 ;;                         _InitTimer1
   660 ;;                           _IIC_init
   661 ;;                      _InitialiseADC
   662 ;;                         _InitTimer2
   663 ;;                             _InitCn
   664 ;; ---------------------------------------------------------------------------------
   665 ;; (1) ___lwdiv                                              8     4      4     241
   666 ;;                                              0 BANK0      8     4      4
   667 ;; ---------------------------------------------------------------------------------
   668 ;; (3) _Delay                                                2     0      2      34
   669 ;;                                              0 BANK0      2     0      2
   670 ;; ---------------------------------------------------------------------------------
   671 ;; (2) _delaynms                                             6     4      2     136
   672 ;;                                              0 BANK0      6     4      2
   673 ;; ---------------------------------------------------------------------------------
   674 ;; (1) _ReadADC                                              6     4      2      34
   675 ;;                                              0 BANK0      5     3      2
   676 ;; ---------------------------------------------------------------------------------
   677 ;; (2) _InitCn                                               0     0      0       0
   678 ;; ---------------------------------------------------------------------------------
   679 ;; (2) _InitTimer2                                           0     0      0       0
   680 ;; ---------------------------------------------------------------------------------
   681 ;; (2) _InitTimer1                                           0     0      0       0
   682 ;; ---------------------------------------------------------------------------------
   683 ;; (2) _IIC_init                                             0     0      0       0
   684 ;; ---------------------------------------------------------------------------------
   685 ;; (2) _InitialiseADC                                        0     0      0       0
   686 ;; ---------------------------------------------------------------------------------
   687 ;; (2) _PortInit                                             0     0      0       0
   688 ;; ---------------------------------------------------------------------------------
   689 ;; (2) _systemOSC                                            0     0      0       0
   690 ;; ---------------------------------------------------------------------------------
   691 ;; Estimated maximum stack depth 3
   692 ;; ---------------------------------------------------------------------------------
   693 ;; (Depth) Function   	        Calls       Base Space   Used Autos Params    Refs
   694 ;; ---------------------------------------------------------------------------------
   695 ;; (4) _com                                                  4     4      0       2
   696 ;;                                              2 COMMON     4     4      0
   697 ;;                           _RBCN_int
   698 ;;                           _TMR2_int
   699 ;;                           _TMR1_int
   700 ;; ---------------------------------------------------------------------------------
   701 ;; (5) _TMR1_int                                             3     3      0       1
   702 ;;                                              0 COMMON     2     2      0
   703 ;; ---------------------------------------------------------------------------------
   704 ;; (5) _TMR2_int                                             0     0      0       0
   705 ;; ---------------------------------------------------------------------------------
   706 ;; (5) _RBCN_int                                             2     2      0       1
   707 ;;                                              0 COMMON     2     2      0
   708 ;; ---------------------------------------------------------------------------------
   709 ;; Estimated maximum stack depth 5
   710 ;; ---------------------------------------------------------------------------------
   711                           
   712 ;; Call Graph Graphs:
   713                           
   714 ;; _main (ROOT)
   715 ;;   _InitDevices
   716 ;;     _systemOSC
   717 ;;     _PortInit
   718 ;;     _InitTimer1
   719 ;;     _IIC_init
   720 ;;     _InitialiseADC
   721 ;;     _InitTimer2
   722 ;;     _InitCn
   723 ;;   _ReadADC
   724 ;;   ___lwdiv
   725 ;;   _delaynms
   726 ;;   _write_IIC
   727 ;;     _Delay
   728 ;;   _Motor_adjusting_speed
   729 ;;     _write_IIC
   730 ;;       _Delay
   731 ;;   _MotorClose
   732 ;;     _write_IIC
   733 ;;       _Delay
   734 ;;     _delaynms
   735 ;;   _The_Close
   736 ;;     _delaynms
   737 ;;
   738 ;; _com (ROOT)
   739 ;;   _RBCN_int
   740 ;;   _TMR2_int
   741 ;;   _TMR1_int
   742 ;;
   743                           
   744 ;; Address spaces:
   745                           
   746 ;;Name               Size   Autos  Total    Cost      Usage
   747 ;;BANK3               60      0       0       9        0.0%
   748 ;;BITBANK3            60      0       0       8        0.0%
   749 ;;SFR3                 0      0       0       4        0.0%
   750 ;;BITSFR3              0      0       0       4        0.0%
   751 ;;BANK2               60      0       0      11        0.0%
   752 ;;BITBANK2            60      0       0      10        0.0%
   753 ;;SFR2                 0      0       0       5        0.0%
   754 ;;BITSFR2              0      0       0       5        0.0%
   755 ;;SFR1                 0      0       0       2        0.0%
   756 ;;BITSFR1              0      0       0       2        0.0%
   757 ;;BANK1               50      0       0       7        0.0%
   758 ;;BITBANK1            50      0       0       6        0.0%
   759 ;;CODE                 0      0       0       0        0.0%
   760 ;;DATA                 0      0      44      12        0.0%
   761 ;;ABS                  0      0      3D       3        0.0%
   762 ;;NULL                 0      0       0       0        0.0%
   763 ;;STACK                0      0       7       2        0.0%
   764 ;;BANK0               50      A      31       5       61.3%
   765 ;;BITBANK0            50      0       0       4        0.0%
   766 ;;SFR0                 0      0       0       1        0.0%
   767 ;;BITSFR0              0      0       0       1        0.0%
   768 ;;COMMON               E      6       C       1       85.7%
   769 ;;BITCOMMON            E      0       1       0        7.1%
   770 ;;EEDATA             100      0       0       0        0.0%
   771                           
   772                           	global	_main
   773                           psect	maintext,global,class=CODE,delta=2
   774                           global __pmaintext
   775  0015                     __pmaintext:
   776                           
   777 ;; *************** function _main *****************
   778 ;; Defined at:
   779 ;;		line 23 in file "main.c"
   780 ;; Parameters:    Size  Location     Type
   781 ;;		None
   782 ;; Auto vars:     Size  Location     Type
   783 ;;  i               1    9[BANK0 ] unsigned char 
   784 ;; Return value:  Size  Location     Type
   785 ;;		None               void
   786 ;; Registers used:
   787 ;;		wreg, status,2, status,0, btemp+1, pclath, cstack
   788 ;; Tracked objects:
   789 ;;		On entry : 17F/0
   790 ;;		On exit  : 0/0
   791 ;;		Unchanged: 0/0
   792 ;; Data sizes:     COMMON   BANK0   BANK1   BANK3   BANK2
   793 ;;      Params:         0       0       0       0       0
   794 ;;      Locals:         0       1       0       0       0
   795 ;;      Temps:          0       1       0       0       0
   796 ;;      Totals:         0       2       0       0       0
   797 ;;Total ram usage:        2 bytes
   798 ;; Hardware stack levels required when called:    5
   799 ;; This function calls:
   800 ;;		_InitDevices
   801 ;;		_ReadADC
   802 ;;		___lwdiv
   803 ;;		_delaynms
   804 ;;		_write_IIC
   805 ;;		_Motor_adjusting_speed
   806 ;;		_MotorClose
   807 ;;		_The_Close
   808 ;; This function is called by:
   809 ;;		Startup code after reset
   810 ;; This function uses a non-reentrant model
   811 ;;
   812                           psect	maintext
   813                           	file	"main.c"
   814                           	line	23
   815                           	global	__size_of_main
   816  01DF                     	__size_of_main	equ	__end_of_main-_main
   817                           	
   818  0015                     _main:	
   819                           	opt	stack 3
   820                           ; Regs used in _main: [wreg+status,2+status,0+btemp+1+pclath+cstack]
   821                           	line	25
   822                           	
   823  0015                     l9770:	
   824                           ;main.c: 24: unsigned char i;
   825                           ;main.c: 25: InitDevices();
   826  0015  120A  118A  25E8   	fcall	_InitDevices
              120A  118A         
   827  001A  281B               	goto	l9772
   828                           	line	26
   829                           ;main.c: 26: while(1)
   830                           	
   831  001B                     l3069:	
   832                           	line	29
   833                           	
   834  001B                     l9772:	
   835                           ;main.c: 27: {
   836                           ;main.c: 29: if(PORTAbits.RA5 == 1) {PORTBbits.RB2 = 1;asm ("NOP");}
   837  001B  1283               	bcf	status, 5	;RP0=0, select bank0
   838  001C  1303               	bcf	status, 6	;RP1=0, select bank0
   839  001D  1E85               	btfss	(5),5	;volatile
   840  001E  2820               	goto	u4031
   841  001F  2821               	goto	u4030
   842  0020                     u4031:
   843  0020  2824               	goto	l3070
   844  0021                     u4030:
   845                           	
   846  0021                     l9774:	
   847  0021  1506               	bsf	(6),2	;volatile
   848                           # 29 "main.c"
   849  0022  0000               NOP ;#
   850                           psect	maintext
   851  0023  2827               	goto	l9776
   852                           	line	30
   853                           	
   854  0024                     l3070:	
   855                           ;main.c: 30: else {PORTBbits.RB2 = 0;asm ("NOP");}
   856  0024  1106               	bcf	(6),2	;volatile
   857                           # 30 "main.c"
   858  0025  0000               NOP ;#
   859                           psect	maintext
   860  0026  2827               	goto	l9776
   861                           	
   862  0027                     l3071:	
   863                           	line	32
   864                           	
   865  0027                     l9776:	
   866                           ;main.c: 32: if((Count_Flag == 0) && (Work_Flag == 1)) {PORTBbits.RB0 = 1;asm ("NOP");}
   867  0027  08F6               	movf	(_Count_Flag),f
   868  0028  1D03               	skipz
   869  0029  282B               	goto	u4041
   870  002A  282C               	goto	u4040
   871  002B                     u4041:
   872  002B  2837               	goto	l9782
   873  002C                     u4040:
   874                           	
   875  002C                     l9778:	
   876  002C  087A               	movf	(_Work_Flag),w
   877  002D  3A01               	xorlw	01h
   878  002E  1D03               	skipz
   879  002F  2831               	goto	u4051
   880  0030  2832               	goto	u4050
   881  0031                     u4051:
   882  0031  2837               	goto	l9782
   883  0032                     u4050:
   884                           	
   885  0032                     l9780:	
   886  0032  1283               	bcf	status, 5	;RP0=0, select bank0
   887  0033  1303               	bcf	status, 6	;RP1=0, select bank0
   888  0034  1406               	bsf	(6),0	;volatile
   889                           # 32 "main.c"
   890  0035  0000               NOP ;#
   891                           psect	maintext
   892  0036  2841               	goto	l3073
   893                           	line	33
   894                           	
   895  0037                     l3072:	
   896                           	
   897  0037                     l9782:	
   898                           ;main.c: 33: else if(Key_Run == 0 ) {PORTBbits.RB0 = 0;asm ("NOP");}
   899  0037  1283               	bcf	status, 5	;RP0=0, select bank0
   900  0038  1303               	bcf	status, 6	;RP1=0, select bank0
   901  0039  08B6               	movf	(_Key_Run),f
   902  003A  1D03               	skipz
   903  003B  283D               	goto	u4061
   904  003C  283E               	goto	u4060
   905  003D                     u4061:
   906  003D  2841               	goto	l3073
   907  003E                     u4060:
   908                           	
   909  003E                     l9784:	
   910  003E  1006               	bcf	(6),0	;volatile
   911                           # 33 "main.c"
   912  003F  0000               NOP ;#
   913                           psect	maintext
   914  0040  2841               	goto	l3073
   915                           	
   916  0041                     l3074:	
   917                           	line	35
   918                           	
   919  0041                     l3073:	
   920                           ;main.c: 35: for(i=0;i<70;i++)
   921  0041  1283               	bcf	status, 5	;RP0=0, select bank0
   922  0042  1303               	bcf	status, 6	;RP1=0, select bank0
   923  0043  01CD               	clrf	(main@i)
   924                           	
   925  0044                     l9786:	
   926  0044  3046               	movlw	(046h)
   927  0045  024D               	subwf	(main@i),w
   928  0046  1C03               	skipc
   929  0047  2849               	goto	u4071
   930  0048  284A               	goto	u4070
   931  0049                     u4071:
   932  0049  284C               	goto	l9790
   933  004A                     u4070:
   934  004A  2865               	goto	l9796
   935                           	
   936  004B                     l9788:	
   937  004B  2865               	goto	l9796
   938                           	line	36
   939                           	
   940  004C                     l3075:	
   941                           	line	37
   942                           	
   943  004C                     l9790:	
   944                           ;main.c: 36: {
   945                           ;main.c: 37: ADC_Val += ReadADC(3);
   946  004C  3003               	movlw	(03h)
   947  004D  120A  118A  2540   	fcall	_ReadADC
              120A  118A         
   948  0052  1283               	bcf	status, 5	;RP0=0, select bank0
   949  0053  1303               	bcf	status, 6	;RP1=0, select bank0
   950  0054  0844               	movf	(0+(?_ReadADC)),w
   951  0055  07A2               	addwf	(_ADC_Val),f
   952  0056  1803               	skipnc
   953  0057  0AA3               	incf	(_ADC_Val+1),f
   954  0058  0845               	movf	(1+(?_ReadADC)),w
   955  0059  07A3               	addwf	(_ADC_Val+1),f
   956                           	line	35
   957                           	
   958  005A                     l9792:	
   959  005A  3001               	movlw	(01h)
   960  005B  00CC               	movwf	(??_main+0)+0
   961  005C  084C               	movf	(??_main+0)+0,w
   962  005D  07CD               	addwf	(main@i),f
   963                           	
   964  005E                     l9794:	
   965  005E  3046               	movlw	(046h)
   966  005F  024D               	subwf	(main@i),w
   967  0060  1C03               	skipc
   968  0061  2863               	goto	u4081
   969  0062  2864               	goto	u4080
   970  0063                     u4081:
   971  0063  284C               	goto	l9790
   972  0064                     u4080:
   973  0064  2865               	goto	l9796
   974                           	
   975  0065                     l3076:	
   976                           	line	39
   977                           	
   978  0065                     l9796:	
   979                           ;main.c: 38: }
   980                           ;main.c: 39: ADC_Val/=70;
   981  0065  3046               	movlw	low(046h)
   982  0066  00C4               	movwf	(?___lwdiv)
   983  0067  3000               	movlw	high(046h)
   984  0068  00C5               	movwf	((?___lwdiv))+1
   985  0069  0823               	movf	(_ADC_Val+1),w
   986  006A  01C7               	clrf	1+(?___lwdiv)+02h
   987  006B  07C7               	addwf	1+(?___lwdiv)+02h
   988  006C  0822               	movf	(_ADC_Val),w
   989  006D  01C6               	clrf	0+(?___lwdiv)+02h
   990  006E  07C6               	addwf	0+(?___lwdiv)+02h
   991                           
   992  006F  120A  118A  24F0   	fcall	___lwdiv
              120A  118A         
   993  0074  1283               	bcf	status, 5	;RP0=0, select bank0
   994  0075  1303               	bcf	status, 6	;RP1=0, select bank0
   995  0076  0845               	movf	(1+(?___lwdiv)),w
   996  0077  01A3               	clrf	(_ADC_Val+1)
   997  0078  07A3               	addwf	(_ADC_Val+1)
   998  0079  0844               	movf	(0+(?___lwdiv)),w
   999  007A  01A2               	clrf	(_ADC_Val)
  1000  007B  07A2               	addwf	(_ADC_Val)
  1001                           
  1002                           	line	40
  1003                           	
  1004  007C                     l9798:	
  1005                           ;main.c: 40: if((ADC_Val< 510))
  1006  007C  3001               	movlw	high(01FEh)
  1007  007D  0223               	subwf	(_ADC_Val+1),w
  1008  007E  30FE               	movlw	low(01FEh)
  1009  007F  1903               	skipnz
  1010  0080  0222               	subwf	(_ADC_Val),w
  1011  0081  1803               	skipnc
  1012  0082  2884               	goto	u4091
  1013  0083  2885               	goto	u4090
  1014  0084                     u4091:
  1015  0084  28A1               	goto	l9806
  1016  0085                     u4090:
  1017                           	line	42
  1018                           	
  1019  0085                     l9800:	
  1020                           ;main.c: 41: {
  1021                           ;main.c: 42: if(PORTAbits.RA5 == 0)
  1022  0085  1A85               	btfsc	(5),5	;volatile
  1023  0086  2888               	goto	u4101
  1024  0087  2889               	goto	u4100
  1025  0088                     u4101:
  1026  0088  28D0               	goto	l9818
  1027  0089                     u4100:
  1028                           	line	44
  1029                           	
  1030  0089                     l9802:	
  1031                           ;main.c: 43: {
  1032                           ;main.c: 44: PORTBbits.RB5 = ~PORTBbits.RB5;
  1033  0089  1003               	clrc
  1034  008A  1E86               	btfss	(6),5	;volatile
  1035  008B  1403               	setc
  1036  008C  1803               	btfsc	status,0
  1037  008D  288F               	goto	u4111
  1038  008E  2893               	goto	u4110
  1039                           	
  1040  008F                     u4111:
  1041  008F  1283               	bcf	status, 5	;RP0=0, select bank0
  1042  0090  1303               	bcf	status, 6	;RP1=0, select bank0
  1043  0091  1686               	bsf	(6),5	;volatile
  1044  0092  2896               	goto	u4124
  1045  0093                     u4110:
  1046  0093  1283               	bcf	status, 5	;RP0=0, select bank0
  1047  0094  1303               	bcf	status, 6	;RP1=0, select bank0
  1048  0095  1286               	bcf	(6),5	;volatile
  1049  0096                     u4124:
  1050                           	line	45
  1051                           	
  1052  0096                     l9804:	
  1053                           ;main.c: 45: delaynms(50);
  1054  0096  3032               	movlw	low(032h)
  1055  0097  00C4               	movwf	(?_delaynms)
  1056  0098  3000               	movlw	high(032h)
  1057  0099  00C5               	movwf	((?_delaynms))+1
  1058  009A  120A  118A  2585   	fcall	_delaynms
              120A  118A         
  1059  009F  28D0               	goto	l9818
  1060                           	line	46
  1061                           	
  1062  00A0                     l3078:	
  1063                           	line	47
  1064                           ;main.c: 46: }
  1065                           ;main.c: 47: }
  1066  00A0  28D0               	goto	l9818
  1067                           	line	48
  1068                           	
  1069  00A1                     l3077:	
  1070                           	
  1071  00A1                     l9806:	
  1072                           ;main.c: 48: else if(ADC_Val > 595)
  1073  00A1  3002               	movlw	high(0254h)
  1074  00A2  1283               	bcf	status, 5	;RP0=0, select bank0
  1075  00A3  1303               	bcf	status, 6	;RP1=0, select bank0
  1076  00A4  0223               	subwf	(_ADC_Val+1),w
  1077  00A5  3054               	movlw	low(0254h)
  1078  00A6  1903               	skipnz
  1079  00A7  0222               	subwf	(_ADC_Val),w
  1080  00A8  1C03               	skipc
  1081  00A9  28AB               	goto	u4131
  1082  00AA  28AC               	goto	u4130
  1083  00AB                     u4131:
  1084  00AB  28AF               	goto	l9810
  1085  00AC                     u4130:
  1086                           	line	50
  1087                           	
  1088  00AC                     l9808:	
  1089                           ;main.c: 49: {
  1090                           ;main.c: 50: PORTBbits.RB5 = 0;asm ("NOP");
  1091  00AC  1286               	bcf	(6),5	;volatile
  1092                           # 50 "main.c"
  1093  00AD  0000               NOP ;#
  1094                           psect	maintext
  1095                           	line	51
  1096                           ;main.c: 51: }
  1097  00AE  28D0               	goto	l9818
  1098                           	line	52
  1099                           	
  1100  00AF                     l3080:	
  1101                           	
  1102  00AF                     l9810:	
  1103                           ;main.c: 52: else if((ADC_Val < 580) && (ADC_Val> 540))
  1104  00AF  3002               	movlw	high(0244h)
  1105  00B0  1283               	bcf	status, 5	;RP0=0, select bank0
  1106  00B1  1303               	bcf	status, 6	;RP1=0, select bank0
  1107  00B2  0223               	subwf	(_ADC_Val+1),w
  1108  00B3  3044               	movlw	low(0244h)
  1109  00B4  1903               	skipnz
  1110  00B5  0222               	subwf	(_ADC_Val),w
  1111  00B6  1803               	skipnc
  1112  00B7  28B9               	goto	u4141
  1113  00B8  28BA               	goto	u4140
  1114  00B9                     u4141:
  1115  00B9  28D0               	goto	l9818
  1116  00BA                     u4140:
  1117                           	
  1118  00BA                     l9812:	
  1119  00BA  3002               	movlw	high(021Dh)
  1120  00BB  0223               	subwf	(_ADC_Val+1),w
  1121  00BC  301D               	movlw	low(021Dh)
  1122  00BD  1903               	skipnz
  1123  00BE  0222               	subwf	(_ADC_Val),w
  1124  00BF  1C03               	skipc
  1125  00C0  28C2               	goto	u4151
  1126  00C1  28C3               	goto	u4150
  1127  00C2                     u4151:
  1128  00C2  28D0               	goto	l9818
  1129  00C3                     u4150:
  1130                           	line	54
  1131                           	
  1132  00C3                     l9814:	
  1133                           ;main.c: 53: {
  1134                           ;main.c: 54: if(PORTAbits.RA5 == 1) {PORTBbits.RB5 = 1;asm ("NOP");}
  1135  00C3  1E85               	btfss	(5),5	;volatile
  1136  00C4  28C6               	goto	u4161
  1137  00C5  28C7               	goto	u4160
  1138  00C6                     u4161:
  1139  00C6  28CA               	goto	l3083
  1140  00C7                     u4160:
  1141                           	
  1142  00C7                     l9816:	
  1143  00C7  1686               	bsf	(6),5	;volatile
  1144                           # 54 "main.c"
  1145  00C8  0000               NOP ;#
  1146                           psect	maintext
  1147  00C9  28D0               	goto	l9818
  1148                           	line	55
  1149                           	
  1150  00CA                     l3083:	
  1151                           ;main.c: 55: else {PORTBbits.RB5 = 0;asm ("NOP");}
  1152  00CA  1286               	bcf	(6),5	;volatile
  1153                           # 55 "main.c"
  1154  00CB  0000               NOP ;#
  1155                           psect	maintext
  1156  00CC  28D0               	goto	l9818
  1157                           	
  1158  00CD                     l3084:	
  1159  00CD  28D0               	goto	l9818
  1160                           	line	56
  1161                           	
  1162  00CE                     l3082:	
  1163  00CE  28D0               	goto	l9818
  1164                           	line	59
  1165                           	
  1166  00CF                     l3081:	
  1167  00CF  28D0               	goto	l9818
  1168                           	
  1169  00D0                     l3079:	
  1170                           	
  1171  00D0                     l9818:	
  1172                           ;main.c: 56: }
  1173                           ;main.c: 59: if((Onekey_Flag == 1) &&(Work_Flag == 0))
  1174  00D0  1283               	bcf	status, 5	;RP0=0, select bank0
  1175  00D1  1303               	bcf	status, 6	;RP1=0, select bank0
  1176  00D2  0839               	movf	(_Onekey_Flag),w
  1177  00D3  3A01               	xorlw	01h
  1178  00D4  1D03               	skipz
  1179  00D5  28D7               	goto	u4171
  1180  00D6  28D8               	goto	u4170
  1181  00D7                     u4171:
  1182  00D7  28EB               	goto	l9826
  1183  00D8                     u4170:
  1184                           	
  1185  00D8                     l9820:	
  1186  00D8  08FA               	movf	(_Work_Flag),f
  1187  00D9  1D03               	skipz
  1188  00DA  28DC               	goto	u4181
  1189  00DB  28DD               	goto	u4180
  1190  00DC                     u4181:
  1191  00DC  28EB               	goto	l9826
  1192  00DD                     u4180:
  1193                           	line	61
  1194                           	
  1195  00DD                     l9822:	
  1196                           ;main.c: 60: {
  1197                           ;main.c: 61: PORTCbits.RC0= 1;asm ("NOP");
  1198  00DD  1407               	bsf	(7),0	;volatile
  1199                           # 61 "main.c"
  1200  00DE  0000               NOP ;#
  1201                           psect	maintext
  1202                           	line	62
  1203                           ;main.c: 62: PORTAbits.RA4= 1;asm ("NOP");
  1204  00DF  1283               	bcf	status, 5	;RP0=0, select bank0
  1205  00E0  1303               	bcf	status, 6	;RP1=0, select bank0
  1206  00E1  1605               	bsf	(5),4	;volatile
  1207                           # 62 "main.c"
  1208  00E2  0000               NOP ;#
  1209                           psect	maintext
  1210                           	line	63
  1211                           ;main.c: 63: PORTBbits.RB3 = 1;asm ("NOP");
  1212  00E3  1283               	bcf	status, 5	;RP0=0, select bank0
  1213  00E4  1303               	bcf	status, 6	;RP1=0, select bank0
  1214  00E5  1586               	bsf	(6),3	;volatile
  1215                           # 63 "main.c"
  1216  00E6  0000               NOP ;#
  1217                           psect	maintext
  1218                           	line	64
  1219                           	
  1220  00E7                     l9824:	
  1221                           ;main.c: 64: Not_two = 1;
  1222  00E7  01F9               	clrf	(_Not_two)
  1223  00E8  1403               	bsf	status,0
  1224  00E9  0DF9               	rlf	(_Not_two),f
  1225  00EA  28EB               	goto	l9826
  1226                           	line	65
  1227                           	
  1228  00EB                     l3085:	
  1229                           	line	66
  1230                           	
  1231  00EB                     l9826:	
  1232                           ;main.c: 65: }
  1233                           ;main.c: 66: if((Onekey_Flag == 2) && (Work_Flag == 0))
  1234  00EB  1283               	bcf	status, 5	;RP0=0, select bank0
  1235  00EC  1303               	bcf	status, 6	;RP1=0, select bank0
  1236  00ED  0839               	movf	(_Onekey_Flag),w
  1237  00EE  3A02               	xorlw	02h
  1238  00EF  1D03               	skipz
  1239  00F0  28F2               	goto	u4191
  1240  00F1  28F3               	goto	u4190
  1241  00F2                     u4191:
  1242  00F2  291A               	goto	l9854
  1243  00F3                     u4190:
  1244                           	
  1245  00F3                     l9828:	
  1246  00F3  08FA               	movf	(_Work_Flag),f
  1247  00F4  1D03               	skipz
  1248  00F5  28F7               	goto	u4201
  1249  00F6  28F8               	goto	u4200
  1250  00F7                     u4201:
  1251  00F7  291A               	goto	l9854
  1252  00F8                     u4200:
  1253                           	line	68
  1254                           	
  1255  00F8                     l9830:	
  1256                           ;main.c: 67: {
  1257                           ;main.c: 68: PORTAbits.RA2 = 1;asm ("NOP");
  1258  00F8  1505               	bsf	(5),2	;volatile
  1259                           # 68 "main.c"
  1260  00F9  0000               NOP ;#
  1261                           psect	maintext
  1262                           	line	69
  1263                           	
  1264  00FA                     l9832:	
  1265                           ;main.c: 69: delaynms(10);
  1266  00FA  300A               	movlw	low(0Ah)
  1267  00FB  1283               	bcf	status, 5	;RP0=0, select bank0
  1268  00FC  1303               	bcf	status, 6	;RP1=0, select bank0
  1269  00FD  00C4               	movwf	(?_delaynms)
  1270  00FE  3000               	movlw	high(0Ah)
  1271  00FF  00C5               	movwf	((?_delaynms))+1
  1272  0100  120A  118A  2585   	fcall	_delaynms
              120A  118A         
  1273                           	line	70
  1274                           	
  1275  0105                     l9834:	
  1276                           ;main.c: 70: PORTAbits.RA2 = 0;asm ("NOP");
  1277  0105  1283               	bcf	status, 5	;RP0=0, select bank0
  1278  0106  1303               	bcf	status, 6	;RP1=0, select bank0
  1279  0107  1105               	bcf	(5),2	;volatile
  1280                           	
  1281  0108                     l9836:	
  1282                           # 70 "main.c"
  1283  0108  0000               NOP ;#
  1284                           psect	maintext
  1285                           	line	71
  1286                           	
  1287  0109                     l9838:	
  1288                           ;main.c: 71: PORTCbits.RC0 = 0;asm ("NOP");
  1289  0109  1283               	bcf	status, 5	;RP0=0, select bank0
  1290  010A  1303               	bcf	status, 6	;RP1=0, select bank0
  1291  010B  1007               	bcf	(7),0	;volatile
  1292                           	
  1293  010C                     l9840:	
  1294                           # 71 "main.c"
  1295  010C  0000               NOP ;#
  1296                           psect	maintext
  1297                           	line	72
  1298                           	
  1299  010D                     l9842:	
  1300                           ;main.c: 72: PORTAbits.RA4 = 0;asm ("NOP");
  1301  010D  1283               	bcf	status, 5	;RP0=0, select bank0
  1302  010E  1303               	bcf	status, 6	;RP1=0, select bank0
  1303  010F  1205               	bcf	(5),4	;volatile
  1304                           	
  1305  0110                     l9844:	
  1306                           # 72 "main.c"
  1307  0110  0000               NOP ;#
  1308                           psect	maintext
  1309                           	line	73
  1310                           	
  1311  0111                     l9846:	
  1312                           ;main.c: 73: PORTBbits.RB3 = 0;asm ("NOP");
  1313  0111  1283               	bcf	status, 5	;RP0=0, select bank0
  1314  0112  1303               	bcf	status, 6	;RP1=0, select bank0
  1315  0113  1186               	bcf	(6),3	;volatile
  1316                           	
  1317  0114                     l9848:	
  1318                           # 73 "main.c"
  1319  0114  0000               NOP ;#
  1320                           psect	maintext
  1321                           	line	74
  1322                           	
  1323  0115                     l9850:	
  1324                           ;main.c: 74: Not_two = 0;
  1325  0115  01F9               	clrf	(_Not_two)
  1326                           	line	75
  1327                           	
  1328  0116                     l9852:	
  1329                           ;main.c: 75: Onekey_Flag = 0;
  1330  0116  1283               	bcf	status, 5	;RP0=0, select bank0
  1331  0117  1303               	bcf	status, 6	;RP1=0, select bank0
  1332  0118  01B9               	clrf	(_Onekey_Flag)
  1333  0119  291A               	goto	l9854
  1334                           	line	76
  1335                           	
  1336  011A                     l3086:	
  1337                           	line	78
  1338                           	
  1339  011A                     l9854:	
  1340                           ;main.c: 76: }
  1341                           ;main.c: 78: if((PORTAbits.RA1 == 0) && (Not_two == 1))
  1342  011A  1885               	btfsc	(5),1	;volatile
  1343  011B  291D               	goto	u4211
  1344  011C  291E               	goto	u4210
  1345  011D                     u4211:
  1346  011D  281B               	goto	l9772
  1347  011E                     u4210:
  1348                           	
  1349  011E                     l9856:	
  1350  011E  0879               	movf	(_Not_two),w
  1351  011F  3A01               	xorlw	01h
  1352  0120  1D03               	skipz
  1353  0121  2923               	goto	u4221
  1354  0122  2924               	goto	u4220
  1355  0123                     u4221:
  1356  0123  281B               	goto	l9772
  1357  0124                     u4220:
  1358                           	line	80
  1359                           	
  1360  0124                     l9858:	
  1361                           ;main.c: 79: {
  1362                           ;main.c: 80: if(Key_Run == 1)
  1363  0124  0836               	movf	(_Key_Run),w
  1364  0125  3A01               	xorlw	01h
  1365  0126  1D03               	skipz
  1366  0127  2929               	goto	u4231
  1367  0128  292A               	goto	u4230
  1368  0129                     u4231:
  1369  0129  29C0               	goto	l9902
  1370  012A                     u4230:
  1371  012A  297B               	goto	l9880
  1372                           	line	82
  1373                           	
  1374  012B                     l9860:	
  1375                           ;main.c: 81: {
  1376                           ;main.c: 82: while(Initial_Flag == 0)
  1377  012B  297B               	goto	l9880
  1378                           	
  1379  012C                     l3090:	
  1380                           	line	84
  1381                           	
  1382  012C                     l9862:	
  1383                           ;main.c: 83: {
  1384                           ;main.c: 84: Work_Flag = 1;
  1385  012C  01FA               	clrf	(_Work_Flag)
  1386  012D  1403               	bsf	status,0
  1387  012E  0DFA               	rlf	(_Work_Flag),f
  1388                           	line	85
  1389                           ;main.c: 85: Count_Flag = 1;
  1390  012F  01F6               	clrf	(_Count_Flag)
  1391  0130  1403               	bsf	status,0
  1392  0131  0DF6               	rlf	(_Count_Flag),f
  1393                           	line	86
  1394                           	
  1395  0132                     l9864:	
  1396                           ;main.c: 86: write_IIC(0,0);
  1397  0132  01C6               	clrf	(?_write_IIC)
  1398  0133  3000               	movlw	(0)
  1399  0134  120A  118A  22F3   	fcall	_write_IIC
              120A  118A         
  1400                           	line	87
  1401                           	
  1402  0139                     l9866:	
  1403                           ;main.c: 87: delaynms(1);
  1404  0139  3001               	movlw	low(01h)
  1405  013A  1283               	bcf	status, 5	;RP0=0, select bank0
  1406  013B  1303               	bcf	status, 6	;RP1=0, select bank0
  1407  013C  00C4               	movwf	(?_delaynms)
  1408  013D  3000               	movlw	high(01h)
  1409  013E  00C5               	movwf	((?_delaynms))+1
  1410  013F  120A  118A  2585   	fcall	_delaynms
              120A  118A         
  1411                           	line	88
  1412                           	
  1413  0144                     l9868:	
  1414                           ;main.c: 88: write_IIC(0x03,0x33 );
  1415  0144  3033               	movlw	(033h)
  1416  0145  1283               	bcf	status, 5	;RP0=0, select bank0
  1417  0146  1303               	bcf	status, 6	;RP1=0, select bank0
  1418  0147  00CC               	movwf	(??_main+0)+0
  1419  0148  084C               	movf	(??_main+0)+0,w
  1420  0149  00C6               	movwf	(?_write_IIC)
  1421  014A  3003               	movlw	(03h)
  1422  014B  120A  118A  22F3   	fcall	_write_IIC
              120A  118A         
  1423                           	line	89
  1424                           	
  1425  0150                     l9870:	
  1426                           ;main.c: 89: delaynms(1);
  1427  0150  3001               	movlw	low(01h)
  1428  0151  1283               	bcf	status, 5	;RP0=0, select bank0
  1429  0152  1303               	bcf	status, 6	;RP1=0, select bank0
  1430  0153  00C4               	movwf	(?_delaynms)
  1431  0154  3000               	movlw	high(01h)
  1432  0155  00C5               	movwf	((?_delaynms))+1
  1433  0156  120A  118A  2585   	fcall	_delaynms
              120A  118A         
  1434                           	line	90
  1435                           	
  1436  015B                     l9872:	
  1437                           ;main.c: 90: write_IIC(0x04,0x4c );
  1438  015B  304C               	movlw	(04Ch)
  1439  015C  1283               	bcf	status, 5	;RP0=0, select bank0
  1440  015D  1303               	bcf	status, 6	;RP1=0, select bank0
  1441  015E  00CC               	movwf	(??_main+0)+0
  1442  015F  084C               	movf	(??_main+0)+0,w
  1443  0160  00C6               	movwf	(?_write_IIC)
  1444  0161  3004               	movlw	(04h)
  1445  0162  120A  118A  22F3   	fcall	_write_IIC
              120A  118A         
  1446                           	line	91
  1447                           	
  1448  0167                     l9874:	
  1449                           ;main.c: 91: delaynms(1);
  1450  0167  3001               	movlw	low(01h)
  1451  0168  1283               	bcf	status, 5	;RP0=0, select bank0
  1452  0169  1303               	bcf	status, 6	;RP1=0, select bank0
  1453  016A  00C4               	movwf	(?_delaynms)
  1454  016B  3000               	movlw	high(01h)
  1455  016C  00C5               	movwf	((?_delaynms))+1
  1456  016D  120A  118A  2585   	fcall	_delaynms
              120A  118A         
  1457                           	line	92
  1458                           	
  1459  0172                     l9876:	
  1460                           ;main.c: 92: Initial_Flag = 1;
  1461  0172  1283               	bcf	status, 5	;RP0=0, select bank0
  1462  0173  1303               	bcf	status, 6	;RP1=0, select bank0
  1463  0174  01B5               	clrf	(_Initial_Flag)
  1464  0175  1403               	bsf	status,0
  1465  0176  0DB5               	rlf	(_Initial_Flag),f
  1466                           	line	93
  1467                           	
  1468  0177                     l9878:	
  1469                           ;main.c: 93: kai = 1;
  1470  0177  01C3               	clrf	(_kai)
  1471  0178  1403               	bsf	status,0
  1472  0179  0DC3               	rlf	(_kai),f
  1473                           	line	94
  1474                           ;main.c: 94: break;
  1475  017A  2980               	goto	l9882
  1476                           	line	95
  1477                           	
  1478  017B                     l3089:	
  1479                           	line	82
  1480                           	
  1481  017B                     l9880:	
  1482  017B  0835               	movf	(_Initial_Flag),w
  1483  017C  1D03               	skipz
  1484  017D  297F               	goto	u4240
  1485  017E  292C               	goto	l9862
  1486  017F                     u4240:
  1487  017F  2980               	goto	l9882
  1488                           	
  1489  0180                     l3091:	
  1490                           	line	96
  1491                           	
  1492  0180                     l9882:	
  1493                           ;main.c: 95: }
  1494                           ;main.c: 96: if((Start_Flag == 0)&&(kai == 1))
  1495  0180  08BD               	movf	(_Start_Flag),f
  1496  0181  1D03               	skipz
  1497  0182  2984               	goto	u4251
  1498  0183  2985               	goto	u4250
  1499  0184                     u4251:
  1500  0184  2991               	goto	l9888
  1501  0185                     u4250:
  1502                           	
  1503  0185                     l9884:	
  1504  0185  0843               	movf	(_kai),w
  1505  0186  3A01               	xorlw	01h
  1506  0187  1D03               	skipz
  1507  0188  298A               	goto	u4261
  1508  0189  298B               	goto	u4260
  1509  018A                     u4261:
  1510  018A  2991               	goto	l9888
  1511  018B                     u4260:
  1512                           	line	98
  1513                           	
  1514  018B                     l9886:	
  1515                           ;main.c: 97: {
  1516                           ;main.c: 98: Motor_adjusting_speed();
  1517  018B  120A  118A  2494   	fcall	_Motor_adjusting_speed
              120A  118A         
  1518                           	line	99
  1519                           ;main.c: 99: }
  1520  0190  281B               	goto	l9772
  1521                           	line	100
  1522                           	
  1523  0191                     l3092:	
  1524                           	
  1525  0191                     l9888:	
  1526                           ;main.c: 100: else if(Stop_Flag == 1)
  1527  0191  1283               	bcf	status, 5	;RP0=0, select bank0
  1528  0192  1303               	bcf	status, 6	;RP1=0, select bank0
  1529  0193  083F               	movf	(_Stop_Flag),w
  1530  0194  3A01               	xorlw	01h
  1531  0195  1D03               	skipz
  1532  0196  2998               	goto	u4271
  1533  0197  2999               	goto	u4270
  1534  0198                     u4271:
  1535  0198  281B               	goto	l9772
  1536  0199                     u4270:
  1537                           	line	102
  1538                           	
  1539  0199                     l9890:	
  1540                           ;main.c: 101: {
  1541                           ;main.c: 102: Open_Cover_Flag = 1;
  1542  0199  01BC               	clrf	(_Open_Cover_Flag)
  1543  019A  1403               	bsf	status,0
  1544  019B  0DBC               	rlf	(_Open_Cover_Flag),f
  1545                           	line	103
  1546                           ;main.c: 103: if(Once == 0)
  1547  019C  08B8               	movf	(_Once),f
  1548  019D  1D03               	skipz
  1549  019E  29A0               	goto	u4281
  1550  019F  29A1               	goto	u4280
  1551  01A0                     u4281:
  1552  01A0  29AC               	goto	l9896
  1553  01A1                     u4280:
  1554                           	line	105
  1555                           	
  1556  01A1                     l9892:	
  1557                           ;main.c: 104: {
  1558                           ;main.c: 105: MotorClose();
  1559  01A1  120A  118A  21F4   	fcall	_MotorClose
              120A  118A         
  1560                           	line	106
  1561                           	
  1562  01A6                     l9894:	
  1563                           ;main.c: 106: Once = 1;
  1564  01A6  1283               	bcf	status, 5	;RP0=0, select bank0
  1565  01A7  1303               	bcf	status, 6	;RP1=0, select bank0
  1566  01A8  01B8               	clrf	(_Once)
  1567  01A9  1403               	bsf	status,0
  1568  01AA  0DB8               	rlf	(_Once),f
  1569  01AB  29AC               	goto	l9896
  1570                           	line	107
  1571                           	
  1572  01AC                     l3095:	
  1573                           	line	108
  1574                           	
  1575  01AC                     l9896:	
  1576                           ;main.c: 107: }
  1577                           ;main.c: 108: Count_Flag=0;
  1578  01AC  01F6               	clrf	(_Count_Flag)
  1579                           	line	109
  1580                           	
  1581  01AD                     l9898:	
  1582                           ;main.c: 109: if(Open_Cover_times == 2700)
  1583  01AD  300A               	movlw	high(0A8Ch)
  1584  01AE  062F               	xorwf	(_Open_Cover_times+1),w
  1585  01AF  1D03               	skipz
  1586  01B0  29B3               	goto	u4295
  1587  01B1  308C               	movlw	low(0A8Ch)
  1588  01B2  062E               	xorwf	(_Open_Cover_times),w
  1589  01B3                     u4295:
  1590                           
  1591  01B3  1D03               	skipz
  1592  01B4  29B6               	goto	u4291
  1593  01B5  29B7               	goto	u4290
  1594  01B6                     u4291:
  1595  01B6  281B               	goto	l9772
  1596  01B7                     u4290:
  1597                           	line	111
  1598                           	
  1599  01B7                     l9900:	
  1600                           ;main.c: 110: {
  1601                           ;main.c: 111: The_Close();
  1602  01B7  120A  118A  2636   	fcall	_The_Close
              120A  118A         
  1603  01BC  281B               	goto	l9772
  1604                           	line	112
  1605                           	
  1606  01BD                     l3096:	
  1607  01BD  281B               	goto	l9772
  1608                           	line	113
  1609                           	
  1610  01BE                     l3094:	
  1611  01BE  281B               	goto	l9772
  1612                           	line	114
  1613                           	
  1614  01BF                     l3093:	
  1615                           ;main.c: 112: }
  1616                           ;main.c: 113: }
  1617                           ;main.c: 114: }
  1618  01BF  281B               	goto	l9772
  1619                           	line	115
  1620                           	
  1621  01C0                     l3088:	
  1622                           	
  1623  01C0                     l9902:	
  1624                           ;main.c: 115: else if(Key_Run == 2)
  1625  01C0  1283               	bcf	status, 5	;RP0=0, select bank0
  1626  01C1  1303               	bcf	status, 6	;RP1=0, select bank0
  1627  01C2  0836               	movf	(_Key_Run),w
  1628  01C3  3A02               	xorlw	02h
  1629  01C4  1D03               	skipz
  1630  01C5  29C7               	goto	u4301
  1631  01C6  29C8               	goto	u4300
  1632  01C7                     u4301:
  1633  01C7  281B               	goto	l9772
  1634  01C8                     u4300:
  1635                           	line	117
  1636                           	
  1637  01C8                     l9904:	
  1638                           ;main.c: 116: {
  1639                           ;main.c: 117: Open_Cover_Flag = 1;
  1640  01C8  01BC               	clrf	(_Open_Cover_Flag)
  1641  01C9  1403               	bsf	status,0
  1642  01CA  0DBC               	rlf	(_Open_Cover_Flag),f
  1643                           	line	118
  1644                           ;main.c: 118: if(Once == 0)
  1645  01CB  08B8               	movf	(_Once),f
  1646  01CC  1D03               	skipz
  1647  01CD  29CF               	goto	u4311
  1648  01CE  29D0               	goto	u4310
  1649  01CF                     u4311:
  1650  01CF  29DB               	goto	l9910
  1651  01D0                     u4310:
  1652                           	line	120
  1653                           	
  1654  01D0                     l9906:	
  1655                           ;main.c: 119: {
  1656                           ;main.c: 120: MotorClose();
  1657  01D0  120A  118A  21F4   	fcall	_MotorClose
              120A  118A         
  1658                           	line	121
  1659                           	
  1660  01D5                     l9908:	
  1661                           ;main.c: 121: Once = 1;
  1662  01D5  1283               	bcf	status, 5	;RP0=0, select bank0
  1663  01D6  1303               	bcf	status, 6	;RP1=0, select bank0
  1664  01D7  01B8               	clrf	(_Once)
  1665  01D8  1403               	bsf	status,0
  1666  01D9  0DB8               	rlf	(_Once),f
  1667  01DA  29DB               	goto	l9910
  1668                           	line	122
  1669                           	
  1670  01DB                     l3099:	
  1671                           	line	123
  1672                           	
  1673  01DB                     l9910:	
  1674                           ;main.c: 122: }
  1675                           ;main.c: 123: Count_Flag=0;
  1676  01DB  01F6               	clrf	(_Count_Flag)
  1677                           	line	124
  1678                           	
  1679  01DC                     l9912:	
  1680                           ;main.c: 124: if(Open_Cover_times == 2700)
  1681  01DC  300A               	movlw	high(0A8Ch)
  1682  01DD  062F               	xorwf	(_Open_Cover_times+1),w
  1683  01DE  1D03               	skipz
  1684  01DF  29E2               	goto	u4325
  1685  01E0  308C               	movlw	low(0A8Ch)
  1686  01E1  062E               	xorwf	(_Open_Cover_times),w
  1687  01E2                     u4325:
  1688                           
  1689  01E2  1D03               	skipz
  1690  01E3  29E5               	goto	u4321
  1691  01E4  29E6               	goto	u4320
  1692  01E5                     u4321:
  1693  01E5  281B               	goto	l9772
  1694  01E6                     u4320:
  1695                           	line	126
  1696                           	
  1697  01E6                     l9914:	
  1698                           ;main.c: 125: {
  1699                           ;main.c: 126: The_Close();
  1700  01E6  120A  118A  2636   	fcall	_The_Close
              120A  118A         
  1701  01EB  281B               	goto	l9772
  1702                           	line	127
  1703                           	
  1704  01EC                     l3100:	
  1705  01EC  281B               	goto	l9772
  1706                           	line	128
  1707                           	
  1708  01ED                     l3098:	
  1709  01ED  281B               	goto	l9772
  1710                           	line	129
  1711                           	
  1712  01EE                     l3097:	
  1713  01EE  281B               	goto	l9772
  1714                           	
  1715  01EF                     l3087:	
  1716  01EF  281B               	goto	l9772
  1717                           	line	130
  1718                           	
  1719  01F0                     l3101:	
  1720                           	line	26
  1721  01F0  281B               	goto	l9772
  1722                           	
  1723  01F1                     l3102:	
  1724                           	line	131
  1725                           	
  1726  01F1                     l3103:	
  1727                           	global	start
  1728  01F1  120A  118A  2812   	ljmp	start
  1729                           	opt stack 0
  1730                           GLOBAL	__end_of_main
  1731  01F4                     	__end_of_main:
  1732 ;; =============== function _main ends ============
  1733                           
  1734                           	signat	_main,88
  1735                           	global	_MotorClose
  1736                           psect	text803,local,class=CODE,delta=2
  1737                           global __ptext803
  1738  01F4                     __ptext803:
  1739                           
  1740 ;; *************** function _MotorClose *****************
  1741 ;; Defined at:
  1742 ;;		line 40 in file "work.c"
  1743 ;; Parameters:    Size  Location     Type
  1744 ;;		None
  1745 ;; Auto vars:     Size  Location     Type
  1746 ;;		None
  1747 ;; Return value:  Size  Location     Type
  1748 ;;		None               void
  1749 ;; Registers used:
  1750 ;;		wreg, status,2, status,0, btemp+1, pclath, cstack
  1751 ;; Tracked objects:
  1752 ;;		On entry : 0/0
  1753 ;;		On exit  : 0/0
  1754 ;;		Unchanged: 0/0
  1755 ;; Data sizes:     COMMON   BANK0   BANK1   BANK3   BANK2
  1756 ;;      Params:         0       0       0       0       0
  1757 ;;      Locals:         0       0       0       0       0
  1758 ;;      Temps:          0       1       0       0       0
  1759 ;;      Totals:         0       1       0       0       0
  1760 ;;Total ram usage:        1 bytes
  1761 ;; Hardware stack levels used:    1
  1762 ;; Hardware stack levels required when called:    4
  1763 ;; This function calls:
  1764 ;;		_write_IIC
  1765 ;;		_delaynms
  1766 ;; This function is called by:
  1767 ;;		_main
  1768 ;;		_Motor_working_time
  1769 ;; This function uses a non-reentrant model
  1770 ;;
  1771                           psect	text803
  1772                           	file	"work.c"
  1773                           	line	40
  1774                           	global	__size_of_MotorClose
  1775  00FF                     	__size_of_MotorClose	equ	__end_of_MotorClose-_MotorClose
  1776                           	
  1777  01F4                     _MotorClose:	
  1778                           	opt	stack 3
  1779                           ; Regs used in _MotorClose: [wreg+status,2+status,0+btemp+1+pclath+cstack]
  1780                           	line	41
  1781                           	
  1782  01F4                     l9736:	
  1783                           ;work.c: 41: write_IIC(0x08 ,0xfc );
  1784  01F4  30FC               	movlw	(0FCh)
  1785  01F5  1283               	bcf	status, 5	;RP0=0, select bank0
  1786  01F6  1303               	bcf	status, 6	;RP1=0, select bank0
  1787  01F7  00CA               	movwf	(??_MotorClose+0)+0
  1788  01F8  084A               	movf	(??_MotorClose+0)+0,w
  1789  01F9  00C6               	movwf	(?_write_IIC)
  1790  01FA  3008               	movlw	(08h)
  1791  01FB  120A  118A  22F3   	fcall	_write_IIC
              120A  118A         
  1792                           	line	42
  1793                           	
  1794  0200                     l9738:	
  1795                           ;work.c: 42: delaynms(100);
  1796  0200  3064               	movlw	low(064h)
  1797  0201  1283               	bcf	status, 5	;RP0=0, select bank0
  1798  0202  1303               	bcf	status, 6	;RP1=0, select bank0
  1799  0203  00C4               	movwf	(?_delaynms)
  1800  0204  3000               	movlw	high(064h)
  1801  0205  00C5               	movwf	((?_delaynms))+1
  1802  0206  120A  118A  2585   	fcall	_delaynms
              120A  118A         
  1803                           	line	43
  1804                           	
  1805  020B                     l9740:	
  1806                           ;work.c: 43: write_IIC(0x07 ,0x9E );
  1807  020B  309E               	movlw	(09Eh)
  1808  020C  1283               	bcf	status, 5	;RP0=0, select bank0
  1809  020D  1303               	bcf	status, 6	;RP1=0, select bank0
  1810  020E  00CA               	movwf	(??_MotorClose+0)+0
  1811  020F  084A               	movf	(??_MotorClose+0)+0,w
  1812  0210  00C6               	movwf	(?_write_IIC)
  1813  0211  3007               	movlw	(07h)
  1814  0212  120A  118A  22F3   	fcall	_write_IIC
              120A  118A         
  1815                           	line	44
  1816                           ;work.c: 44: delaynms(100);
  1817  0217  3064               	movlw	low(064h)
  1818  0218  1283               	bcf	status, 5	;RP0=0, select bank0
  1819  0219  1303               	bcf	status, 6	;RP1=0, select bank0
  1820  021A  00C4               	movwf	(?_delaynms)
  1821  021B  3000               	movlw	high(064h)
  1822  021C  00C5               	movwf	((?_delaynms))+1
  1823  021D  120A  118A  2585   	fcall	_delaynms
              120A  118A         
  1824                           	line	47
  1825                           	
  1826  0222                     l9742:	
  1827                           ;work.c: 47: write_IIC(0x06 ,0x66 );
  1828  0222  3066               	movlw	(066h)
  1829  0223  1283               	bcf	status, 5	;RP0=0, select bank0
  1830  0224  1303               	bcf	status, 6	;RP1=0, select bank0
  1831  0225  00CA               	movwf	(??_MotorClose+0)+0
  1832  0226  084A               	movf	(??_MotorClose+0)+0,w
  1833  0227  00C6               	movwf	(?_write_IIC)
  1834  0228  3006               	movlw	(06h)
  1835  0229  120A  118A  22F3   	fcall	_write_IIC
              120A  118A         
  1836                           	line	48
  1837                           	
  1838  022E                     l9744:	
  1839                           ;work.c: 48: delaynms(100);
  1840  022E  3064               	movlw	low(064h)
  1841  022F  1283               	bcf	status, 5	;RP0=0, select bank0
  1842  0230  1303               	bcf	status, 6	;RP1=0, select bank0
  1843  0231  00C4               	movwf	(?_delaynms)
  1844  0232  3000               	movlw	high(064h)
  1845  0233  00C5               	movwf	((?_delaynms))+1
  1846  0234  120A  118A  2585   	fcall	_delaynms
              120A  118A         
  1847                           	line	49
  1848                           ;work.c: 49: write_IIC(0x05,0x70 );
  1849  0239  3070               	movlw	(070h)
  1850  023A  1283               	bcf	status, 5	;RP0=0, select bank0
  1851  023B  1303               	bcf	status, 6	;RP1=0, select bank0
  1852  023C  00CA               	movwf	(??_MotorClose+0)+0
  1853  023D  084A               	movf	(??_MotorClose+0)+0,w
  1854  023E  00C6               	movwf	(?_write_IIC)
  1855  023F  3005               	movlw	(05h)
  1856  0240  120A  118A  22F3   	fcall	_write_IIC
              120A  118A         
  1857                           	line	50
  1858                           	
  1859  0245                     l9746:	
  1860                           ;work.c: 50: delaynms(100);
  1861  0245  3064               	movlw	low(064h)
  1862  0246  1283               	bcf	status, 5	;RP0=0, select bank0
  1863  0247  1303               	bcf	status, 6	;RP1=0, select bank0
  1864  0248  00C4               	movwf	(?_delaynms)
  1865  0249  3000               	movlw	high(064h)
  1866  024A  00C5               	movwf	((?_delaynms))+1
  1867  024B  120A  118A  2585   	fcall	_delaynms
              120A  118A         
  1868                           	line	53
  1869                           	
  1870  0250                     l9748:	
  1871                           ;work.c: 53: write_IIC(0x03,0xD6 );
  1872  0250  30D6               	movlw	(0D6h)
  1873  0251  1283               	bcf	status, 5	;RP0=0, select bank0
  1874  0252  1303               	bcf	status, 6	;RP1=0, select bank0
  1875  0253  00CA               	movwf	(??_MotorClose+0)+0
  1876  0254  084A               	movf	(??_MotorClose+0)+0,w
  1877  0255  00C6               	movwf	(?_write_IIC)
  1878  0256  3003               	movlw	(03h)
  1879  0257  120A  118A  22F3   	fcall	_write_IIC
              120A  118A         
  1880                           	line	54
  1881                           ;work.c: 54: delaynms(100);
  1882  025C  3064               	movlw	low(064h)
  1883  025D  1283               	bcf	status, 5	;RP0=0, select bank0
  1884  025E  1303               	bcf	status, 6	;RP1=0, select bank0
  1885  025F  00C4               	movwf	(?_delaynms)
  1886  0260  3000               	movlw	high(064h)
  1887  0261  00C5               	movwf	((?_delaynms))+1
  1888  0262  120A  118A  2585   	fcall	_delaynms
              120A  118A         
  1889                           	line	57
  1890                           	
  1891  0267                     l9750:	
  1892                           ;work.c: 57: write_IIC(0x02,0x6B );
  1893  0267  306B               	movlw	(06Bh)
  1894  0268  1283               	bcf	status, 5	;RP0=0, select bank0
  1895  0269  1303               	bcf	status, 6	;RP1=0, select bank0
  1896  026A  00CA               	movwf	(??_MotorClose+0)+0
  1897  026B  084A               	movf	(??_MotorClose+0)+0,w
  1898  026C  00C6               	movwf	(?_write_IIC)
  1899  026D  3002               	movlw	(02h)
  1900  026E  120A  118A  22F3   	fcall	_write_IIC
              120A  118A         
  1901                           	line	58
  1902                           	
  1903  0273                     l9752:	
  1904                           ;work.c: 58: delaynms(100);
  1905  0273  3064               	movlw	low(064h)
  1906  0274  1283               	bcf	status, 5	;RP0=0, select bank0
  1907  0275  1303               	bcf	status, 6	;RP1=0, select bank0
  1908  0276  00C4               	movwf	(?_delaynms)
  1909  0277  3000               	movlw	high(064h)
  1910  0278  00C5               	movwf	((?_delaynms))+1
  1911  0279  120A  118A  2585   	fcall	_delaynms
              120A  118A         
  1912                           	line	59
  1913                           ;work.c: 59: write_IIC(0x01,0xA3 );
  1914  027E  30A3               	movlw	(0A3h)
  1915  027F  1283               	bcf	status, 5	;RP0=0, select bank0
  1916  0280  1303               	bcf	status, 6	;RP1=0, select bank0
  1917  0281  00CA               	movwf	(??_MotorClose+0)+0
  1918  0282  084A               	movf	(??_MotorClose+0)+0,w
  1919  0283  00C6               	movwf	(?_write_IIC)
  1920  0284  3001               	movlw	(01h)
  1921  0285  120A  118A  22F3   	fcall	_write_IIC
              120A  118A         
  1922                           	line	60
  1923                           	
  1924  028A                     l9754:	
  1925                           ;work.c: 60: delaynms(100);
  1926  028A  3064               	movlw	low(064h)
  1927  028B  1283               	bcf	status, 5	;RP0=0, select bank0
  1928  028C  1303               	bcf	status, 6	;RP1=0, select bank0
  1929  028D  00C4               	movwf	(?_delaynms)
  1930  028E  3000               	movlw	high(064h)
  1931  028F  00C5               	movwf	((?_delaynms))+1
  1932  0290  120A  118A  2585   	fcall	_delaynms
              120A  118A         
  1933                           	line	61
  1934                           	
  1935  0295                     l9756:	
  1936                           ;work.c: 61: write_IIC(0x00,0x64 );
  1937  0295  3064               	movlw	(064h)
  1938  0296  1283               	bcf	status, 5	;RP0=0, select bank0
  1939  0297  1303               	bcf	status, 6	;RP1=0, select bank0
  1940  0298  00CA               	movwf	(??_MotorClose+0)+0
  1941  0299  084A               	movf	(??_MotorClose+0)+0,w
  1942  029A  00C6               	movwf	(?_write_IIC)
  1943  029B  3000               	movlw	(0)
  1944  029C  120A  118A  22F3   	fcall	_write_IIC
              120A  118A         
  1945                           	line	62
  1946                           ;work.c: 62: delaynms(100);
  1947  02A1  3064               	movlw	low(064h)
  1948  02A2  1283               	bcf	status, 5	;RP0=0, select bank0
  1949  02A3  1303               	bcf	status, 6	;RP1=0, select bank0
  1950  02A4  00C4               	movwf	(?_delaynms)
  1951  02A5  3000               	movlw	high(064h)
  1952  02A6  00C5               	movwf	((?_delaynms))+1
  1953  02A7  120A  118A  2585   	fcall	_delaynms
              120A  118A         
  1954                           	line	63
  1955                           	
  1956  02AC                     l9758:	
  1957                           ;work.c: 63: write_IIC(0x00,0x32 );
  1958  02AC  3032               	movlw	(032h)
  1959  02AD  1283               	bcf	status, 5	;RP0=0, select bank0
  1960  02AE  1303               	bcf	status, 6	;RP1=0, select bank0
  1961  02AF  00CA               	movwf	(??_MotorClose+0)+0
  1962  02B0  084A               	movf	(??_MotorClose+0)+0,w
  1963  02B1  00C6               	movwf	(?_write_IIC)
  1964  02B2  3000               	movlw	(0)
  1965  02B3  120A  118A  22F3   	fcall	_write_IIC
              120A  118A         
  1966                           	line	64
  1967                           	
  1968  02B8                     l9760:	
  1969                           ;work.c: 64: delaynms(100);
  1970  02B8  3064               	movlw	low(064h)
  1971  02B9  1283               	bcf	status, 5	;RP0=0, select bank0
  1972  02BA  1303               	bcf	status, 6	;RP1=0, select bank0
  1973  02BB  00C4               	movwf	(?_delaynms)
  1974  02BC  3000               	movlw	high(064h)
  1975  02BD  00C5               	movwf	((?_delaynms))+1
  1976  02BE  120A  118A  2585   	fcall	_delaynms
              120A  118A         
  1977                           	line	65
  1978                           ;work.c: 65: write_IIC(0x00,0x14 );
  1979  02C3  3014               	movlw	(014h)
  1980  02C4  1283               	bcf	status, 5	;RP0=0, select bank0
  1981  02C5  1303               	bcf	status, 6	;RP1=0, select bank0
  1982  02C6  00CA               	movwf	(??_MotorClose+0)+0
  1983  02C7  084A               	movf	(??_MotorClose+0)+0,w
  1984  02C8  00C6               	movwf	(?_write_IIC)
  1985  02C9  3000               	movlw	(0)
  1986  02CA  120A  118A  22F3   	fcall	_write_IIC
              120A  118A         
  1987                           	line	66
  1988                           	
  1989  02CF                     l9762:	
  1990                           ;work.c: 66: delaynms(100);
  1991  02CF  3064               	movlw	low(064h)
  1992  02D0  1283               	bcf	status, 5	;RP0=0, select bank0
  1993  02D1  1303               	bcf	status, 6	;RP1=0, select bank0
  1994  02D2  00C4               	movwf	(?_delaynms)
  1995  02D3  3000               	movlw	high(064h)
  1996  02D4  00C5               	movwf	((?_delaynms))+1
  1997  02D5  120A  118A  2585   	fcall	_delaynms
              120A  118A         
  1998                           	line	67
  1999                           	
  2000  02DA                     l9764:	
  2001                           ;work.c: 67: write_IIC(0x00,0x00 );
  2002  02DA  1283               	bcf	status, 5	;RP0=0, select bank0
  2003  02DB  1303               	bcf	status, 6	;RP1=0, select bank0
  2004  02DC  01C6               	clrf	(?_write_IIC)
  2005  02DD  3000               	movlw	(0)
  2006  02DE  120A  118A  22F3   	fcall	_write_IIC
              120A  118A         
  2007                           	line	68
  2008                           ;work.c: 68: delaynms(100);
  2009  02E3  3064               	movlw	low(064h)
  2010  02E4  1283               	bcf	status, 5	;RP0=0, select bank0
  2011  02E5  1303               	bcf	status, 6	;RP1=0, select bank0
  2012  02E6  00C4               	movwf	(?_delaynms)
  2013  02E7  3000               	movlw	high(064h)
  2014  02E8  00C5               	movwf	((?_delaynms))+1
  2015  02E9  120A  118A  2585   	fcall	_delaynms
              120A  118A         
  2016                           	line	69
  2017                           	
  2018  02EE                     l9766:	
  2019                           ;work.c: 69: TMR1ON=1;
  2020  02EE  1283               	bcf	status, 5	;RP0=0, select bank0
  2021  02EF  1303               	bcf	status, 6	;RP1=0, select bank0
  2022  02F0  1410               	bsf	(128/8),(128)&7
  2023                           	line	70
  2024                           	
  2025  02F1                     l9768:	
  2026                           ;work.c: 70: GIE=1;
  2027  02F1  178B               	bsf	(95/8),(95)&7
  2028                           	line	71
  2029                           	
  2030  02F2                     l4098:	
  2031  02F2  0008               	return
  2032                           	opt stack 0
  2033                           GLOBAL	__end_of_MotorClose
  2034  02F3                     	__end_of_MotorClose:
  2035 ;; =============== function _MotorClose ends ============
  2036                           
  2037                           	signat	_MotorClose,88
  2038                           	global	_Motor_adjusting_speed
  2039                           psect	text804,local,class=CODE,delta=2
  2040                           global __ptext804
  2041  0494                     __ptext804:
  2042                           
  2043 ;; *************** function _Motor_adjusting_speed *****************
  2044 ;; Defined at:
  2045 ;;		line 73 in file "work.c"
  2046 ;; Parameters:    Size  Location     Type
  2047 ;;		None
  2048 ;; Auto vars:     Size  Location     Type
  2049 ;;		None
  2050 ;; Return value:  Size  Location     Type
  2051 ;;		None               void
  2052 ;; Registers used:
  2053 ;;		wreg, status,2, status,0, btemp+1, pclath, cstack
  2054 ;; Tracked objects:
  2055 ;;		On entry : 0/0
  2056 ;;		On exit  : 0/0
  2057 ;;		Unchanged: 0/0
  2058 ;; Data sizes:     COMMON   BANK0   BANK1   BANK3   BANK2
  2059 ;;      Params:         0       0       0       0       0
  2060 ;;      Locals:         0       0       0       0       0
  2061 ;;      Temps:          0       1       0       0       0
  2062 ;;      Totals:         0       1       0       0       0
  2063 ;;Total ram usage:        1 bytes
  2064 ;; Hardware stack levels used:    1
  2065 ;; Hardware stack levels required when called:    4
  2066 ;; This function calls:
  2067 ;;		_write_IIC
  2068 ;; This function is called by:
  2069 ;;		_main
  2070 ;; This function uses a non-reentrant model
  2071 ;;
  2072                           psect	text804
  2073                           	file	"work.c"
  2074                           	line	73
  2075                           	global	__size_of_Motor_adjusting_speed
  2076  005C                     	__size_of_Motor_adjusting_speed	equ	__end_of_Motor_adjusting_speed-_Motor_adjusting_spe
                                 ed
  2077                           	
  2078  0494                     _Motor_adjusting_speed:	
  2079                           	opt	stack 3
  2080                           ; Regs used in _Motor_adjusting_speed: [wreg+status,2+status,0+btemp+1+pclath+cstack]
  2081                           	line	74
  2082                           	
  2083  0494                     l9706:	
  2084                           ;work.c: 74: while(Flag_FG_Period == 0);
  2085  0494  2C96               	goto	l9708
  2086                           	
  2087  0495                     l4102:	
  2088  0495  2C96               	goto	l9708
  2089                           	
  2090  0496                     l4101:	
  2091                           	
  2092  0496                     l9708:	
  2093  0496  1283               	bcf	status, 5	;RP0=0, select bank0
  2094  0497  1303               	bcf	status, 6	;RP1=0, select bank0
  2095  0498  0850               	movf	(_Flag_FG_Period),w
  2096  0499  1D03               	skipz
  2097  049A  2C9C               	goto	u4000
  2098  049B  2C96               	goto	l9708
  2099  049C                     u4000:
  2100                           	
  2101  049C                     l4103:	
  2102                           	line	75
  2103                           ;work.c: 75: Flag_FG_Period=0;
  2104  049C  01D0               	clrf	(_Flag_FG_Period)
  2105                           	line	76
  2106                           ;work.c: 76: GIE=0;
  2107  049D  138B               	bcf	(95/8),(95)&7
  2108                           	line	77
  2109                           	
  2110  049E                     l9710:	
  2111                           ;work.c: 77: if(Flag_FG_Period_time>25)
  2112  049E  3000               	movlw	high(01Ah)
  2113  049F  0229               	subwf	(_Flag_FG_Period_time+1),w
  2114  04A0  301A               	movlw	low(01Ah)
  2115  04A1  1903               	skipnz
  2116  04A2  0228               	subwf	(_Flag_FG_Period_time),w
  2117  04A3  1C03               	skipc
  2118  04A4  2CA6               	goto	u4011
  2119  04A5  2CA7               	goto	u4010
  2120  04A6                     u4011:
  2121  04A6  2CC6               	goto	l9722
  2122  04A7                     u4010:
  2123                           	line	79
  2124                           	
  2125  04A7                     l9712:	
  2126                           ;work.c: 78: {
  2127                           ;work.c: 79: VOLT=VOLT+1;
  2128  04A7  084E               	movf	(_VOLT),w
  2129  04A8  3E01               	addlw	low(01h)
  2130  04A9  00CE               	movwf	(_VOLT)
  2131  04AA  084F               	movf	(_VOLT+1),w
  2132  04AB  1803               	skipnc
  2133  04AC  3E01               	addlw	1
  2134  04AD  3E00               	addlw	high(01h)
  2135  04AE  00CF               	movwf	1+(_VOLT)
  2136                           	line	80
  2137                           	
  2138  04AF                     l9714:	
  2139                           ;work.c: 80: VOLT_H=(VOLT&0xFF00)>>8;
  2140  04AF  084F               	movf	(_VOLT+1),w
  2141  04B0  00CA               	movwf	(??_Motor_adjusting_speed+0)+0
  2142  04B1  084A               	movf	(??_Motor_adjusting_speed+0)+0,w
  2143  04B2  00C0               	movwf	(_VOLT_H)
  2144                           	line	81
  2145                           	
  2146  04B3                     l9716:	
  2147                           ;work.c: 81: VOLT_L=VOLT&0x00FF;
  2148  04B3  084E               	movf	(_VOLT),w
  2149  04B4  00CA               	movwf	(??_Motor_adjusting_speed+0)+0
  2150  04B5  084A               	movf	(??_Motor_adjusting_speed+0)+0,w
  2151  04B6  00C1               	movwf	(_VOLT_L)
  2152                           	line	82
  2153                           	
  2154  04B7                     l9718:	
  2155                           ;work.c: 82: write_IIC(VOLT_H,VOLT_L );
  2156  04B7  0841               	movf	(_VOLT_L),w
  2157  04B8  00CA               	movwf	(??_Motor_adjusting_speed+0)+0
  2158  04B9  084A               	movf	(??_Motor_adjusting_speed+0)+0,w
  2159  04BA  00C6               	movwf	(?_write_IIC)
  2160  04BB  0840               	movf	(_VOLT_H),w
  2161  04BC  120A  118A  22F3   	fcall	_write_IIC
              120A  118A         
  2162                           	line	83
  2163                           	
  2164  04C1                     l9720:	
  2165                           ;work.c: 83: FG_Period_time=0;
  2166  04C1  1283               	bcf	status, 5	;RP0=0, select bank0
  2167  04C2  1303               	bcf	status, 6	;RP1=0, select bank0
  2168  04C3  01A6               	clrf	(_FG_Period_time)
  2169  04C4  01A7               	clrf	(_FG_Period_time+1)
  2170  04C5  2CC6               	goto	l9722
  2171                           	line	84
  2172                           	
  2173  04C6                     l4104:	
  2174                           	line	85
  2175                           	
  2176  04C6                     l9722:	
  2177                           ;work.c: 84: }
  2178                           ;work.c: 85: if(Flag_FG_Period_time<10)
  2179  04C6  3000               	movlw	high(0Ah)
  2180  04C7  0229               	subwf	(_Flag_FG_Period_time+1),w
  2181  04C8  300A               	movlw	low(0Ah)
  2182  04C9  1903               	skipnz
  2183  04CA  0228               	subwf	(_Flag_FG_Period_time),w
  2184  04CB  1803               	skipnc
  2185  04CC  2CCE               	goto	u4021
  2186  04CD  2CCF               	goto	u4020
  2187  04CE                     u4021:
  2188  04CE  2CEE               	goto	l9734
  2189  04CF                     u4020:
  2190                           	line	87
  2191                           	
  2192  04CF                     l9724:	
  2193                           ;work.c: 86: {
  2194                           ;work.c: 87: VOLT=VOLT-1;
  2195  04CF  084E               	movf	(_VOLT),w
  2196  04D0  3EFF               	addlw	low(0FFFFh)
  2197  04D1  00CE               	movwf	(_VOLT)
  2198  04D2  084F               	movf	(_VOLT+1),w
  2199  04D3  1803               	skipnc
  2200  04D4  3E01               	addlw	1
  2201  04D5  3EFF               	addlw	high(0FFFFh)
  2202  04D6  00CF               	movwf	1+(_VOLT)
  2203                           	line	88
  2204                           	
  2205  04D7                     l9726:	
  2206                           ;work.c: 88: VOLT_H=(VOLT&0xFF00)>>8;
  2207  04D7  084F               	movf	(_VOLT+1),w
  2208  04D8  00CA               	movwf	(??_Motor_adjusting_speed+0)+0
  2209  04D9  084A               	movf	(??_Motor_adjusting_speed+0)+0,w
  2210  04DA  00C0               	movwf	(_VOLT_H)
  2211                           	line	89
  2212                           	
  2213  04DB                     l9728:	
  2214                           ;work.c: 89: VOLT_L=VOLT&0x00FF;
  2215  04DB  084E               	movf	(_VOLT),w
  2216  04DC  00CA               	movwf	(??_Motor_adjusting_speed+0)+0
  2217  04DD  084A               	movf	(??_Motor_adjusting_speed+0)+0,w
  2218  04DE  00C1               	movwf	(_VOLT_L)
  2219                           	line	90
  2220                           	
  2221  04DF                     l9730:	
  2222                           ;work.c: 90: write_IIC(VOLT_H,VOLT_L );
  2223  04DF  0841               	movf	(_VOLT_L),w
  2224  04E0  00CA               	movwf	(??_Motor_adjusting_speed+0)+0
  2225  04E1  084A               	movf	(??_Motor_adjusting_speed+0)+0,w
  2226  04E2  00C6               	movwf	(?_write_IIC)
  2227  04E3  0840               	movf	(_VOLT_H),w
  2228  04E4  120A  118A  22F3   	fcall	_write_IIC
              120A  118A         
  2229                           	line	91
  2230                           	
  2231  04E9                     l9732:	
  2232                           ;work.c: 91: FG_Period_time=0;
  2233  04E9  1283               	bcf	status, 5	;RP0=0, select bank0
  2234  04EA  1303               	bcf	status, 6	;RP1=0, select bank0
  2235  04EB  01A6               	clrf	(_FG_Period_time)
  2236  04EC  01A7               	clrf	(_FG_Period_time+1)
  2237  04ED  2CEE               	goto	l9734
  2238                           	line	92
  2239                           	
  2240  04EE                     l4105:	
  2241                           	line	93
  2242                           	
  2243  04EE                     l9734:	
  2244                           ;work.c: 92: }
  2245                           ;work.c: 93: GIE=1;
  2246  04EE  178B               	bsf	(95/8),(95)&7
  2247                           	line	94
  2248                           	
  2249  04EF                     l4106:	
  2250  04EF  0008               	return
  2251                           	opt stack 0
  2252                           GLOBAL	__end_of_Motor_adjusting_speed
  2253  04F0                     	__end_of_Motor_adjusting_speed:
  2254 ;; =============== function _Motor_adjusting_speed ends ============
  2255                           
  2256                           	signat	_Motor_adjusting_speed,88
  2257                           	global	_The_Close
  2258                           psect	text805,local,class=CODE,delta=2
  2259                           global __ptext805
  2260  0636                     __ptext805:
  2261                           
  2262 ;; *************** function _The_Close *****************
  2263 ;; Defined at:
  2264 ;;		line 133 in file "main.c"
  2265 ;; Parameters:    Size  Location     Type
  2266 ;;		None
  2267 ;; Auto vars:     Size  Location     Type
  2268 ;;		None
  2269 ;; Return value:  Size  Location     Type
  2270 ;;		None               void
  2271 ;; Registers used:
  2272 ;;		wreg, status,2, status,0, pclath, cstack
  2273 ;; Tracked objects:
  2274 ;;		On entry : 0/0
  2275 ;;		On exit  : 0/0
  2276 ;;		Unchanged: 0/0
  2277 ;; Data sizes:     COMMON   BANK0   BANK1   BANK3   BANK2
  2278 ;;      Params:         0       0       0       0       0
  2279 ;;      Locals:         0       0       0       0       0
  2280 ;;      Temps:          0       0       0       0       0
  2281 ;;      Totals:         0       0       0       0       0
  2282 ;;Total ram usage:        0 bytes
  2283 ;; Hardware stack levels used:    1
  2284 ;; Hardware stack levels required when called:    3
  2285 ;; This function calls:
  2286 ;;		_delaynms
  2287 ;; This function is called by:
  2288 ;;		_main
  2289 ;; This function uses a non-reentrant model
  2290 ;;
  2291                           psect	text805
  2292                           	file	"main.c"
  2293                           	line	133
  2294                           	global	__size_of_The_Close
  2295  0024                     	__size_of_The_Close	equ	__end_of_The_Close-_The_Close
  2296                           	
  2297  0636                     _The_Close:	
  2298                           	opt	stack 4
  2299                           ; Regs used in _The_Close: [wreg+status,2+status,0+pclath+cstack]
  2300                           	line	134
  2301                           	
  2302  0636                     l9684:	
  2303                           ;main.c: 134: kai = 0;
  2304  0636  1283               	bcf	status, 5	;RP0=0, select bank0
  2305  0637  1303               	bcf	status, 6	;RP1=0, select bank0
  2306  0638  01C3               	clrf	(_kai)
  2307                           	line	135
  2308                           ;main.c: 135: Stop_Flag = 0;
  2309  0639  01BF               	clrf	(_Stop_Flag)
  2310                           	line	136
  2311                           ;main.c: 136: Start_Flag = 0;
  2312  063A  01BD               	clrf	(_Start_Flag)
  2313                           	line	137
  2314                           ;main.c: 137: Initial_Flag = 0;
  2315  063B  01B5               	clrf	(_Initial_Flag)
  2316                           	line	138
  2317                           ;main.c: 138: Work_Flag = 0;
  2318  063C  01FA               	clrf	(_Work_Flag)
  2319                           	line	139
  2320                           	
  2321  063D                     l9686:	
  2322                           ;main.c: 139: VOLT=1150;
  2323  063D  307E               	movlw	low(047Eh)
  2324  063E  00CE               	movwf	(_VOLT)
  2325  063F  3004               	movlw	high(047Eh)
  2326  0640  00CF               	movwf	((_VOLT))+1
  2327                           	line	140
  2328                           	
  2329  0641                     l9688:	
  2330                           ;main.c: 140: Open_Cover_Flag = 0;
  2331  0641  01BC               	clrf	(_Open_Cover_Flag)
  2332                           	line	141
  2333                           	
  2334  0642                     l9690:	
  2335                           ;main.c: 141: Open_Cover_times = 0;
  2336  0642  01AE               	clrf	(_Open_Cover_times)
  2337  0643  01AF               	clrf	(_Open_Cover_times+1)
  2338                           	line	142
  2339                           	
  2340  0644                     l9692:	
  2341                           ;main.c: 142: PORTAbits.RA2 = 1;asm ("NOP");
  2342  0644  1505               	bsf	(5),2	;volatile
  2343                           	
  2344  0645                     l9694:	
  2345                           # 142 "main.c"
  2346  0645  0000               NOP ;#
  2347                           psect	text805
  2348                           	line	143
  2349                           	
  2350  0646                     l9696:	
  2351                           ;main.c: 143: delaynms(10);
  2352  0646  300A               	movlw	low(0Ah)
  2353  0647  1283               	bcf	status, 5	;RP0=0, select bank0
  2354  0648  1303               	bcf	status, 6	;RP1=0, select bank0
  2355  0649  00C4               	movwf	(?_delaynms)
  2356  064A  3000               	movlw	high(0Ah)
  2357  064B  00C5               	movwf	((?_delaynms))+1
  2358  064C  120A  118A  2585   	fcall	_delaynms
              120A  118A         
  2359                           	line	144
  2360                           	
  2361  0651                     l9698:	
  2362                           ;main.c: 144: PORTAbits.RA2 = 0;asm ("NOP");
  2363  0651  1283               	bcf	status, 5	;RP0=0, select bank0
  2364  0652  1303               	bcf	status, 6	;RP1=0, select bank0
  2365  0653  1105               	bcf	(5),2	;volatile
  2366                           	
  2367  0654                     l9700:	
  2368                           # 144 "main.c"
  2369  0654  0000               NOP ;#
  2370                           psect	text805
  2371                           	line	145
  2372                           	
  2373  0655                     l9702:	
  2374                           ;main.c: 145: Key_Run = 0;
  2375  0655  1283               	bcf	status, 5	;RP0=0, select bank0
  2376  0656  1303               	bcf	status, 6	;RP1=0, select bank0
  2377  0657  01B6               	clrf	(_Key_Run)
  2378                           	line	146
  2379                           	
  2380  0658                     l9704:	
  2381                           ;main.c: 146: Once = 0;
  2382  0658  01B8               	clrf	(_Once)
  2383                           	line	147
  2384                           	
  2385  0659                     l3106:	
  2386  0659  0008               	return
  2387                           	opt stack 0
  2388                           GLOBAL	__end_of_The_Close
  2389  065A                     	__end_of_The_Close:
  2390 ;; =============== function _The_Close ends ============
  2391                           
  2392                           	signat	_The_Close,88
  2393                           	global	_write_IIC
  2394                           psect	text806,local,class=CODE,delta=2
  2395                           global __ptext806
  2396  02F3                     __ptext806:
  2397                           
  2398 ;; *************** function _write_IIC *****************
  2399 ;; Defined at:
  2400 ;;		line 5 in file "IIC.c"
  2401 ;; Parameters:    Size  Location     Type
  2402 ;;  wdate_H         1    wreg     unsigned char 
  2403 ;;  wdate_L         1    2[BANK0 ] unsigned char 
  2404 ;; Auto vars:     Size  Location     Type
  2405 ;;  wdate_H         1    3[BANK0 ] unsigned char 
  2406 ;;  t               2    4[BANK0 ] int 
  2407 ;; Return value:  Size  Location     Type
  2408 ;;		None               void
  2409 ;; Registers used:
  2410 ;;		wreg, status,2, status,0, btemp+1, pclath, cstack
  2411 ;; Tracked objects:
  2412 ;;		On entry : 0/0
  2413 ;;		On exit  : 0/0
  2414 ;;		Unchanged: 0/0
  2415 ;; Data sizes:     COMMON   BANK0   BANK1   BANK3   BANK2
  2416 ;;      Params:         0       1       0       0       0
  2417 ;;      Locals:         0       3       0       0       0
  2418 ;;      Temps:          0       0       0       0       0
  2419 ;;      Totals:         0       4       0       0       0
  2420 ;;Total ram usage:        4 bytes
  2421 ;; Hardware stack levels used:    1
  2422 ;; Hardware stack levels required when called:    3
  2423 ;; This function calls:
  2424 ;;		_Delay
  2425 ;; This function is called by:
  2426 ;;		_main
  2427 ;;		_MotorClose
  2428 ;;		_Motor_adjusting_speed
  2429 ;;		_MotorStart
  2430 ;; This function uses a non-reentrant model
  2431 ;;
  2432                           psect	text806
  2433                           	file	"IIC.c"
  2434                           	line	5
  2435                           	global	__size_of_write_IIC
  2436  00E0                     	__size_of_write_IIC	equ	__end_of_write_IIC-_write_IIC
  2437                           	
  2438  02F3                     _write_IIC:	
  2439                           	opt	stack 3
  2440                           ; Regs used in _write_IIC: [wreg+status,2+status,0+btemp+1+pclath+cstack]
  2441                           ;write_IIC@wdate_H stored from wreg
  2442  02F3  1283               	bcf	status, 5	;RP0=0, select bank0
  2443  02F4  1303               	bcf	status, 6	;RP1=0, select bank0
  2444  02F5  00C7               	movwf	(write_IIC@wdate_H)
  2445                           	line	6
  2446                           	
  2447  02F6                     l9614:	
  2448                           ;IIC.c: 6: int t=0;
  2449  02F6  01C8               	clrf	(write_IIC@t)
  2450  02F7  01C9               	clrf	(write_IIC@t+1)
  2451                           	line	7
  2452                           	
  2453  02F8                     l9616:	
  2454                           ;IIC.c: 7: SSPIF=0;
  2455  02F8  118C               	bcf	(99/8),(99)&7
  2456                           	line	8
  2457                           	
  2458  02F9                     l9618:	
  2459                           ;IIC.c: 8: SEN=1;
  2460  02F9  1683               	bsf	status, 5	;RP0=1, select bank1
  2461  02FA  1303               	bcf	status, 6	;RP1=0, select bank1
  2462  02FB  1411               	bsf	(1160/8)^080h,(1160)&7
  2463                           	line	9
  2464                           ;IIC.c: 9: while(SSPIF==0)
  2465  02FC  2B13               	goto	l5085
  2466                           	
  2467  02FD                     l5086:	
  2468                           	line	11
  2469                           	
  2470  02FD                     l9620:	
  2471                           ;IIC.c: 10: {
  2472                           ;IIC.c: 11: t++;
  2473  02FD  3001               	movlw	low(01h)
  2474  02FE  1283               	bcf	status, 5	;RP0=0, select bank0
  2475  02FF  07C8               	addwf	(write_IIC@t),f
  2476  0300  1803               	skipnc
  2477  0301  0AC9               	incf	(write_IIC@t+1),f
  2478  0302  3000               	movlw	high(01h)
  2479  0303  07C9               	addwf	(write_IIC@t+1),f
  2480                           	line	12
  2481                           	
  2482  0304                     l9622:	
  2483                           ;IIC.c: 12: if(t > 1000) break;
  2484  0304  0849               	movf	(write_IIC@t+1),w
  2485  0305  3A80               	xorlw	80h
  2486  0306  00FF               	movwf	btemp+1
  2487  0307  3083               	movlw	(high(03E9h))^80h
  2488  0308  027F               	subwf	btemp+1,w
  2489  0309  1D03               	skipz
  2490  030A  2B0D               	goto	u3905
  2491  030B  30E9               	movlw	low(03E9h)
  2492  030C  0248               	subwf	(write_IIC@t),w
  2493  030D                     u3905:
  2494                           
  2495  030D  1C03               	skipc
  2496  030E  2B10               	goto	u3901
  2497  030F  2B11               	goto	u3900
  2498  0310                     u3901:
  2499  0310  2B13               	goto	l5085
  2500  0311                     u3900:
  2501  0311  2B1A               	goto	l9626
  2502                           	
  2503  0312                     l9624:	
  2504  0312  2B1A               	goto	l9626
  2505                           	
  2506  0313                     l5087:	
  2507                           	line	13
  2508                           	
  2509  0313                     l5085:	
  2510                           	line	9
  2511  0313  1283               	bcf	status, 5	;RP0=0, select bank0
  2512  0314  1303               	bcf	status, 6	;RP1=0, select bank0
  2513  0315  1D8C               	btfss	(99/8),(99)&7
  2514  0316  2B18               	goto	u3911
  2515  0317  2B19               	goto	u3910
  2516  0318                     u3911:
  2517  0318  2AFD               	goto	l9620
  2518  0319                     u3910:
  2519  0319  2B1A               	goto	l9626
  2520                           	
  2521  031A                     l5088:	
  2522                           	line	14
  2523                           	
  2524  031A                     l9626:	
  2525                           ;IIC.c: 13: }
  2526                           ;IIC.c: 14: t=0;
  2527  031A  1283               	bcf	status, 5	;RP0=0, select bank0
  2528  031B  1303               	bcf	status, 6	;RP1=0, select bank0
  2529  031C  01C8               	clrf	(write_IIC@t)
  2530  031D  01C9               	clrf	(write_IIC@t+1)
  2531                           	line	15
  2532                           	
  2533  031E                     l9628:	
  2534                           ;IIC.c: 15: SSPIF=0;
  2535  031E  118C               	bcf	(99/8),(99)&7
  2536                           	line	17
  2537                           	
  2538  031F                     l9630:	
  2539                           ;IIC.c: 17: SSPBUF=0X98;
  2540  031F  3098               	movlw	(098h)
  2541  0320  0093               	movwf	(19)	;volatile
  2542                           	line	18
  2543                           	
  2544  0321                     l9632:	
  2545                           ;IIC.c: 18: Delay(1);
  2546  0321  3001               	movlw	low(01h)
  2547  0322  00C4               	movwf	(?_Delay)
  2548  0323  3000               	movlw	high(01h)
  2549  0324  00C5               	movwf	((?_Delay))+1
  2550  0325  120A  118A  26C0   	fcall	_Delay
              120A  118A         
  2551                           	line	19
  2552                           ;IIC.c: 19: while(SSPIF==0)
  2553  032A  2B42               	goto	l5089
  2554                           	
  2555  032B                     l5090:	
  2556                           	line	21
  2557                           	
  2558  032B                     l9634:	
  2559                           ;IIC.c: 20: {
  2560                           ;IIC.c: 21: t++;
  2561  032B  3001               	movlw	low(01h)
  2562  032C  1283               	bcf	status, 5	;RP0=0, select bank0
  2563  032D  1303               	bcf	status, 6	;RP1=0, select bank0
  2564  032E  07C8               	addwf	(write_IIC@t),f
  2565  032F  1803               	skipnc
  2566  0330  0AC9               	incf	(write_IIC@t+1),f
  2567  0331  3000               	movlw	high(01h)
  2568  0332  07C9               	addwf	(write_IIC@t+1),f
  2569                           	line	22
  2570                           	
  2571  0333                     l9636:	
  2572                           ;IIC.c: 22: if(t > 1000) break;
  2573  0333  0849               	movf	(write_IIC@t+1),w
  2574  0334  3A80               	xorlw	80h
  2575  0335  00FF               	movwf	btemp+1
  2576  0336  3083               	movlw	(high(03E9h))^80h
  2577  0337  027F               	subwf	btemp+1,w
  2578  0338  1D03               	skipz
  2579  0339  2B3C               	goto	u3925
  2580  033A  30E9               	movlw	low(03E9h)
  2581  033B  0248               	subwf	(write_IIC@t),w
  2582  033C                     u3925:
  2583                           
  2584  033C  1C03               	skipc
  2585  033D  2B3F               	goto	u3921
  2586  033E  2B40               	goto	u3920
  2587  033F                     u3921:
  2588  033F  2B42               	goto	l5089
  2589  0340                     u3920:
  2590  0340  2B49               	goto	l9640
  2591                           	
  2592  0341                     l9638:	
  2593  0341  2B49               	goto	l9640
  2594                           	
  2595  0342                     l5091:	
  2596                           	line	23
  2597                           	
  2598  0342                     l5089:	
  2599                           	line	19
  2600  0342  1283               	bcf	status, 5	;RP0=0, select bank0
  2601  0343  1303               	bcf	status, 6	;RP1=0, select bank0
  2602  0344  1D8C               	btfss	(99/8),(99)&7
  2603  0345  2B47               	goto	u3931
  2604  0346  2B48               	goto	u3930
  2605  0347                     u3931:
  2606  0347  2B2B               	goto	l9634
  2607  0348                     u3930:
  2608  0348  2B49               	goto	l9640
  2609                           	
  2610  0349                     l5092:	
  2611                           	line	24
  2612                           	
  2613  0349                     l9640:	
  2614                           ;IIC.c: 23: }
  2615                           ;IIC.c: 24: t=0;
  2616  0349  1283               	bcf	status, 5	;RP0=0, select bank0
  2617  034A  1303               	bcf	status, 6	;RP1=0, select bank0
  2618  034B  01C8               	clrf	(write_IIC@t)
  2619  034C  01C9               	clrf	(write_IIC@t+1)
  2620                           	line	25
  2621                           	
  2622  034D                     l9642:	
  2623                           ;IIC.c: 25: SSPIF=0;
  2624  034D  118C               	bcf	(99/8),(99)&7
  2625                           	line	27
  2626                           	
  2627  034E                     l9644:	
  2628                           ;IIC.c: 27: SSPBUF=wdate_H;
  2629  034E  0847               	movf	(write_IIC@wdate_H),w
  2630  034F  0093               	movwf	(19)	;volatile
  2631                           	line	28
  2632                           	
  2633  0350                     l9646:	
  2634                           ;IIC.c: 28: Delay(1);
  2635  0350  3001               	movlw	low(01h)
  2636  0351  00C4               	movwf	(?_Delay)
  2637  0352  3000               	movlw	high(01h)
  2638  0353  00C5               	movwf	((?_Delay))+1
  2639  0354  120A  118A  26C0   	fcall	_Delay
              120A  118A         
  2640                           	line	29
  2641                           ;IIC.c: 29: while(SSPIF==0)
  2642  0359  2B71               	goto	l5093
  2643                           	
  2644  035A                     l5094:	
  2645                           	line	31
  2646                           	
  2647  035A                     l9648:	
  2648                           ;IIC.c: 30: {
  2649                           ;IIC.c: 31: t++;
  2650  035A  3001               	movlw	low(01h)
  2651  035B  1283               	bcf	status, 5	;RP0=0, select bank0
  2652  035C  1303               	bcf	status, 6	;RP1=0, select bank0
  2653  035D  07C8               	addwf	(write_IIC@t),f
  2654  035E  1803               	skipnc
  2655  035F  0AC9               	incf	(write_IIC@t+1),f
  2656  0360  3000               	movlw	high(01h)
  2657  0361  07C9               	addwf	(write_IIC@t+1),f
  2658                           	line	32
  2659                           	
  2660  0362                     l9650:	
  2661                           ;IIC.c: 32: if(t > 1000) break;
  2662  0362  0849               	movf	(write_IIC@t+1),w
  2663  0363  3A80               	xorlw	80h
  2664  0364  00FF               	movwf	btemp+1
  2665  0365  3083               	movlw	(high(03E9h))^80h
  2666  0366  027F               	subwf	btemp+1,w
  2667  0367  1D03               	skipz
  2668  0368  2B6B               	goto	u3945
  2669  0369  30E9               	movlw	low(03E9h)
  2670  036A  0248               	subwf	(write_IIC@t),w
  2671  036B                     u3945:
  2672                           
  2673  036B  1C03               	skipc
  2674  036C  2B6E               	goto	u3941
  2675  036D  2B6F               	goto	u3940
  2676  036E                     u3941:
  2677  036E  2B71               	goto	l5093
  2678  036F                     u3940:
  2679  036F  2B78               	goto	l9654
  2680                           	
  2681  0370                     l9652:	
  2682  0370  2B78               	goto	l9654
  2683                           	
  2684  0371                     l5095:	
  2685                           	line	33
  2686                           	
  2687  0371                     l5093:	
  2688                           	line	29
  2689  0371  1283               	bcf	status, 5	;RP0=0, select bank0
  2690  0372  1303               	bcf	status, 6	;RP1=0, select bank0
  2691  0373  1D8C               	btfss	(99/8),(99)&7
  2692  0374  2B76               	goto	u3951
  2693  0375  2B77               	goto	u3950
  2694  0376                     u3951:
  2695  0376  2B5A               	goto	l9648
  2696  0377                     u3950:
  2697  0377  2B78               	goto	l9654
  2698                           	
  2699  0378                     l5096:	
  2700                           	line	34
  2701                           	
  2702  0378                     l9654:	
  2703                           ;IIC.c: 33: }
  2704                           ;IIC.c: 34: t=0;
  2705  0378  1283               	bcf	status, 5	;RP0=0, select bank0
  2706  0379  1303               	bcf	status, 6	;RP1=0, select bank0
  2707  037A  01C8               	clrf	(write_IIC@t)
  2708  037B  01C9               	clrf	(write_IIC@t+1)
  2709                           	line	35
  2710                           	
  2711  037C                     l9656:	
  2712                           ;IIC.c: 35: SSPIF=0;
  2713  037C  118C               	bcf	(99/8),(99)&7
  2714                           	line	37
  2715                           	
  2716  037D                     l9658:	
  2717                           ;IIC.c: 37: SSPBUF=wdate_L;
  2718  037D  0846               	movf	(write_IIC@wdate_L),w
  2719  037E  0093               	movwf	(19)	;volatile
  2720                           	line	38
  2721                           	
  2722  037F                     l9660:	
  2723                           ;IIC.c: 38: Delay(1);
  2724  037F  3001               	movlw	low(01h)
  2725  0380  00C4               	movwf	(?_Delay)
  2726  0381  3000               	movlw	high(01h)
  2727  0382  00C5               	movwf	((?_Delay))+1
  2728  0383  120A  118A  26C0   	fcall	_Delay
              120A  118A         
  2729                           	line	39
  2730                           ;IIC.c: 39: while(SSPIF==0)
  2731  0388  2BA0               	goto	l5097
  2732                           	
  2733  0389                     l5098:	
  2734                           	line	41
  2735                           	
  2736  0389                     l9662:	
  2737                           ;IIC.c: 40: {
  2738                           ;IIC.c: 41: t++;
  2739  0389  3001               	movlw	low(01h)
  2740  038A  1283               	bcf	status, 5	;RP0=0, select bank0
  2741  038B  1303               	bcf	status, 6	;RP1=0, select bank0
  2742  038C  07C8               	addwf	(write_IIC@t),f
  2743  038D  1803               	skipnc
  2744  038E  0AC9               	incf	(write_IIC@t+1),f
  2745  038F  3000               	movlw	high(01h)
  2746  0390  07C9               	addwf	(write_IIC@t+1),f
  2747                           	line	42
  2748                           	
  2749  0391                     l9664:	
  2750                           ;IIC.c: 42: if(t > 1000) break;
  2751  0391  0849               	movf	(write_IIC@t+1),w
  2752  0392  3A80               	xorlw	80h
  2753  0393  00FF               	movwf	btemp+1
  2754  0394  3083               	movlw	(high(03E9h))^80h
  2755  0395  027F               	subwf	btemp+1,w
  2756  0396  1D03               	skipz
  2757  0397  2B9A               	goto	u3965
  2758  0398  30E9               	movlw	low(03E9h)
  2759  0399  0248               	subwf	(write_IIC@t),w
  2760  039A                     u3965:
  2761                           
  2762  039A  1C03               	skipc
  2763  039B  2B9D               	goto	u3961
  2764  039C  2B9E               	goto	u3960
  2765  039D                     u3961:
  2766  039D  2BA0               	goto	l5097
  2767  039E                     u3960:
  2768  039E  2BA7               	goto	l9668
  2769                           	
  2770  039F                     l9666:	
  2771  039F  2BA7               	goto	l9668
  2772                           	
  2773  03A0                     l5099:	
  2774                           	line	43
  2775                           	
  2776  03A0                     l5097:	
  2777                           	line	39
  2778  03A0  1283               	bcf	status, 5	;RP0=0, select bank0
  2779  03A1  1303               	bcf	status, 6	;RP1=0, select bank0
  2780  03A2  1D8C               	btfss	(99/8),(99)&7
  2781  03A3  2BA5               	goto	u3971
  2782  03A4  2BA6               	goto	u3970
  2783  03A5                     u3971:
  2784  03A5  2B89               	goto	l9662
  2785  03A6                     u3970:
  2786  03A6  2BA7               	goto	l9668
  2787                           	
  2788  03A7                     l5100:	
  2789                           	line	44
  2790                           	
  2791  03A7                     l9668:	
  2792                           ;IIC.c: 43: }
  2793                           ;IIC.c: 44: t=0;
  2794  03A7  1283               	bcf	status, 5	;RP0=0, select bank0
  2795  03A8  1303               	bcf	status, 6	;RP1=0, select bank0
  2796  03A9  01C8               	clrf	(write_IIC@t)
  2797  03AA  01C9               	clrf	(write_IIC@t+1)
  2798                           	line	45
  2799                           	
  2800  03AB                     l9670:	
  2801                           ;IIC.c: 45: SSPIF=0;
  2802  03AB  118C               	bcf	(99/8),(99)&7
  2803                           	line	47
  2804                           	
  2805  03AC                     l9672:	
  2806                           ;IIC.c: 47: PEN=1;
  2807  03AC  1683               	bsf	status, 5	;RP0=1, select bank1
  2808  03AD  1303               	bcf	status, 6	;RP1=0, select bank1
  2809  03AE  1511               	bsf	(1162/8)^080h,(1162)&7
  2810                           	line	48
  2811                           ;IIC.c: 48: while(SSPIF==0)
  2812  03AF  2BC6               	goto	l5101
  2813                           	
  2814  03B0                     l5102:	
  2815                           	line	50
  2816                           	
  2817  03B0                     l9674:	
  2818                           ;IIC.c: 49: {
  2819                           ;IIC.c: 50: t++;
  2820  03B0  3001               	movlw	low(01h)
  2821  03B1  1283               	bcf	status, 5	;RP0=0, select bank0
  2822  03B2  07C8               	addwf	(write_IIC@t),f
  2823  03B3  1803               	skipnc
  2824  03B4  0AC9               	incf	(write_IIC@t+1),f
  2825  03B5  3000               	movlw	high(01h)
  2826  03B6  07C9               	addwf	(write_IIC@t+1),f
  2827                           	line	51
  2828                           	
  2829  03B7                     l9676:	
  2830                           ;IIC.c: 51: if(t > 1000) break;
  2831  03B7  0849               	movf	(write_IIC@t+1),w
  2832  03B8  3A80               	xorlw	80h
  2833  03B9  00FF               	movwf	btemp+1
  2834  03BA  3083               	movlw	(high(03E9h))^80h
  2835  03BB  027F               	subwf	btemp+1,w
  2836  03BC  1D03               	skipz
  2837  03BD  2BC0               	goto	u3985
  2838  03BE  30E9               	movlw	low(03E9h)
  2839  03BF  0248               	subwf	(write_IIC@t),w
  2840  03C0                     u3985:
  2841                           
  2842  03C0  1C03               	skipc
  2843  03C1  2BC3               	goto	u3981
  2844  03C2  2BC4               	goto	u3980
  2845  03C3                     u3981:
  2846  03C3  2BC6               	goto	l5101
  2847  03C4                     u3980:
  2848  03C4  2BCD               	goto	l9680
  2849                           	
  2850  03C5                     l9678:	
  2851  03C5  2BCD               	goto	l9680
  2852                           	
  2853  03C6                     l5103:	
  2854                           	line	52
  2855                           	
  2856  03C6                     l5101:	
  2857                           	line	48
  2858  03C6  1283               	bcf	status, 5	;RP0=0, select bank0
  2859  03C7  1303               	bcf	status, 6	;RP1=0, select bank0
  2860  03C8  1D8C               	btfss	(99/8),(99)&7
  2861  03C9  2BCB               	goto	u3991
  2862  03CA  2BCC               	goto	u3990
  2863  03CB                     u3991:
  2864  03CB  2BB0               	goto	l9674
  2865  03CC                     u3990:
  2866  03CC  2BCD               	goto	l9680
  2867                           	
  2868  03CD                     l5104:	
  2869                           	line	53
  2870                           	
  2871  03CD                     l9680:	
  2872                           ;IIC.c: 52: }
  2873                           ;IIC.c: 53: t=0;
  2874  03CD  1283               	bcf	status, 5	;RP0=0, select bank0
  2875  03CE  1303               	bcf	status, 6	;RP1=0, select bank0
  2876  03CF  01C8               	clrf	(write_IIC@t)
  2877  03D0  01C9               	clrf	(write_IIC@t+1)
  2878                           	line	54
  2879                           	
  2880  03D1                     l9682:	
  2881                           ;IIC.c: 54: SSPIF=0;
  2882  03D1  118C               	bcf	(99/8),(99)&7
  2883                           	line	56
  2884                           	
  2885  03D2                     l5105:	
  2886  03D2  0008               	return
  2887                           	opt stack 0
  2888                           GLOBAL	__end_of_write_IIC
  2889  03D3                     	__end_of_write_IIC:
  2890 ;; =============== function _write_IIC ends ============
  2891                           
  2892                           	signat	_write_IIC,8312
  2893                           	global	_InitDevices
  2894                           psect	text807,local,class=CODE,delta=2
  2895                           global __ptext807
  2896  05E8                     __ptext807:
  2897                           
  2898 ;; *************** function _InitDevices *****************
  2899 ;; Defined at:
  2900 ;;		line 117 in file "InitDevices.c"
  2901 ;; Parameters:    Size  Location     Type
  2902 ;;		None
  2903 ;; Auto vars:     Size  Location     Type
  2904 ;;		None
  2905 ;; Return value:  Size  Location     Type
  2906 ;;		None               void
  2907 ;; Registers used:
  2908 ;;		wreg, status,2, status,0, pclath, cstack
  2909 ;; Tracked objects:
  2910 ;;		On entry : 0/0
  2911 ;;		On exit  : 0/0
  2912 ;;		Unchanged: 0/0
  2913 ;; Data sizes:     COMMON   BANK0   BANK1   BANK3   BANK2
  2914 ;;      Params:         0       0       0       0       0
  2915 ;;      Locals:         0       0       0       0       0
  2916 ;;      Temps:          0       0       0       0       0
  2917 ;;      Totals:         0       0       0       0       0
  2918 ;;Total ram usage:        0 bytes
  2919 ;; Hardware stack levels used:    1
  2920 ;; Hardware stack levels required when called:    3
  2921 ;; This function calls:
  2922 ;;		_systemOSC
  2923 ;;		_PortInit
  2924 ;;		_InitTimer1
  2925 ;;		_IIC_init
  2926 ;;		_InitialiseADC
  2927 ;;		_InitTimer2
  2928 ;;		_InitCn
  2929 ;; This function is called by:
  2930 ;;		_main
  2931 ;; This function uses a non-reentrant model
  2932 ;;
  2933                           psect	text807
  2934                           	file	"InitDevices.c"
  2935                           	line	117
  2936                           	global	__size_of_InitDevices
  2937  0029                     	__size_of_InitDevices	equ	__end_of_InitDevices-_InitDevices
  2938                           	
  2939  05E8                     _InitDevices:	
  2940                           	opt	stack 4
  2941                           ; Regs used in _InitDevices: [wreg+status,2+status,0+pclath+cstack]
  2942                           	line	118
  2943                           	
  2944  05E8                     l9606:	
  2945                           ;InitDevices.c: 118: systemOSC();
  2946  05E8  120A  118A  2713   	fcall	_systemOSC
              120A  118A         
  2947                           	line	119
  2948                           ;InitDevices.c: 119: PortInit();
  2949  05ED  120A  118A  26AB   	fcall	_PortInit
              120A  118A         
  2950                           	line	121
  2951                           ;InitDevices.c: 121: InitTimer1();
  2952  05F2  120A  118A  26D4   	fcall	_InitTimer1
              120A  118A         
  2953                           	line	122
  2954                           ;InitDevices.c: 122: IIC_init();
  2955  05F7  120A  118A  26E6   	fcall	_IIC_init
              120A  118A         
  2956                           	line	123
  2957                           ;InitDevices.c: 123: InitialiseADC();
  2958  05FC  120A  118A  2695   	fcall	_InitialiseADC
              120A  118A         
  2959                           	line	124
  2960                           ;InitDevices.c: 124: InitTimer2();
  2961  0601  120A  118A  26F6   	fcall	_InitTimer2
              120A  118A         
  2962                           	line	125
  2963                           ;InitDevices.c: 125: InitCn();
  2964  0606  120A  118A  270C   	fcall	_InitCn
              120A  118A         
  2965                           	line	126
  2966                           	
  2967  060B                     l9608:	
  2968                           ;InitDevices.c: 126: PEIE = 1;
  2969  060B  170B               	bsf	(94/8),(94)&7
  2970                           	line	127
  2971                           	
  2972  060C                     l9610:	
  2973                           ;InitDevices.c: 127: TMR1ON=1;
  2974  060C  1283               	bcf	status, 5	;RP0=0, select bank0
  2975  060D  1303               	bcf	status, 6	;RP1=0, select bank0
  2976  060E  1410               	bsf	(128/8),(128)&7
  2977                           	line	128
  2978                           	
  2979  060F                     l9612:	
  2980                           ;InitDevices.c: 128: GIE=1;
  2981  060F  178B               	bsf	(95/8),(95)&7
  2982                           	line	130
  2983                           	
  2984  0610                     l991:	
  2985  0610  0008               	return
  2986                           	opt stack 0
  2987                           GLOBAL	__end_of_InitDevices
  2988  0611                     	__end_of_InitDevices:
  2989 ;; =============== function _InitDevices ends ============
  2990                           
  2991                           	signat	_InitDevices,88
  2992                           	global	___lwdiv
  2993                           psect	text808,local,class=CODE,delta=2
  2994                           global __ptext808
  2995  04F0                     __ptext808:
  2996                           
  2997 ;; *************** function ___lwdiv *****************
  2998 ;; Defined at:
  2999 ;;		line 5 in file "C:\Program Files (x86)\HI-TECH Software\PICC\9.82\sources\lwdiv.c"
  3000 ;; Parameters:    Size  Location     Type
  3001 ;;  divisor         2    0[BANK0 ] unsigned int 
  3002 ;;  dividend        2    2[BANK0 ] unsigned int 
  3003 ;; Auto vars:     Size  Location     Type
  3004 ;;  quotient        2    6[BANK0 ] unsigned int 
  3005 ;;  counter         1    5[BANK0 ] unsigned char 
  3006 ;; Return value:  Size  Location     Type
  3007 ;;                  2    0[BANK0 ] unsigned int 
  3008 ;; Registers used:
  3009 ;;		wreg, status,2, status,0
  3010 ;; Tracked objects:
  3011 ;;		On entry : 0/0
  3012 ;;		On exit  : 0/0
  3013 ;;		Unchanged: 0/0
  3014 ;; Data sizes:     COMMON   BANK0   BANK1   BANK3   BANK2
  3015 ;;      Params:         0       4       0       0       0
  3016 ;;      Locals:         0       3       0       0       0
  3017 ;;      Temps:          0       1       0       0       0
  3018 ;;      Totals:         0       8       0       0       0
  3019 ;;Total ram usage:        8 bytes
  3020 ;; Hardware stack levels used:    1
  3021 ;; Hardware stack levels required when called:    2
  3022 ;; This function calls:
  3023 ;;		Nothing
  3024 ;; This function is called by:
  3025 ;;		_main
  3026 ;; This function uses a non-reentrant model
  3027 ;;
  3028                           psect	text808
  3029                           	file	"C:\Program Files (x86)\HI-TECH Software\PICC\9.82\sources\lwdiv.c"
  3030                           	line	5
  3031                           	global	__size_of___lwdiv
  3032  0050                     	__size_of___lwdiv	equ	__end_of___lwdiv-___lwdiv
  3033                           	
  3034  04F0                     ___lwdiv:	
  3035                           	opt	stack 5
  3036                           ; Regs used in ___lwdiv: [wreg+status,2+status,0]
  3037                           	line	9
  3038                           	
  3039  04F0                     l9580:	
  3040  04F0  1283               	bcf	status, 5	;RP0=0, select bank0
  3041  04F1  1303               	bcf	status, 6	;RP1=0, select bank0
  3042  04F2  01CA               	clrf	(___lwdiv@quotient)
  3043  04F3  01CB               	clrf	(___lwdiv@quotient+1)
  3044                           	line	10
  3045                           	
  3046  04F4                     l9582:	
  3047  04F4  0845               	movf	(___lwdiv@divisor+1),w
  3048  04F5  0444               	iorwf	(___lwdiv@divisor),w
  3049  04F6  1903               	skipnz
  3050  04F7  2CF9               	goto	u3831
  3051  04F8  2CFA               	goto	u3830
  3052  04F9                     u3831:
  3053  04F9  2D38               	goto	l9602
  3054  04FA                     u3830:
  3055                           	line	11
  3056                           	
  3057  04FA                     l9584:	
  3058  04FA  01C9               	clrf	(___lwdiv@counter)
  3059  04FB  1403               	bsf	status,0
  3060  04FC  0DC9               	rlf	(___lwdiv@counter),f
  3061                           	line	12
  3062  04FD  2D0A               	goto	l9590
  3063                           	
  3064  04FE                     l7050:	
  3065                           	line	13
  3066                           	
  3067  04FE                     l9586:	
  3068  04FE  3001               	movlw	01h
  3069                           	
  3070  04FF                     u3845:
  3071  04FF  1003               	clrc
  3072  0500  0DC4               	rlf	(___lwdiv@divisor),f
  3073  0501  0DC5               	rlf	(___lwdiv@divisor+1),f
  3074  0502  3EFF               	addlw	-1
  3075  0503  1D03               	skipz
  3076  0504  2CFF               	goto	u3845
  3077                           	line	14
  3078                           	
  3079  0505                     l9588:	
  3080  0505  3001               	movlw	(01h)
  3081  0506  00C8               	movwf	(??___lwdiv+0)+0
  3082  0507  0848               	movf	(??___lwdiv+0)+0,w
  3083  0508  07C9               	addwf	(___lwdiv@counter),f
  3084  0509  2D0A               	goto	l9590
  3085                           	line	15
  3086                           	
  3087  050A                     l7049:	
  3088                           	line	12
  3089                           	
  3090  050A                     l9590:	
  3091  050A  1FC5               	btfss	(___lwdiv@divisor+1),(15)&7
  3092  050B  2D0D               	goto	u3851
  3093  050C  2D0E               	goto	u3850
  3094  050D                     u3851:
  3095  050D  2CFE               	goto	l9586
  3096  050E                     u3850:
  3097  050E  2D10               	goto	l9592
  3098                           	
  3099  050F                     l7051:	
  3100  050F  2D10               	goto	l9592
  3101                           	line	16
  3102                           	
  3103  0510                     l7052:	
  3104                           	line	17
  3105                           	
  3106  0510                     l9592:	
  3107  0510  3001               	movlw	01h
  3108                           	
  3109  0511                     u3865:
  3110  0511  1003               	clrc
  3111  0512  0DCA               	rlf	(___lwdiv@quotient),f
  3112  0513  0DCB               	rlf	(___lwdiv@quotient+1),f
  3113  0514  3EFF               	addlw	-1
  3114  0515  1D03               	skipz
  3115  0516  2D11               	goto	u3865
  3116                           	line	18
  3117  0517  0845               	movf	(___lwdiv@divisor+1),w
  3118  0518  0247               	subwf	(___lwdiv@dividend+1),w
  3119  0519  1D03               	skipz
  3120  051A  2D1D               	goto	u3875
  3121  051B  0844               	movf	(___lwdiv@divisor),w
  3122  051C  0246               	subwf	(___lwdiv@dividend),w
  3123  051D                     u3875:
  3124  051D  1C03               	skipc
  3125  051E  2D20               	goto	u3871
  3126  051F  2D21               	goto	u3870
  3127  0520                     u3871:
  3128  0520  2D29               	goto	l9598
  3129  0521                     u3870:
  3130                           	line	19
  3131                           	
  3132  0521                     l9594:	
  3133  0521  0844               	movf	(___lwdiv@divisor),w
  3134  0522  02C6               	subwf	(___lwdiv@dividend),f
  3135  0523  0845               	movf	(___lwdiv@divisor+1),w
  3136  0524  1C03               	skipc
  3137  0525  03C7               	decf	(___lwdiv@dividend+1),f
  3138  0526  02C7               	subwf	(___lwdiv@dividend+1),f
  3139                           	line	20
  3140                           	
  3141  0527                     l9596:	
  3142  0527  144A               	bsf	(___lwdiv@quotient)+(0/8),(0)&7
  3143  0528  2D29               	goto	l9598
  3144                           	line	21
  3145                           	
  3146  0529                     l7053:	
  3147                           	line	22
  3148                           	
  3149  0529                     l9598:	
  3150  0529  3001               	movlw	01h
  3151                           	
  3152  052A                     u3885:
  3153  052A  1003               	clrc
  3154  052B  0CC5               	rrf	(___lwdiv@divisor+1),f
  3155  052C  0CC4               	rrf	(___lwdiv@divisor),f
  3156  052D  3EFF               	addlw	-1
  3157  052E  1D03               	skipz
  3158  052F  2D2A               	goto	u3885
  3159                           	line	23
  3160                           	
  3161  0530                     l9600:	
  3162  0530  3001               	movlw	low(01h)
  3163  0531  02C9               	subwf	(___lwdiv@counter),f
  3164  0532  1D03               	btfss	status,2
  3165  0533  2D35               	goto	u3891
  3166  0534  2D36               	goto	u3890
  3167  0535                     u3891:
  3168  0535  2D10               	goto	l9592
  3169  0536                     u3890:
  3170  0536  2D38               	goto	l9602
  3171                           	
  3172  0537                     l7054:	
  3173  0537  2D38               	goto	l9602
  3174                           	line	24
  3175                           	
  3176  0538                     l7048:	
  3177                           	line	25
  3178                           	
  3179  0538                     l9602:	
  3180  0538  084B               	movf	(___lwdiv@quotient+1),w
  3181  0539  01C5               	clrf	(?___lwdiv+1)
  3182  053A  07C5               	addwf	(?___lwdiv+1)
  3183  053B  084A               	movf	(___lwdiv@quotient),w
  3184  053C  01C4               	clrf	(?___lwdiv)
  3185  053D  07C4               	addwf	(?___lwdiv)
  3186                           
  3187  053E  2D3F               	goto	l7055
  3188                           	
  3189  053F                     l9604:	
  3190                           	line	26
  3191                           	
  3192  053F                     l7055:	
  3193  053F  0008               	return
  3194                           	opt stack 0
  3195                           GLOBAL	__end_of___lwdiv
  3196  0540                     	__end_of___lwdiv:
  3197 ;; =============== function ___lwdiv ends ============
  3198                           
  3199                           	signat	___lwdiv,8314
  3200                           	global	_Delay
  3201                           psect	text809,local,class=CODE,delta=2
  3202                           global __ptext809
  3203  06C0                     __ptext809:
  3204                           
  3205 ;; *************** function _Delay *****************
  3206 ;; Defined at:
  3207 ;;		line 98 in file "IIC.c"
  3208 ;; Parameters:    Size  Location     Type
  3209 ;;  n               2    0[BANK0 ] unsigned int 
  3210 ;; Auto vars:     Size  Location     Type
  3211 ;;		None
  3212 ;; Return value:  Size  Location     Type
  3213 ;;		None               void
  3214 ;; Registers used:
  3215 ;;		wreg, status,2, status,0
  3216 ;; Tracked objects:
  3217 ;;		On entry : 0/0
  3218 ;;		On exit  : 0/0
  3219 ;;		Unchanged: 0/0
  3220 ;; Data sizes:     COMMON   BANK0   BANK1   BANK3   BANK2
  3221 ;;      Params:         0       2       0       0       0
  3222 ;;      Locals:         0       0       0       0       0
  3223 ;;      Temps:          0       0       0       0       0
  3224 ;;      Totals:         0       2       0       0       0
  3225 ;;Total ram usage:        2 bytes
  3226 ;; Hardware stack levels used:    1
  3227 ;; Hardware stack levels required when called:    2
  3228 ;; This function calls:
  3229 ;;		Nothing
  3230 ;; This function is called by:
  3231 ;;		_write_IIC
  3232 ;; This function uses a non-reentrant model
  3233 ;;
  3234                           psect	text809
  3235                           	file	"IIC.c"
  3236                           	line	98
  3237                           	global	__size_of_Delay
  3238  0014                     	__size_of_Delay	equ	__end_of_Delay-_Delay
  3239                           	
  3240  06C0                     _Delay:	
  3241                           	opt	stack 3
  3242                           ; Regs used in _Delay: [wreg+status,2+status,0]
  3243                           	line	99
  3244                           	
  3245  06C0                     l9574:	
  3246                           ;IIC.c: 99: while(n)
  3247  06C0  2ECA               	goto	l9578
  3248                           	
  3249  06C1                     l5109:	
  3250                           	line	101
  3251                           	
  3252  06C1                     l9576:	
  3253                           ;IIC.c: 100: {
  3254                           ;IIC.c: 101: n--;
  3255  06C1  3001               	movlw	low(01h)
  3256  06C2  1283               	bcf	status, 5	;RP0=0, select bank0
  3257  06C3  1303               	bcf	status, 6	;RP1=0, select bank0
  3258  06C4  02C4               	subwf	(Delay@n),f
  3259  06C5  3000               	movlw	high(01h)
  3260  06C6  1C03               	skipc
  3261  06C7  03C5               	decf	(Delay@n+1),f
  3262  06C8  02C5               	subwf	(Delay@n+1),f
  3263  06C9  2ECA               	goto	l9578
  3264                           	line	102
  3265                           	
  3266  06CA                     l5108:	
  3267                           	line	99
  3268                           	
  3269  06CA                     l9578:	
  3270  06CA  1283               	bcf	status, 5	;RP0=0, select bank0
  3271  06CB  1303               	bcf	status, 6	;RP1=0, select bank0
  3272  06CC  0845               	movf	((Delay@n+1)),w
  3273  06CD  0444               	iorwf	((Delay@n)),w
  3274  06CE  1D03               	skipz
  3275  06CF  2ED1               	goto	u3821
  3276  06D0  2ED2               	goto	u3820
  3277  06D1                     u3821:
  3278  06D1  2EC1               	goto	l9576
  3279  06D2                     u3820:
  3280  06D2  2ED3               	goto	l5111
  3281                           	
  3282  06D3                     l5110:	
  3283                           	line	103
  3284                           	
  3285  06D3                     l5111:	
  3286  06D3  0008               	return
  3287                           	opt stack 0
  3288                           GLOBAL	__end_of_Delay
  3289  06D4                     	__end_of_Delay:
  3290 ;; =============== function _Delay ends ============
  3291                           
  3292                           	signat	_Delay,4216
  3293                           	global	_delaynms
  3294                           psect	text810,local,class=CODE,delta=2
  3295                           global __ptext810
  3296  0585                     __ptext810:
  3297                           
  3298 ;; *************** function _delaynms *****************
  3299 ;; Defined at:
  3300 ;;		line 107 in file "IIC.c"
  3301 ;; Parameters:    Size  Location     Type
  3302 ;;  n               2    0[BANK0 ] unsigned int 
  3303 ;; Auto vars:     Size  Location     Type
  3304 ;;  j               2    4[BANK0 ] unsigned int 
  3305 ;;  i               2    2[BANK0 ] unsigned int 
  3306 ;; Return value:  Size  Location     Type
  3307 ;;		None               void
  3308 ;; Registers used:
  3309 ;;		wreg, status,2
  3310 ;; Tracked objects:
  3311 ;;		On entry : 0/0
  3312 ;;		On exit  : 0/0
  3313 ;;		Unchanged: 0/0
  3314 ;; Data sizes:     COMMON   BANK0   BANK1   BANK3   BANK2
  3315 ;;      Params:         0       2       0       0       0
  3316 ;;      Locals:         0       4       0       0       0
  3317 ;;      Temps:          0       0       0       0       0
  3318 ;;      Totals:         0       6       0       0       0
  3319 ;;Total ram usage:        6 bytes
  3320 ;; Hardware stack levels used:    1
  3321 ;; Hardware stack levels required when called:    2
  3322 ;; This function calls:
  3323 ;;		Nothing
  3324 ;; This function is called by:
  3325 ;;		_main
  3326 ;;		_The_Close
  3327 ;;		_MotorClose
  3328 ;;		_MotorStart
  3329 ;; This function uses a non-reentrant model
  3330 ;;
  3331                           psect	text810
  3332                           	file	"IIC.c"
  3333                           	line	107
  3334                           	global	__size_of_delaynms
  3335  0034                     	__size_of_delaynms	equ	__end_of_delaynms-_delaynms
  3336                           	
  3337  0585                     _delaynms:	
  3338                           	opt	stack 4
  3339                           ; Regs used in _delaynms: [wreg+status,2]
  3340                           	line	110
  3341                           	
  3342  0585                     l9530:	
  3343                           ;IIC.c: 108: unsigned int i,j;
  3344                           ;IIC.c: 110: for(i=0;i<n;i++)
  3345  0585  1283               	bcf	status, 5	;RP0=0, select bank0
  3346  0586  1303               	bcf	status, 6	;RP1=0, select bank0
  3347  0587  01C6               	clrf	(delaynms@i)
  3348  0588  01C7               	clrf	(delaynms@i+1)
  3349  0589  2DAD               	goto	l5114
  3350                           	line	111
  3351                           	
  3352  058A                     l5115:	
  3353                           	
  3354  058A                     l9532:	
  3355                           ;IIC.c: 111: for(j=0;j<1600;j++);
  3356  058A  01C8               	clrf	(delaynms@j)
  3357  058B  01C9               	clrf	(delaynms@j+1)
  3358                           	
  3359  058C                     l9534:	
  3360  058C  3006               	movlw	high(0640h)
  3361  058D  0249               	subwf	(delaynms@j+1),w
  3362  058E  3040               	movlw	low(0640h)
  3363  058F  1903               	skipnz
  3364  0590  0248               	subwf	(delaynms@j),w
  3365  0591  1C03               	skipc
  3366  0592  2D94               	goto	u3781
  3367  0593  2D95               	goto	u3780
  3368  0594                     u3781:
  3369  0594  2D97               	goto	l9538
  3370  0595                     u3780:
  3371  0595  2DA7               	goto	l9540
  3372                           	
  3373  0596                     l9536:	
  3374  0596  2DA7               	goto	l9540
  3375                           	
  3376  0597                     l5116:	
  3377                           	
  3378  0597                     l9538:	
  3379  0597  3001               	movlw	low(01h)
  3380  0598  07C8               	addwf	(delaynms@j),f
  3381  0599  1803               	skipnc
  3382  059A  0AC9               	incf	(delaynms@j+1),f
  3383  059B  3000               	movlw	high(01h)
  3384  059C  07C9               	addwf	(delaynms@j+1),f
  3385  059D  3006               	movlw	high(0640h)
  3386  059E  0249               	subwf	(delaynms@j+1),w
  3387  059F  3040               	movlw	low(0640h)
  3388  05A0  1903               	skipnz
  3389  05A1  0248               	subwf	(delaynms@j),w
  3390  05A2  1C03               	skipc
  3391  05A3  2DA5               	goto	u3791
  3392  05A4  2DA6               	goto	u3790
  3393  05A5                     u3791:
  3394  05A5  2D97               	goto	l9538
  3395  05A6                     u3790:
  3396  05A6  2DA7               	goto	l9540
  3397                           	
  3398  05A7                     l5117:	
  3399                           	line	110
  3400                           	
  3401  05A7                     l9540:	
  3402  05A7  3001               	movlw	low(01h)
  3403  05A8  07C6               	addwf	(delaynms@i),f
  3404  05A9  1803               	skipnc
  3405  05AA  0AC7               	incf	(delaynms@i+1),f
  3406  05AB  3000               	movlw	high(01h)
  3407  05AC  07C7               	addwf	(delaynms@i+1),f
  3408                           	
  3409  05AD                     l5114:	
  3410  05AD  0845               	movf	(delaynms@n+1),w
  3411  05AE  0247               	subwf	(delaynms@i+1),w
  3412  05AF  1D03               	skipz
  3413  05B0  2DB3               	goto	u3805
  3414  05B1  0844               	movf	(delaynms@n),w
  3415  05B2  0246               	subwf	(delaynms@i),w
  3416  05B3                     u3805:
  3417  05B3  1C03               	skipc
  3418  05B4  2DB6               	goto	u3801
  3419  05B5  2DB7               	goto	u3800
  3420  05B6                     u3801:
  3421  05B6  2D8A               	goto	l9532
  3422  05B7                     u3800:
  3423  05B7  2DB8               	goto	l5119
  3424                           	
  3425  05B8                     l5118:	
  3426                           	line	112
  3427                           	
  3428  05B8                     l5119:	
  3429  05B8  0008               	return
  3430                           	opt stack 0
  3431                           GLOBAL	__end_of_delaynms
  3432  05B9                     	__end_of_delaynms:
  3433 ;; =============== function _delaynms ends ============
  3434                           
  3435                           	signat	_delaynms,4216
  3436                           	global	_ReadADC
  3437                           psect	text811,local,class=CODE,delta=2
  3438                           global __ptext811
  3439  0540                     __ptext811:
  3440                           
  3441 ;; *************** function _ReadADC *****************
  3442 ;; Defined at:
  3443 ;;		line 31 in file "ADC.c"
  3444 ;; Parameters:    Size  Location     Type
  3445 ;;  ADC_Channel     1    wreg     unsigned char 
  3446 ;; Auto vars:     Size  Location     Type
  3447 ;;  ADC_Channel     1    4[BANK0 ] unsigned char 
  3448 ;;  i               1    0        unsigned char 
  3449 ;; Return value:  Size  Location     Type
  3450 ;;                  2    0[BANK0 ] unsigned int 
  3451 ;; Registers used:
  3452 ;;		wreg, status,2, status,0, btemp+1
  3453 ;; Tracked objects:
  3454 ;;		On entry : 0/0
  3455 ;;		On exit  : 0/0
  3456 ;;		Unchanged: 0/0
  3457 ;; Data sizes:     COMMON   BANK0   BANK1   BANK3   BANK2
  3458 ;;      Params:         0       2       0       0       0
  3459 ;;      Locals:         0       1       0       0       0
  3460 ;;      Temps:          0       2       0       0       0
  3461 ;;      Totals:         0       5       0       0       0
  3462 ;;Total ram usage:        5 bytes
  3463 ;; Hardware stack levels used:    1
  3464 ;; Hardware stack levels required when called:    2
  3465 ;; This function calls:
  3466 ;;		Nothing
  3467 ;; This function is called by:
  3468 ;;		_main
  3469 ;; This function uses a non-reentrant model
  3470 ;;
  3471                           psect	text811
  3472                           	file	"ADC.c"
  3473                           	line	31
  3474                           	global	__size_of_ReadADC
  3475  0045                     	__size_of_ReadADC	equ	__end_of_ReadADC-_ReadADC
  3476                           	
  3477  0540                     _ReadADC:	
  3478                           	opt	stack 5
  3479                           ; Regs used in _ReadADC: [wreg+status,2+status,0+btemp+1]
  3480                           ;ReadADC@ADC_Channel stored from wreg
  3481                           	line	34
  3482  0540  1283               	bcf	status, 5	;RP0=0, select bank0
  3483  0541  1303               	bcf	status, 6	;RP1=0, select bank0
  3484  0542  00C8               	movwf	(ReadADC@ADC_Channel)
  3485                           	
  3486  0543                     l9508:	
  3487                           ;ADC.c: 32: static unsigned int ADC_VALUE;
  3488                           ;ADC.c: 33: unsigned char i;
  3489                           ;ADC.c: 34: ADC_Channel %=16;
  3490  0543  300F               	movlw	(0Fh)
  3491  0544  00C6               	movwf	(??_ReadADC+0)+0
  3492  0545  0846               	movf	(??_ReadADC+0)+0,w
  3493  0546  05C8               	andwf	(ReadADC@ADC_Channel),f
  3494                           	line	36
  3495                           	
  3496  0547                     l9510:	
  3497                           ;ADC.c: 36: ADCON0 = 0x80 +(ADC_Channel<<2) + 0x01;
  3498  0547  0848               	movf	(ReadADC@ADC_Channel),w
  3499  0548  00C6               	movwf	(??_ReadADC+0)+0
  3500  0549  3001               	movlw	(02h)-1
  3501  054A                     u3765:
  3502  054A  1003               	clrc
  3503  054B  0DC6               	rlf	(??_ReadADC+0)+0,f
  3504  054C  3EFF               	addlw	-1
  3505  054D  1D03               	skipz
  3506  054E  2D4A               	goto	u3765
  3507  054F  1003               	clrc
  3508  0550  0D46               	rlf	(??_ReadADC+0)+0,w
  3509  0551  3E81               	addlw	081h
  3510  0552  009F               	movwf	(31)	;volatile
  3511                           	line	37
  3512                           	
  3513  0553                     l9512:	
  3514                           ;ADC.c: 37: ADIE = 0;
  3515  0553  1683               	bsf	status, 5	;RP0=1, select bank1
  3516  0554  1303               	bcf	status, 6	;RP1=0, select bank1
  3517  0555  130C               	bcf	(1126/8)^080h,(1126)&7
  3518                           	line	38
  3519                           	
  3520  0556                     l9514:	
  3521                           ;ADC.c: 38: ADIF = 0;
  3522  0556  1283               	bcf	status, 5	;RP0=0, select bank0
  3523  0557  1303               	bcf	status, 6	;RP1=0, select bank0
  3524  0558  130C               	bcf	(102/8),(102)&7
  3525                           	line	39
  3526                           	
  3527  0559                     l9516:	
  3528                           ;ADC.c: 39: ADRESL = 0;
  3529  0559  1683               	bsf	status, 5	;RP0=1, select bank1
  3530  055A  1303               	bcf	status, 6	;RP1=0, select bank1
  3531  055B  019E               	clrf	(158)^080h	;volatile
  3532                           	line	40
  3533                           	
  3534  055C                     l9518:	
  3535                           ;ADC.c: 40: ADRESH = 0;
  3536  055C  1283               	bcf	status, 5	;RP0=0, select bank0
  3537  055D  1303               	bcf	status, 6	;RP1=0, select bank0
  3538  055E  019E               	clrf	(30)	;volatile
  3539                           	line	41
  3540                           	
  3541  055F                     l9520:	
  3542                           ;ADC.c: 41: GO = 1;
  3543  055F  149F               	bsf	(249/8),(249)&7
  3544                           	line	42
  3545                           ;ADC.c: 42: while(!ADIF) continue;
  3546  0560  2D61               	goto	l6104
  3547                           	
  3548  0561                     l6105:	
  3549                           	
  3550  0561                     l6104:	
  3551  0561  1F0C               	btfss	(102/8),(102)&7
  3552  0562  2D64               	goto	u3771
  3553  0563  2D65               	goto	u3770
  3554  0564                     u3771:
  3555  0564  2D61               	goto	l6104
  3556  0565                     u3770:
  3557  0565  2D66               	goto	l9522
  3558                           	
  3559  0566                     l6106:	
  3560                           	line	43
  3561                           	
  3562  0566                     l9522:	
  3563                           ;ADC.c: 43: ADC_VALUE = ADRESL;
  3564  0566  1683               	bsf	status, 5	;RP0=1, select bank1
  3565  0567  1303               	bcf	status, 6	;RP1=0, select bank1
  3566  0568  081E               	movf	(158)^080h,w	;volatile
  3567  0569  1283               	bcf	status, 5	;RP0=0, select bank0
  3568  056A  1303               	bcf	status, 6	;RP1=0, select bank0
  3569  056B  00C6               	movwf	(??_ReadADC+0)+0
  3570  056C  01C7               	clrf	(??_ReadADC+0)+0+1
  3571  056D  0846               	movf	0+(??_ReadADC+0)+0,w
  3572  056E  00A0               	movwf	(ReadADC@ADC_VALUE)
  3573  056F  0847               	movf	1+(??_ReadADC+0)+0,w
  3574  0570  00A1               	movwf	(ReadADC@ADC_VALUE+1)
  3575                           	line	44
  3576                           	
  3577  0571                     l9524:	
  3578                           ;ADC.c: 44: ADC_VALUE += (ADRESH << 8);
  3579  0571  081E               	movf	(30),w	;volatile
  3580  0572  00C6               	movwf	(??_ReadADC+0)+0
  3581  0573  01C7               	clrf	(??_ReadADC+0)+0+1
  3582  0574  0846               	movf	(??_ReadADC+0)+0,w
  3583  0575  00C7               	movwf	(??_ReadADC+0)+1
  3584  0576  01C6               	clrf	(??_ReadADC+0)+0
  3585  0577  0846               	movf	0+(??_ReadADC+0)+0,w
  3586  0578  07A0               	addwf	(ReadADC@ADC_VALUE),f
  3587  0579  1803               	skipnc
  3588  057A  0AA1               	incf	(ReadADC@ADC_VALUE+1),f
  3589  057B  0847               	movf	1+(??_ReadADC+0)+0,w
  3590  057C  07A1               	addwf	(ReadADC@ADC_VALUE+1),f
  3591                           	line	45
  3592                           	
  3593  057D                     l9526:	
  3594                           ;ADC.c: 45: return (ADC_VALUE);
  3595  057D  0821               	movf	(ReadADC@ADC_VALUE+1),w
  3596  057E  01C5               	clrf	(?_ReadADC+1)
  3597  057F  07C5               	addwf	(?_ReadADC+1)
  3598  0580  0820               	movf	(ReadADC@ADC_VALUE),w
  3599  0581  01C4               	clrf	(?_ReadADC)
  3600  0582  07C4               	addwf	(?_ReadADC)
  3601                           
  3602  0583  2D84               	goto	l6107
  3603                           	
  3604  0584                     l9528:	
  3605                           	line	46
  3606                           	
  3607  0584                     l6107:	
  3608  0584  0008               	return
  3609                           	opt stack 0
  3610                           GLOBAL	__end_of_ReadADC
  3611  0585                     	__end_of_ReadADC:
  3612 ;; =============== function _ReadADC ends ============
  3613                           
  3614                           	signat	_ReadADC,4218
  3615                           	global	_InitCn
  3616                           psect	text812,local,class=CODE,delta=2
  3617                           global __ptext812
  3618  070C                     __ptext812:
  3619                           
  3620 ;; *************** function _InitCn *****************
  3621 ;; Defined at:
  3622 ;;		line 110 in file "InitDevices.c"
  3623 ;; Parameters:    Size  Location     Type
  3624 ;;		None
  3625 ;; Auto vars:     Size  Location     Type
  3626 ;;		None
  3627 ;; Return value:  Size  Location     Type
  3628 ;;		None               void
  3629 ;; Registers used:
  3630 ;;		wreg
  3631 ;; Tracked objects:
  3632 ;;		On entry : 0/0
  3633 ;;		On exit  : 0/0
  3634 ;;		Unchanged: 0/0
  3635 ;; Data sizes:     COMMON   BANK0   BANK1   BANK3   BANK2
  3636 ;;      Params:         0       0       0       0       0
  3637 ;;      Locals:         0       0       0       0       0
  3638 ;;      Temps:          0       0       0       0       0
  3639 ;;      Totals:         0       0       0       0       0
  3640 ;;Total ram usage:        0 bytes
  3641 ;; Hardware stack levels used:    1
  3642 ;; Hardware stack levels required when called:    2
  3643 ;; This function calls:
  3644 ;;		Nothing
  3645 ;; This function is called by:
  3646 ;;		_InitDevices
  3647 ;; This function uses a non-reentrant model
  3648 ;;
  3649                           psect	text812
  3650                           	file	"InitDevices.c"
  3651                           	line	110
  3652                           	global	__size_of_InitCn
  3653  0007                     	__size_of_InitCn	equ	__end_of_InitCn-_InitCn
  3654                           	
  3655  070C                     _InitCn:	
  3656                           	opt	stack 4
  3657                           ; Regs used in _InitCn: [wreg]
  3658                           	line	111
  3659                           	
  3660  070C                     l9502:	
  3661                           ;InitDevices.c: 111: IOCB=0X10;
  3662  070C  3010               	movlw	(010h)
  3663  070D  1683               	bsf	status, 5	;RP0=1, select bank1
  3664  070E  1303               	bcf	status, 6	;RP1=0, select bank1
  3665  070F  0096               	movwf	(150)^080h	;volatile
  3666                           	line	112
  3667                           	
  3668  0710                     l9504:	
  3669                           ;InitDevices.c: 112: RBIE=1;
  3670  0710  158B               	bsf	(91/8),(91)&7
  3671                           	line	113
  3672                           	
  3673  0711                     l9506:	
  3674                           ;InitDevices.c: 113: RBIF=0;
  3675  0711  100B               	bcf	(88/8),(88)&7
  3676                           	line	114
  3677                           	
  3678  0712                     l988:	
  3679  0712  0008               	return
  3680                           	opt stack 0
  3681                           GLOBAL	__end_of_InitCn
  3682  0713                     	__end_of_InitCn:
  3683 ;; =============== function _InitCn ends ============
  3684                           
  3685                           	signat	_InitCn,88
  3686                           	global	_InitTimer2
  3687                           psect	text813,local,class=CODE,delta=2
  3688                           global __ptext813
  3689  06F6                     __ptext813:
  3690                           
  3691 ;; *************** function _InitTimer2 *****************
  3692 ;; Defined at:
  3693 ;;		line 100 in file "InitDevices.c"
  3694 ;; Parameters:    Size  Location     Type
  3695 ;;		None
  3696 ;; Auto vars:     Size  Location     Type
  3697 ;;		None
  3698 ;; Return value:  Size  Location     Type
  3699 ;;		None               void
  3700 ;; Registers used:
  3701 ;;		wreg, status,2
  3702 ;; Tracked objects:
  3703 ;;		On entry : 0/0
  3704 ;;		On exit  : 0/0
  3705 ;;		Unchanged: 0/0
  3706 ;; Data sizes:     COMMON   BANK0   BANK1   BANK3   BANK2
  3707 ;;      Params:         0       0       0       0       0
  3708 ;;      Locals:         0       0       0       0       0
  3709 ;;      Temps:          0       0       0       0       0
  3710 ;;      Totals:         0       0       0       0       0
  3711 ;;Total ram usage:        0 bytes
  3712 ;; Hardware stack levels used:    1
  3713 ;; Hardware stack levels required when called:    2
  3714 ;; This function calls:
  3715 ;;		Nothing
  3716 ;; This function is called by:
  3717 ;;		_InitDevices
  3718 ;; This function uses a non-reentrant model
  3719 ;;
  3720                           psect	text813
  3721                           	file	"InitDevices.c"
  3722                           	line	100
  3723                           	global	__size_of_InitTimer2
  3724  000E                     	__size_of_InitTimer2	equ	__end_of_InitTimer2-_InitTimer2
  3725                           	
  3726  06F6                     _InitTimer2:	
  3727                           	opt	stack 4
  3728                           ; Regs used in _InitTimer2: [wreg+status,2]
  3729                           	line	101
  3730                           	
  3731  06F6                     l9492:	
  3732                           ;InitDevices.c: 101: T2CON = 0X00;
  3733  06F6  1283               	bcf	status, 5	;RP0=0, select bank0
  3734  06F7  1303               	bcf	status, 6	;RP1=0, select bank0
  3735  06F8  0192               	clrf	(18)	;volatile
  3736                           	line	102
  3737                           ;InitDevices.c: 102: TMR2=0;
  3738  06F9  0191               	clrf	(17)	;volatile
  3739                           	line	103
  3740                           	
  3741  06FA                     l9494:	
  3742                           ;InitDevices.c: 103: PR2=199;
  3743  06FA  30C7               	movlw	(0C7h)
  3744  06FB  1683               	bsf	status, 5	;RP0=1, select bank1
  3745  06FC  1303               	bcf	status, 6	;RP1=0, select bank1
  3746  06FD  0092               	movwf	(146)^080h	;volatile
  3747                           	line	104
  3748                           	
  3749  06FE                     l9496:	
  3750                           ;InitDevices.c: 104: TMR2IE=1;
  3751  06FE  148C               	bsf	(1121/8)^080h,(1121)&7
  3752                           	line	105
  3753                           	
  3754  06FF                     l9498:	
  3755                           ;InitDevices.c: 105: TMR2IF = 0;
  3756  06FF  1283               	bcf	status, 5	;RP0=0, select bank0
  3757  0700  1303               	bcf	status, 6	;RP1=0, select bank0
  3758  0701  108C               	bcf	(97/8),(97)&7
  3759                           	line	106
  3760                           	
  3761  0702                     l9500:	
  3762                           ;InitDevices.c: 106: TMR2ON = 0;
  3763  0702  1112               	bcf	(146/8),(146)&7
  3764                           	line	107
  3765                           	
  3766  0703                     l985:	
  3767  0703  0008               	return
  3768                           	opt stack 0
  3769                           GLOBAL	__end_of_InitTimer2
  3770  0704                     	__end_of_InitTimer2:
  3771 ;; =============== function _InitTimer2 ends ============
  3772                           
  3773                           	signat	_InitTimer2,88
  3774                           	global	_InitTimer1
  3775                           psect	text814,local,class=CODE,delta=2
  3776                           global __ptext814
  3777  06D4                     __ptext814:
  3778                           
  3779 ;; *************** function _InitTimer1 *****************
  3780 ;; Defined at:
  3781 ;;		line 87 in file "InitDevices.c"
  3782 ;; Parameters:    Size  Location     Type
  3783 ;;		None
  3784 ;; Auto vars:     Size  Location     Type
  3785 ;;		None
  3786 ;; Return value:  Size  Location     Type
  3787 ;;		None               void
  3788 ;; Registers used:
  3789 ;;		wreg, status,2
  3790 ;; Tracked objects:
  3791 ;;		On entry : 0/0
  3792 ;;		On exit  : 0/0
  3793 ;;		Unchanged: 0/0
  3794 ;; Data sizes:     COMMON   BANK0   BANK1   BANK3   BANK2
  3795 ;;      Params:         0       0       0       0       0
  3796 ;;      Locals:         0       0       0       0       0
  3797 ;;      Temps:          0       0       0       0       0
  3798 ;;      Totals:         0       0       0       0       0
  3799 ;;Total ram usage:        0 bytes
  3800 ;; Hardware stack levels used:    1
  3801 ;; Hardware stack levels required when called:    2
  3802 ;; This function calls:
  3803 ;;		Nothing
  3804 ;; This function is called by:
  3805 ;;		_InitDevices
  3806 ;; This function uses a non-reentrant model
  3807 ;;
  3808                           psect	text814
  3809                           	file	"InitDevices.c"
  3810                           	line	87
  3811                           	global	__size_of_InitTimer1
  3812  0012                     	__size_of_InitTimer1	equ	__end_of_InitTimer1-_InitTimer1
  3813                           	
  3814  06D4                     _InitTimer1:	
  3815                           	opt	stack 4
  3816                           ; Regs used in _InitTimer1: [wreg+status,2]
  3817                           	line	88
  3818                           	
  3819  06D4                     l9476:	
  3820                           ;InitDevices.c: 88: T1CON=0x00;
  3821  06D4  1283               	bcf	status, 5	;RP0=0, select bank0
  3822  06D5  1303               	bcf	status, 6	;RP1=0, select bank0
  3823  06D6  0190               	clrf	(16)	;volatile
  3824                           	line	89
  3825                           	
  3826  06D7                     l9478:	
  3827                           ;InitDevices.c: 89: TMR1CS = 0;
  3828  06D7  1090               	bcf	(129/8),(129)&7
  3829                           	line	90
  3830                           	
  3831  06D8                     l9480:	
  3832                           ;InitDevices.c: 90: T1CONbits.T1CKPS0=1;
  3833  06D8  1610               	bsf	(16),4	;volatile
  3834                           	line	91
  3835                           	
  3836  06D9                     l9482:	
  3837                           ;InitDevices.c: 91: T1CONbits.T1CKPS1=0;
  3838  06D9  1290               	bcf	(16),5	;volatile
  3839                           	line	93
  3840                           	
  3841  06DA                     l9484:	
  3842                           ;InitDevices.c: 93: TMR1=15536;
  3843  06DA  30B0               	movlw	low(03CB0h)
  3844  06DB  008E               	movwf	(14)	;volatile
  3845  06DC  303C               	movlw	high(03CB0h)
  3846  06DD  008F               	movwf	((14))+1	;volatile
  3847                           	line	94
  3848                           	
  3849  06DE                     l9486:	
  3850                           ;InitDevices.c: 94: TMR1IE=1;
  3851  06DE  1683               	bsf	status, 5	;RP0=1, select bank1
  3852  06DF  1303               	bcf	status, 6	;RP1=0, select bank1
  3853  06E0  140C               	bsf	(1120/8)^080h,(1120)&7
  3854                           	line	95
  3855                           	
  3856  06E1                     l9488:	
  3857                           ;InitDevices.c: 95: TMR1IF = 0;
  3858  06E1  1283               	bcf	status, 5	;RP0=0, select bank0
  3859  06E2  1303               	bcf	status, 6	;RP1=0, select bank0
  3860  06E3  100C               	bcf	(96/8),(96)&7
  3861                           	line	96
  3862                           	
  3863  06E4                     l9490:	
  3864                           ;InitDevices.c: 96: TMR1ON=0;
  3865  06E4  1010               	bcf	(128/8),(128)&7
  3866                           	line	97
  3867                           	
  3868  06E5                     l982:	
  3869  06E5  0008               	return
  3870                           	opt stack 0
  3871                           GLOBAL	__end_of_InitTimer1
  3872  06E6                     	__end_of_InitTimer1:
  3873 ;; =============== function _InitTimer1 ends ============
  3874                           
  3875                           	signat	_InitTimer1,88
  3876                           	global	_IIC_init
  3877                           psect	text815,local,class=CODE,delta=2
  3878                           global __ptext815
  3879  06E6                     __ptext815:
  3880                           
  3881 ;; *************** function _IIC_init *****************
  3882 ;; Defined at:
  3883 ;;		line 67 in file "InitDevices.c"
  3884 ;; Parameters:    Size  Location     Type
  3885 ;;		None
  3886 ;; Auto vars:     Size  Location     Type
  3887 ;;		None
  3888 ;; Return value:  Size  Location     Type
  3889 ;;		None               void
  3890 ;; Registers used:
  3891 ;;		wreg, status,2
  3892 ;; Tracked objects:
  3893 ;;		On entry : 0/0
  3894 ;;		On exit  : 0/0
  3895 ;;		Unchanged: 0/0
  3896 ;; Data sizes:     COMMON   BANK0   BANK1   BANK3   BANK2
  3897 ;;      Params:         0       0       0       0       0
  3898 ;;      Locals:         0       0       0       0       0
  3899 ;;      Temps:          0       0       0       0       0
  3900 ;;      Totals:         0       0       0       0       0
  3901 ;;Total ram usage:        0 bytes
  3902 ;; Hardware stack levels used:    1
  3903 ;; Hardware stack levels required when called:    2
  3904 ;; This function calls:
  3905 ;;		Nothing
  3906 ;; This function is called by:
  3907 ;;		_InitDevices
  3908 ;; This function uses a non-reentrant model
  3909 ;;
  3910                           psect	text815
  3911                           	file	"InitDevices.c"
  3912                           	line	67
  3913                           	global	__size_of_IIC_init
  3914  0010                     	__size_of_IIC_init	equ	__end_of_IIC_init-_IIC_init
  3915                           	
  3916  06E6                     _IIC_init:	
  3917                           	opt	stack 4
  3918                           ; Regs used in _IIC_init: [wreg+status,2]
  3919                           	line	68
  3920                           	
  3921  06E6                     l9468:	
  3922                           ;InitDevices.c: 68: TRISC3=1;
  3923  06E6  1683               	bsf	status, 5	;RP0=1, select bank1
  3924  06E7  1303               	bcf	status, 6	;RP1=0, select bank1
  3925  06E8  1587               	bsf	(1083/8)^080h,(1083)&7
  3926                           	line	69
  3927                           ;InitDevices.c: 69: TRISC4=1;
  3928  06E9  1607               	bsf	(1084/8)^080h,(1084)&7
  3929                           	line	70
  3930                           	
  3931  06EA                     l9470:	
  3932                           ;InitDevices.c: 70: SSPSTAT=0x80;
  3933  06EA  3080               	movlw	(080h)
  3934  06EB  0094               	movwf	(148)^080h	;volatile
  3935                           	line	71
  3936                           ;InitDevices.c: 71: SSPCON=0x28;
  3937  06EC  3028               	movlw	(028h)
  3938  06ED  1283               	bcf	status, 5	;RP0=0, select bank0
  3939  06EE  1303               	bcf	status, 6	;RP1=0, select bank0
  3940  06EF  0094               	movwf	(20)	;volatile
  3941                           	line	72
  3942                           	
  3943  06F0                     l9472:	
  3944                           ;InitDevices.c: 72: SSPCON2=0;
  3945  06F0  1683               	bsf	status, 5	;RP0=1, select bank1
  3946  06F1  1303               	bcf	status, 6	;RP1=0, select bank1
  3947  06F2  0191               	clrf	(145)^080h	;volatile
  3948                           	line	76
  3949                           	
  3950  06F3                     l9474:	
  3951                           ;InitDevices.c: 76: SSPADD=0x13;
  3952  06F3  3013               	movlw	(013h)
  3953  06F4  0093               	movwf	(147)^080h	;volatile
  3954                           	line	77
  3955                           	
  3956  06F5                     l976:	
  3957  06F5  0008               	return
  3958                           	opt stack 0
  3959                           GLOBAL	__end_of_IIC_init
  3960  06F6                     	__end_of_IIC_init:
  3961 ;; =============== function _IIC_init ends ============
  3962                           
  3963                           	signat	_IIC_init,88
  3964                           	global	_InitialiseADC
  3965                           psect	text816,local,class=CODE,delta=2
  3966                           global __ptext816
  3967  0695                     __ptext816:
  3968                           
  3969 ;; *************** function _InitialiseADC *****************
  3970 ;; Defined at:
  3971 ;;		line 43 in file "InitDevices.c"
  3972 ;; Parameters:    Size  Location     Type
  3973 ;;		None
  3974 ;; Auto vars:     Size  Location     Type
  3975 ;;		None
  3976 ;; Return value:  Size  Location     Type
  3977 ;;		None               void
  3978 ;; Registers used:
  3979 ;;		wreg, status,2
  3980 ;; Tracked objects:
  3981 ;;		On entry : 0/0
  3982 ;;		On exit  : 0/0
  3983 ;;		Unchanged: 0/0
  3984 ;; Data sizes:     COMMON   BANK0   BANK1   BANK3   BANK2
  3985 ;;      Params:         0       0       0       0       0
  3986 ;;      Locals:         0       0       0       0       0
  3987 ;;      Temps:          0       0       0       0       0
  3988 ;;      Totals:         0       0       0       0       0
  3989 ;;Total ram usage:        0 bytes
  3990 ;; Hardware stack levels used:    1
  3991 ;; Hardware stack levels required when called:    2
  3992 ;; This function calls:
  3993 ;;		Nothing
  3994 ;; This function is called by:
  3995 ;;		_InitDevices
  3996 ;; This function uses a non-reentrant model
  3997 ;;
  3998                           psect	text816
  3999                           	file	"InitDevices.c"
  4000                           	line	43
  4001                           	global	__size_of_InitialiseADC
  4002  0016                     	__size_of_InitialiseADC	equ	__end_of_InitialiseADC-_InitialiseADC
  4003                           	
  4004  0695                     _InitialiseADC:	
  4005                           	opt	stack 4
  4006                           ; Regs used in _InitialiseADC: [wreg+status,2]
  4007                           	line	47
  4008                           	
  4009  0695                     l9452:	
  4010                           ;InitDevices.c: 47: ANSEL = 0x08;
  4011  0695  3008               	movlw	(08h)
  4012  0696  1683               	bsf	status, 5	;RP0=1, select bank3
  4013  0697  1703               	bsf	status, 6	;RP1=1, select bank3
  4014  0698  0088               	movwf	(392)^0180h	;volatile
  4015                           	line	49
  4016                           ;InitDevices.c: 49: ADCON1 = 0x80;
  4017  0699  3080               	movlw	(080h)
  4018  069A  1683               	bsf	status, 5	;RP0=1, select bank1
  4019  069B  1303               	bcf	status, 6	;RP1=0, select bank1
  4020  069C  009F               	movwf	(159)^080h	;volatile
  4021                           	line	50
  4022                           	
  4023  069D                     l9454:	
  4024                           ;InitDevices.c: 50: ADRESL = 0;
  4025  069D  019E               	clrf	(158)^080h	;volatile
  4026                           	line	51
  4027                           	
  4028  069E                     l9456:	
  4029                           ;InitDevices.c: 51: ADRESH = 0;
  4030  069E  1283               	bcf	status, 5	;RP0=0, select bank0
  4031  069F  1303               	bcf	status, 6	;RP1=0, select bank0
  4032  06A0  019E               	clrf	(30)	;volatile
  4033                           	line	52
  4034                           	
  4035  06A1                     l9458:	
  4036                           ;InitDevices.c: 52: ADIE = 0;
  4037  06A1  1683               	bsf	status, 5	;RP0=1, select bank1
  4038  06A2  1303               	bcf	status, 6	;RP1=0, select bank1
  4039  06A3  130C               	bcf	(1126/8)^080h,(1126)&7
  4040                           	line	53
  4041                           	
  4042  06A4                     l9460:	
  4043                           ;InitDevices.c: 53: PEIE = 1;
  4044  06A4  170B               	bsf	(94/8),(94)&7
  4045                           	line	54
  4046                           	
  4047  06A5                     l9462:	
  4048                           ;InitDevices.c: 54: ADIF = 0;
  4049  06A5  1283               	bcf	status, 5	;RP0=0, select bank0
  4050  06A6  1303               	bcf	status, 6	;RP1=0, select bank0
  4051  06A7  130C               	bcf	(102/8),(102)&7
  4052                           	line	55
  4053                           	
  4054  06A8                     l9464:	
  4055                           ;InitDevices.c: 55: GO_DONE = 1;
  4056  06A8  149F               	bsf	(249/8),(249)&7
  4057                           	line	56
  4058                           	
  4059  06A9                     l9466:	
  4060                           ;InitDevices.c: 56: ADON = 1;
  4061  06A9  141F               	bsf	(248/8),(248)&7
  4062                           	line	57
  4063                           	
  4064  06AA                     l973:	
  4065  06AA  0008               	return
  4066                           	opt stack 0
  4067                           GLOBAL	__end_of_InitialiseADC
  4068  06AB                     	__end_of_InitialiseADC:
  4069 ;; =============== function _InitialiseADC ends ============
  4070                           
  4071                           	signat	_InitialiseADC,88
  4072                           	global	_PortInit
  4073                           psect	text817,local,class=CODE,delta=2
  4074                           global __ptext817
  4075  06AB                     __ptext817:
  4076                           
  4077 ;; *************** function _PortInit *****************
  4078 ;; Defined at:
  4079 ;;		line 30 in file "InitDevices.c"
  4080 ;; Parameters:    Size  Location     Type
  4081 ;;		None
  4082 ;; Auto vars:     Size  Location     Type
  4083 ;;		None
  4084 ;; Return value:  Size  Location     Type
  4085 ;;		None               void
  4086 ;; Registers used:
  4087 ;;		wreg, status,2
  4088 ;; Tracked objects:
  4089 ;;		On entry : 0/0
  4090 ;;		On exit  : 0/0
  4091 ;;		Unchanged: 0/0
  4092 ;; Data sizes:     COMMON   BANK0   BANK1   BANK3   BANK2
  4093 ;;      Params:         0       0       0       0       0
  4094 ;;      Locals:         0       0       0       0       0
  4095 ;;      Temps:          0       0       0       0       0
  4096 ;;      Totals:         0       0       0       0       0
  4097 ;;Total ram usage:        0 bytes
  4098 ;; Hardware stack levels used:    1
  4099 ;; Hardware stack levels required when called:    2
  4100 ;; This function calls:
  4101 ;;		Nothing
  4102 ;; This function is called by:
  4103 ;;		_InitDevices
  4104 ;; This function uses a non-reentrant model
  4105 ;;
  4106                           psect	text817
  4107                           	file	"InitDevices.c"
  4108                           	line	30
  4109                           	global	__size_of_PortInit
  4110  0015                     	__size_of_PortInit	equ	__end_of_PortInit-_PortInit
  4111                           	
  4112  06AB                     _PortInit:	
  4113                           	opt	stack 4
  4114                           ; Regs used in _PortInit: [wreg+status,2]
  4115                           	line	31
  4116                           	
  4117  06AB                     l9442:	
  4118                           ;InitDevices.c: 31: PORTA = 0x00;
  4119  06AB  1283               	bcf	status, 5	;RP0=0, select bank0
  4120  06AC  1303               	bcf	status, 6	;RP1=0, select bank0
  4121  06AD  0185               	clrf	(5)	;volatile
  4122                           	line	32
  4123                           ;InitDevices.c: 32: PORTB = 0x00;
  4124  06AE  0186               	clrf	(6)	;volatile
  4125                           	line	33
  4126                           	
  4127  06AF                     l9444:	
  4128                           ;InitDevices.c: 33: TRISA = 0xEB;
  4129  06AF  30EB               	movlw	(0EBh)
  4130  06B0  1683               	bsf	status, 5	;RP0=1, select bank1
  4131  06B1  1303               	bcf	status, 6	;RP1=0, select bank1
  4132  06B2  0085               	movwf	(133)^080h	;volatile
  4133                           	line	34
  4134                           	
  4135  06B3                     l9446:	
  4136                           ;InitDevices.c: 34: TRISB = 0X12;
  4137  06B3  3012               	movlw	(012h)
  4138  06B4  0086               	movwf	(134)^080h	;volatile
  4139                           	line	35
  4140                           ;InitDevices.c: 35: PORTC = 0X00;
  4141  06B5  1283               	bcf	status, 5	;RP0=0, select bank0
  4142  06B6  1303               	bcf	status, 6	;RP1=0, select bank0
  4143  06B7  0187               	clrf	(7)	;volatile
  4144                           	line	36
  4145                           	
  4146  06B8                     l9448:	
  4147                           ;InitDevices.c: 36: TRISC = 0XE2;
  4148  06B8  30E2               	movlw	(0E2h)
  4149  06B9  1683               	bsf	status, 5	;RP0=1, select bank1
  4150  06BA  1303               	bcf	status, 6	;RP1=0, select bank1
  4151  06BB  0087               	movwf	(135)^080h	;volatile
  4152                           	line	37
  4153                           	
  4154  06BC                     l9450:	
  4155                           ;InitDevices.c: 37: ANSELH = 0x00;
  4156  06BC  1683               	bsf	status, 5	;RP0=1, select bank3
  4157  06BD  1703               	bsf	status, 6	;RP1=1, select bank3
  4158  06BE  0189               	clrf	(393)^0180h	;volatile
  4159                           	line	40
  4160                           	
  4161  06BF                     l970:	
  4162  06BF  0008               	return
  4163                           	opt stack 0
  4164                           GLOBAL	__end_of_PortInit
  4165  06C0                     	__end_of_PortInit:
  4166 ;; =============== function _PortInit ends ============
  4167                           
  4168                           	signat	_PortInit,88
  4169                           	global	_systemOSC
  4170                           psect	text818,local,class=CODE,delta=2
  4171                           global __ptext818
  4172  0713                     __ptext818:
  4173                           
  4174 ;; *************** function _systemOSC *****************
  4175 ;; Defined at:
  4176 ;;		line 25 in file "InitDevices.c"
  4177 ;; Parameters:    Size  Location     Type
  4178 ;;		None
  4179 ;; Auto vars:     Size  Location     Type
  4180 ;;		None
  4181 ;; Return value:  Size  Location     Type
  4182 ;;		None               void
  4183 ;; Registers used:
  4184 ;;		wreg
  4185 ;; Tracked objects:
  4186 ;;		On entry : 0/0
  4187 ;;		On exit  : 0/0
  4188 ;;		Unchanged: 0/0
  4189 ;; Data sizes:     COMMON   BANK0   BANK1   BANK3   BANK2
  4190 ;;      Params:         0       0       0       0       0
  4191 ;;      Locals:         0       0       0       0       0
  4192 ;;      Temps:          0       0       0       0       0
  4193 ;;      Totals:         0       0       0       0       0
  4194 ;;Total ram usage:        0 bytes
  4195 ;; Hardware stack levels used:    1
  4196 ;; Hardware stack levels required when called:    2
  4197 ;; This function calls:
  4198 ;;		Nothing
  4199 ;; This function is called by:
  4200 ;;		_InitDevices
  4201 ;; This function uses a non-reentrant model
  4202 ;;
  4203                           psect	text818
  4204                           	file	"InitDevices.c"
  4205                           	line	25
  4206                           	global	__size_of_systemOSC
  4207  0005                     	__size_of_systemOSC	equ	__end_of_systemOSC-_systemOSC
  4208                           	
  4209  0713                     _systemOSC:	
  4210                           	opt	stack 4
  4211                           ; Regs used in _systemOSC: [wreg]
  4212                           	line	26
  4213                           	
  4214  0713                     l9440:	
  4215                           ;InitDevices.c: 26: OSCCON = 0X71;
  4216  0713  3071               	movlw	(071h)
  4217  0714  1683               	bsf	status, 5	;RP0=1, select bank1
  4218  0715  1303               	bcf	status, 6	;RP1=0, select bank1
  4219  0716  008F               	movwf	(143)^080h	;volatile
  4220                           	line	27
  4221                           	
  4222  0717                     l967:	
  4223  0717  0008               	return
  4224                           	opt stack 0
  4225                           GLOBAL	__end_of_systemOSC
  4226  0718                     	__end_of_systemOSC:
  4227 ;; =============== function _systemOSC ends ============
  4228                           
  4229                           	signat	_systemOSC,88
  4230                           	global	_com
  4231                           psect	text819,local,class=CODE,delta=2
  4232                           global __ptext819
  4233  05B9                     __ptext819:
  4234                           
  4235 ;; *************** function _com *****************
  4236 ;; Defined at:
  4237 ;;		line 5 in file "Interrupt.c"
  4238 ;; Parameters:    Size  Location     Type
  4239 ;;		None
  4240 ;; Auto vars:     Size  Location     Type
  4241 ;;		None
  4242 ;; Return value:  Size  Location     Type
  4243 ;;		None               void
  4244 ;; Registers used:
  4245 ;;		wreg, status,2, status,0, pclath, cstack
  4246 ;; Tracked objects:
  4247 ;;		On entry : 0/0
  4248 ;;		On exit  : 0/0
  4249 ;;		Unchanged: 0/0
  4250 ;; Data sizes:     COMMON   BANK0   BANK1   BANK3   BANK2
  4251 ;;      Params:         0       0       0       0       0
  4252 ;;      Locals:         0       0       0       0       0
  4253 ;;      Temps:          4       0       0       0       0
  4254 ;;      Totals:         4       0       0       0       0
  4255 ;;Total ram usage:        4 bytes
  4256 ;; Hardware stack levels used:    1
  4257 ;; Hardware stack levels required when called:    1
  4258 ;; This function calls:
  4259 ;;		_RBCN_int
  4260 ;;		_TMR2_int
  4261 ;;		_TMR1_int
  4262 ;; This function is called by:
  4263 ;;		Interrupt level 1
  4264 ;; This function uses a non-reentrant model
  4265 ;;
  4266                           psect	text819
  4267                           	file	"Interrupt.c"
  4268                           	line	5
  4269                           	global	__size_of_com
  4270  002F                     	__size_of_com	equ	__end_of_com-_com
  4271                           	
  4272  05B9                     _com:	
  4273                           	opt	stack 3
  4274                           ; Regs used in _com: [wreg+status,2+status,0+pclath+cstack]
  4275                           psect	intentry,class=CODE,delta=2
  4276                           global __pintentry
  4277  0004                     __pintentry:
  4278                           global interrupt_function
  4279  0004                     interrupt_function:
  4280                           	global saved_w
  4281  007E                     	saved_w	set	btemp+0
  4282  0004  00FE               	movwf	saved_w
  4283  0005  0E03               	swapf	status,w
  4284  0006  00F2               	movwf	(??_com+0)
  4285  0007  0804               	movf	fsr0,w
  4286  0008  00F3               	movwf	(??_com+1)
  4287  0009  080A               	movf	pclath,w
  4288  000A  00F4               	movwf	(??_com+2)
  4289  000B  1283               	bcf	status, 5	;RP0=0, select bank0
  4290  000C  1303               	bcf	status, 6	;RP1=0, select bank0
  4291  000D  087F               	movf	btemp+1,w
  4292  000E  00F5               	movwf	(??_com+3)
  4293  000F  120A  118A  2DB9   	ljmp	_com
  4294                           psect	text819
  4295                           	line	6
  4296                           	
  4297  05B9                     i1l8930:	
  4298                           ;Interrupt.c: 6: if(RBIF)
  4299  05B9  1C0B               	btfss	(88/8),(88)&7
  4300  05BA  2DBC               	goto	u296_21
  4301  05BB  2DBD               	goto	u296_20
  4302  05BC                     u296_21:
  4303  05BC  2DC3               	goto	i1l8934
  4304  05BD                     u296_20:
  4305                           	line	8
  4306                           	
  4307  05BD                     i1l8932:	
  4308                           ;Interrupt.c: 7: {
  4309                           ;Interrupt.c: 8: RBCN_int();
  4310  05BD  120A  118A  265A   	fcall	_RBCN_int
              120A  118A         
  4311  05C2  2DC3               	goto	i1l8934
  4312                           	line	9
  4313                           	
  4314  05C3                     i1l2016:	
  4315                           	line	10
  4316                           	
  4317  05C3                     i1l8934:	
  4318                           ;Interrupt.c: 9: }
  4319                           ;Interrupt.c: 10: if(TMR2IF)
  4320  05C3  1283               	bcf	status, 5	;RP0=0, select bank0
  4321  05C4  1303               	bcf	status, 6	;RP1=0, select bank0
  4322  05C5  1C8C               	btfss	(97/8),(97)&7
  4323  05C6  2DC8               	goto	u297_21
  4324  05C7  2DC9               	goto	u297_20
  4325  05C8                     u297_21:
  4326  05C8  2DCF               	goto	i1l8938
  4327  05C9                     u297_20:
  4328                           	line	12
  4329                           	
  4330  05C9                     i1l8936:	
  4331                           ;Interrupt.c: 11: {
  4332                           ;Interrupt.c: 12: TMR2_int();
  4333  05C9  120A  118A  267C   	fcall	_TMR2_int
              120A  118A         
  4334  05CE  2DCF               	goto	i1l8938
  4335                           	line	13
  4336                           	
  4337  05CF                     i1l2017:	
  4338                           	line	14
  4339                           	
  4340  05CF                     i1l8938:	
  4341                           ;Interrupt.c: 13: }
  4342                           ;Interrupt.c: 14: if(TMR1IF)
  4343  05CF  1283               	bcf	status, 5	;RP0=0, select bank0
  4344  05D0  1303               	bcf	status, 6	;RP1=0, select bank0
  4345  05D1  1C0C               	btfss	(96/8),(96)&7
  4346  05D2  2DD4               	goto	u298_21
  4347  05D3  2DD5               	goto	u298_20
  4348  05D4                     u298_21:
  4349  05D4  2DDB               	goto	i1l2019
  4350  05D5                     u298_20:
  4351                           	line	16
  4352                           	
  4353  05D5                     i1l8940:	
  4354                           ;Interrupt.c: 15: {
  4355                           ;Interrupt.c: 16: TMR1_int();
  4356  05D5  120A  118A  23D3   	fcall	_TMR1_int
              120A  118A         
  4357  05DA  2DDB               	goto	i1l2019
  4358                           	line	17
  4359                           	
  4360  05DB                     i1l2018:	
  4361                           	line	23
  4362                           	
  4363  05DB                     i1l2019:	
  4364  05DB  0875               	movf	(??_com+3),w
  4365  05DC  1283               	bcf	status, 5	;RP0=0, select bank0
  4366  05DD  1303               	bcf	status, 6	;RP1=0, select bank0
  4367  05DE  00FF               	movwf	btemp+1
  4368  05DF  0874               	movf	(??_com+2),w
  4369  05E0  008A               	movwf	pclath
  4370  05E1  0873               	movf	(??_com+1),w
  4371  05E2  0084               	movwf	fsr0
  4372  05E3  0E72               	swapf	(??_com+0)^0FFFFFF80h,w
  4373  05E4  0083               	movwf	status
  4374  05E5  0EFE               	swapf	saved_w,f
  4375  05E6  0E7E               	swapf	saved_w,w
  4376  05E7  0009               	retfie
  4377                           	opt stack 0
  4378                           GLOBAL	__end_of_com
  4379  05E8                     	__end_of_com:
  4380 ;; =============== function _com ends ============
  4381                           
  4382                           	signat	_com,88
  4383                           	global	_TMR1_int
  4384                           psect	text820,local,class=CODE,delta=2
  4385                           global __ptext820
  4386  03D3                     __ptext820:
  4387                           
  4388 ;; *************** function _TMR1_int *****************
  4389 ;; Defined at:
  4390 ;;		line 49 in file "Interrupt.c"
  4391 ;; Parameters:    Size  Location     Type
  4392 ;;		None
  4393 ;; Auto vars:     Size  Location     Type
  4394 ;;  t               1    1[COMMON] unsigned char 
  4395 ;;  i               1    0        unsigned char 
  4396 ;; Return value:  Size  Location     Type
  4397 ;;		None               void
  4398 ;; Registers used:
  4399 ;;		wreg, status,2, status,0
  4400 ;; Tracked objects:
  4401 ;;		On entry : 0/0
  4402 ;;		On exit  : 0/0
  4403 ;;		Unchanged: 0/0
  4404 ;; Data sizes:     COMMON   BANK0   BANK1   BANK3   BANK2
  4405 ;;      Params:         0       0       0       0       0
  4406 ;;      Locals:         1       0       0       0       0
  4407 ;;      Temps:          1       0       0       0       0
  4408 ;;      Totals:         2       0       0       0       0
  4409 ;;Total ram usage:        2 bytes
  4410 ;; Hardware stack levels used:    1
  4411 ;; This function calls:
  4412 ;;		Nothing
  4413 ;; This function is called by:
  4414 ;;		_com
  4415 ;; This function uses a non-reentrant model
  4416 ;;
  4417                           psect	text820
  4418                           	file	"Interrupt.c"
  4419                           	line	49
  4420                           	global	__size_of_TMR1_int
  4421  00C1                     	__size_of_TMR1_int	equ	__end_of_TMR1_int-_TMR1_int
  4422                           	
  4423  03D3                     _TMR1_int:	
  4424                           	opt	stack 3
  4425                           ; Regs used in _TMR1_int: [wreg+status,2+status,0]
  4426                           	line	51
  4427                           	
  4428  03D3                     i1l8968:	
  4429                           ;Interrupt.c: 50: unsigned char t,i;
  4430                           ;Interrupt.c: 51: t = TMR1IF;
  4431  03D3  3000               	movlw	0
  4432  03D4  1283               	bcf	status, 5	;RP0=0, select bank0
  4433  03D5  1303               	bcf	status, 6	;RP1=0, select bank0
  4434  03D6  180C               	btfsc	(96/8),(96)&7
  4435  03D7  3001               	movlw	1
  4436  03D8  00F0               	movwf	(??_TMR1_int+0)+0
  4437  03D9  0870               	movf	(??_TMR1_int+0)+0,w
  4438  03DA  00F1               	movwf	(TMR1_int@t)
  4439                           	line	52
  4440                           	
  4441  03DB                     i1l8970:	
  4442                           ;Interrupt.c: 52: TMR1IF =0;
  4443  03DB  100C               	bcf	(96/8),(96)&7
  4444                           	line	53
  4445                           ;Interrupt.c: 53: TMR1=15536;
  4446  03DC  30B0               	movlw	low(03CB0h)
  4447  03DD  008E               	movwf	(14)	;volatile
  4448  03DE  303C               	movlw	high(03CB0h)
  4449  03DF  008F               	movwf	((14))+1	;volatile
  4450                           	line	79
  4451                           	
  4452  03E0                     i1l8972:	
  4453                           ;Interrupt.c: 79: if((PORTAbits.RA1 == 0) && (Not_two == 1))
  4454  03E0  1885               	btfsc	(5),1	;volatile
  4455  03E1  2BE3               	goto	u301_21
  4456  03E2  2BE4               	goto	u301_20
  4457  03E3                     u301_21:
  4458  03E3  2C0F               	goto	i1l8992
  4459  03E4                     u301_20:
  4460                           	
  4461  03E4                     i1l8974:	
  4462  03E4  0879               	movf	(_Not_two),w
  4463  03E5  3A01               	xorlw	01h
  4464  03E6  1D03               	skipz
  4465  03E7  2BE9               	goto	u302_21
  4466  03E8  2BEA               	goto	u302_20
  4467  03E9                     u302_21:
  4468  03E9  2C0F               	goto	i1l8992
  4469  03EA                     u302_20:
  4470                           	line	81
  4471                           	
  4472  03EA                     i1l8976:	
  4473                           ;Interrupt.c: 80: {
  4474                           ;Interrupt.c: 81: if(PORTBbits.RB1 == 1) Key_Up = 0;
  4475  03EA  1C86               	btfss	(6),1	;volatile
  4476  03EB  2BED               	goto	u303_21
  4477  03EC  2BEE               	goto	u303_20
  4478  03ED                     u303_21:
  4479  03ED  2BEF               	goto	i1l2023
  4480  03EE                     u303_20:
  4481                           	
  4482  03EE                     i1l8978:	
  4483  03EE  01B7               	clrf	(_Key_Up)
  4484                           	
  4485  03EF                     i1l2023:	
  4486                           	line	82
  4487                           ;Interrupt.c: 82: if((PORTBbits.RB1 == 0) && (Key_Up == 0))
  4488  03EF  1886               	btfsc	(6),1	;volatile
  4489  03F0  2BF2               	goto	u304_21
  4490  03F1  2BF3               	goto	u304_20
  4491  03F2                     u304_21:
  4492  03F2  2C0C               	goto	i1l2024
  4493  03F3                     u304_20:
  4494                           	
  4495  03F3                     i1l8980:	
  4496  03F3  08B7               	movf	(_Key_Up),f
  4497  03F4  1D03               	skipz
  4498  03F5  2BF7               	goto	u305_21
  4499  03F6  2BF8               	goto	u305_20
  4500  03F7                     u305_21:
  4501  03F7  2C0C               	goto	i1l2024
  4502  03F8                     u305_20:
  4503                           	line	84
  4504                           	
  4505  03F8                     i1l8982:	
  4506                           ;Interrupt.c: 83: {
  4507                           ;Interrupt.c: 84: Key_Run_times++;
  4508  03F8  3001               	movlw	(01h)
  4509  03F9  00F0               	movwf	(??_TMR1_int+0)+0
  4510  03FA  0870               	movf	(??_TMR1_int+0)+0,w
  4511  03FB  07F8               	addwf	(_Key_Run_times),f
  4512                           	line	85
  4513                           	
  4514  03FC                     i1l8984:	
  4515                           ;Interrupt.c: 85: if(Key_Run_times == 40)
  4516  03FC  0878               	movf	(_Key_Run_times),w
  4517  03FD  3A28               	xorlw	028h
  4518  03FE  1D03               	skipz
  4519  03FF  2C01               	goto	u306_21
  4520  0400  2C02               	goto	u306_20
  4521  0401                     u306_21:
  4522  0401  2C0F               	goto	i1l8992
  4523  0402                     u306_20:
  4524                           	line	87
  4525                           	
  4526  0402                     i1l8986:	
  4527                           ;Interrupt.c: 86: {
  4528                           ;Interrupt.c: 87: Key_Run++;
  4529  0402  3001               	movlw	(01h)
  4530  0403  00F0               	movwf	(??_TMR1_int+0)+0
  4531  0404  0870               	movf	(??_TMR1_int+0)+0,w
  4532  0405  07B6               	addwf	(_Key_Run),f
  4533                           	line	88
  4534                           	
  4535  0406                     i1l8988:	
  4536                           ;Interrupt.c: 88: Key_Run_times = 0;
  4537  0406  01F8               	clrf	(_Key_Run_times)
  4538                           	line	89
  4539                           	
  4540  0407                     i1l8990:	
  4541                           ;Interrupt.c: 89: Key_Up = 1;
  4542  0407  01B7               	clrf	(_Key_Up)
  4543  0408  1403               	bsf	status,0
  4544  0409  0DB7               	rlf	(_Key_Up),f
  4545  040A  2C0F               	goto	i1l8992
  4546                           	line	90
  4547                           	
  4548  040B                     i1l2025:	
  4549                           	line	91
  4550                           ;Interrupt.c: 90: }
  4551                           ;Interrupt.c: 91: } else Key_Run_times = 0;
  4552  040B  2C0F               	goto	i1l8992
  4553                           	
  4554  040C                     i1l2024:	
  4555  040C  01F8               	clrf	(_Key_Run_times)
  4556  040D  2C0F               	goto	i1l8992
  4557                           	
  4558  040E                     i1l2026:	
  4559  040E  2C0F               	goto	i1l8992
  4560                           	line	92
  4561                           	
  4562  040F                     i1l2022:	
  4563                           	line	94
  4564                           	
  4565  040F                     i1l8992:	
  4566                           ;Interrupt.c: 92: }
  4567                           ;Interrupt.c: 94: if(Work_Flag == 0)
  4568  040F  08FA               	movf	(_Work_Flag),f
  4569  0410  1D03               	skipz
  4570  0411  2C13               	goto	u307_21
  4571  0412  2C14               	goto	u307_20
  4572  0413                     u307_21:
  4573  0413  2C39               	goto	i1l9010
  4574  0414                     u307_20:
  4575                           	line	96
  4576                           	
  4577  0414                     i1l8994:	
  4578                           ;Interrupt.c: 95: {
  4579                           ;Interrupt.c: 96: if(PORTCbits.RC1 == 1) Onekey_Key_Up = 0;
  4580  0414  1C87               	btfss	(7),1	;volatile
  4581  0415  2C17               	goto	u308_21
  4582  0416  2C18               	goto	u308_20
  4583  0417                     u308_21:
  4584  0417  2C19               	goto	i1l2028
  4585  0418                     u308_20:
  4586                           	
  4587  0418                     i1l8996:	
  4588  0418  01BA               	clrf	(_Onekey_Key_Up)
  4589                           	
  4590  0419                     i1l2028:	
  4591                           	line	97
  4592                           ;Interrupt.c: 97: if((PORTCbits.RC1 == 0) && (Onekey_Key_Up == 0))
  4593  0419  1887               	btfsc	(7),1	;volatile
  4594  041A  2C1C               	goto	u309_21
  4595  041B  2C1D               	goto	u309_20
  4596  041C                     u309_21:
  4597  041C  2C36               	goto	i1l2029
  4598  041D                     u309_20:
  4599                           	
  4600  041D                     i1l8998:	
  4601  041D  08BA               	movf	(_Onekey_Key_Up),f
  4602  041E  1D03               	skipz
  4603  041F  2C21               	goto	u310_21
  4604  0420  2C22               	goto	u310_20
  4605  0421                     u310_21:
  4606  0421  2C36               	goto	i1l2029
  4607  0422                     u310_20:
  4608                           	line	99
  4609                           	
  4610  0422                     i1l9000:	
  4611                           ;Interrupt.c: 98: {
  4612                           ;Interrupt.c: 99: Onekey_times++;
  4613  0422  3001               	movlw	(01h)
  4614  0423  00F0               	movwf	(??_TMR1_int+0)+0
  4615  0424  0870               	movf	(??_TMR1_int+0)+0,w
  4616  0425  07BB               	addwf	(_Onekey_times),f
  4617                           	line	100
  4618                           	
  4619  0426                     i1l9002:	
  4620                           ;Interrupt.c: 100: if(Onekey_times == 40)
  4621  0426  083B               	movf	(_Onekey_times),w
  4622  0427  3A28               	xorlw	028h
  4623  0428  1D03               	skipz
  4624  0429  2C2B               	goto	u311_21
  4625  042A  2C2C               	goto	u311_20
  4626  042B                     u311_21:
  4627  042B  2C39               	goto	i1l9010
  4628  042C                     u311_20:
  4629                           	line	102
  4630                           	
  4631  042C                     i1l9004:	
  4632                           ;Interrupt.c: 101: {
  4633                           ;Interrupt.c: 102: Onekey_Flag++;
  4634  042C  3001               	movlw	(01h)
  4635  042D  00F0               	movwf	(??_TMR1_int+0)+0
  4636  042E  0870               	movf	(??_TMR1_int+0)+0,w
  4637  042F  07B9               	addwf	(_Onekey_Flag),f
  4638                           	line	103
  4639                           	
  4640  0430                     i1l9006:	
  4641                           ;Interrupt.c: 103: Onekey_times =0;
  4642  0430  01BB               	clrf	(_Onekey_times)
  4643                           	line	104
  4644                           	
  4645  0431                     i1l9008:	
  4646                           ;Interrupt.c: 104: Onekey_Key_Up = 1;
  4647  0431  01BA               	clrf	(_Onekey_Key_Up)
  4648  0432  1403               	bsf	status,0
  4649  0433  0DBA               	rlf	(_Onekey_Key_Up),f
  4650  0434  2C39               	goto	i1l9010
  4651                           	line	105
  4652                           	
  4653  0435                     i1l2030:	
  4654                           	line	106
  4655                           ;Interrupt.c: 105: }
  4656                           ;Interrupt.c: 106: } else Onekey_times = 0;
  4657  0435  2C39               	goto	i1l9010
  4658                           	
  4659  0436                     i1l2029:	
  4660  0436  01BB               	clrf	(_Onekey_times)
  4661  0437  2C39               	goto	i1l9010
  4662                           	
  4663  0438                     i1l2031:	
  4664  0438  2C39               	goto	i1l9010
  4665                           	line	107
  4666                           	
  4667  0439                     i1l2027:	
  4668                           	line	109
  4669                           	
  4670  0439                     i1l9010:	
  4671                           ;Interrupt.c: 107: }
  4672                           ;Interrupt.c: 109: if(Open_Cover_Flag == 1)
  4673  0439  083C               	movf	(_Open_Cover_Flag),w
  4674  043A  3A01               	xorlw	01h
  4675  043B  1D03               	skipz
  4676  043C  2C3E               	goto	u312_21
  4677  043D  2C3F               	goto	u312_20
  4678  043E                     u312_21:
  4679  043E  2C45               	goto	i1l2032
  4680  043F                     u312_20:
  4681                           	line	111
  4682                           	
  4683  043F                     i1l9012:	
  4684                           ;Interrupt.c: 110: {
  4685                           ;Interrupt.c: 111: Open_Cover_times++;
  4686  043F  3001               	movlw	low(01h)
  4687  0440  07AE               	addwf	(_Open_Cover_times),f
  4688  0441  1803               	skipnc
  4689  0442  0AAF               	incf	(_Open_Cover_times+1),f
  4690  0443  3000               	movlw	high(01h)
  4691  0444  07AF               	addwf	(_Open_Cover_times+1),f
  4692                           	line	112
  4693                           	
  4694  0445                     i1l2032:	
  4695                           	line	114
  4696                           ;Interrupt.c: 112: }
  4697                           ;Interrupt.c: 114: if(Count_Flag == 1)
  4698  0445  0876               	movf	(_Count_Flag),w
  4699  0446  3A01               	xorlw	01h
  4700  0447  1D03               	skipz
  4701  0448  2C4A               	goto	u313_21
  4702  0449  2C4B               	goto	u313_20
  4703  044A                     u313_21:
  4704  044A  2C8E               	goto	i1l9028
  4705  044B                     u313_20:
  4706                           	line	116
  4707                           	
  4708  044B                     i1l9014:	
  4709                           ;Interrupt.c: 115: {
  4710                           ;Interrupt.c: 116: Flag_working_time++;
  4711  044B  3001               	movlw	low(01h)
  4712  044C  07AC               	addwf	(_Flag_working_time),f
  4713  044D  1803               	skipnc
  4714  044E  0AAD               	incf	(_Flag_working_time+1),f
  4715  044F  3000               	movlw	high(01h)
  4716  0450  07AD               	addwf	(_Flag_working_time+1),f
  4717                           	line	117
  4718                           ;Interrupt.c: 117: if((Flag_working_time == 6000) )
  4719  0451  3017               	movlw	high(01770h)
  4720  0452  062D               	xorwf	(_Flag_working_time+1),w
  4721  0453  1D03               	skipz
  4722  0454  2C57               	goto	u314_25
  4723  0455  3070               	movlw	low(01770h)
  4724  0456  062C               	xorwf	(_Flag_working_time),w
  4725  0457                     u314_25:
  4726                           
  4727  0457  1D03               	skipz
  4728  0458  2C5A               	goto	u314_21
  4729  0459  2C5B               	goto	u314_20
  4730  045A                     u314_21:
  4731  045A  2C64               	goto	i1l9020
  4732  045B                     u314_20:
  4733                           	line	119
  4734                           	
  4735  045B                     i1l9016:	
  4736                           ;Interrupt.c: 118: {
  4737                           ;Interrupt.c: 119: Start_Flag = 1;
  4738  045B  01BD               	clrf	(_Start_Flag)
  4739  045C  1403               	bsf	status,0
  4740  045D  0DBD               	rlf	(_Start_Flag),f
  4741                           	line	120
  4742                           ;Interrupt.c: 120: Stop_Flag = 1;
  4743  045E  01BF               	clrf	(_Stop_Flag)
  4744  045F  1403               	bsf	status,0
  4745  0460  0DBF               	rlf	(_Stop_Flag),f
  4746                           	line	121
  4747                           	
  4748  0461                     i1l9018:	
  4749                           ;Interrupt.c: 121: Flag_working_time = 0;
  4750  0461  01AC               	clrf	(_Flag_working_time)
  4751  0462  01AD               	clrf	(_Flag_working_time+1)
  4752  0463  2C64               	goto	i1l9020
  4753                           	line	122
  4754                           	
  4755  0464                     i1l2034:	
  4756                           	line	123
  4757                           	
  4758  0464                     i1l9020:	
  4759                           ;Interrupt.c: 122: }
  4760                           ;Interrupt.c: 123: if(Flag_working_time > 400)
  4761  0464  3001               	movlw	high(0191h)
  4762  0465  022D               	subwf	(_Flag_working_time+1),w
  4763  0466  3091               	movlw	low(0191h)
  4764  0467  1903               	skipnz
  4765  0468  022C               	subwf	(_Flag_working_time),w
  4766  0469  1C03               	skipc
  4767  046A  2C6C               	goto	u315_21
  4768  046B  2C6D               	goto	u315_20
  4769  046C                     u315_21:
  4770  046C  2C8B               	goto	i1l2035
  4771  046D                     u315_20:
  4772                           	line	125
  4773                           	
  4774  046D                     i1l9022:	
  4775                           ;Interrupt.c: 124: {
  4776                           ;Interrupt.c: 125: Speed_LED_times++;
  4777  046D  3001               	movlw	low(01h)
  4778  046E  07B2               	addwf	(_Speed_LED_times),f
  4779  046F  1803               	skipnc
  4780  0470  0AB3               	incf	(_Speed_LED_times+1),f
  4781  0471  3000               	movlw	high(01h)
  4782  0472  07B3               	addwf	(_Speed_LED_times+1),f
  4783                           	line	126
  4784                           ;Interrupt.c: 126: if(Speed_LED_times == 20)
  4785  0473  3014               	movlw	014h
  4786  0474  0632               	xorwf	(_Speed_LED_times),w
  4787  0475  0433               	iorwf	(_Speed_LED_times+1),w
  4788  0476  1D03               	skipz
  4789  0477  2C79               	goto	u316_21
  4790  0478  2C7A               	goto	u316_20
  4791  0479                     u316_21:
  4792  0479  2C8C               	goto	i1l2037
  4793  047A                     u316_20:
  4794                           	line	128
  4795                           	
  4796  047A                     i1l9024:	
  4797                           ;Interrupt.c: 127: {
  4798                           ;Interrupt.c: 128: PORTBbits.RB0 = ~ PORTBbits.RB0;
  4799  047A  1003               	clrc
  4800  047B  1C06               	btfss	(6),0	;volatile
  4801  047C  1403               	setc
  4802  047D  1803               	btfsc	status,0
  4803  047E  2C80               	goto	u317_21
  4804  047F  2C84               	goto	u317_20
  4805                           	
  4806  0480                     u317_21:
  4807  0480  1283               	bcf	status, 5	;RP0=0, select bank0
  4808  0481  1303               	bcf	status, 6	;RP1=0, select bank0
  4809  0482  1406               	bsf	(6),0	;volatile
  4810  0483  2C87               	goto	u318_24
  4811  0484                     u317_20:
  4812  0484  1283               	bcf	status, 5	;RP0=0, select bank0
  4813  0485  1303               	bcf	status, 6	;RP1=0, select bank0
  4814  0486  1006               	bcf	(6),0	;volatile
  4815  0487                     u318_24:
  4816                           	line	129
  4817                           	
  4818  0487                     i1l9026:	
  4819                           ;Interrupt.c: 129: Speed_LED_times = 0;
  4820  0487  01B2               	clrf	(_Speed_LED_times)
  4821  0488  01B3               	clrf	(_Speed_LED_times+1)
  4822  0489  2C8C               	goto	i1l2037
  4823                           	line	130
  4824                           	
  4825  048A                     i1l2036:	
  4826                           	line	131
  4827                           ;Interrupt.c: 130: }
  4828                           ;Interrupt.c: 131: }else PORTBbits.RB0 = 1;asm ("NOP");
  4829  048A  2C8C               	goto	i1l2037
  4830                           	
  4831  048B                     i1l2035:	
  4832  048B  1406               	bsf	(6),0	;volatile
  4833                           	
  4834  048C                     i1l2037:	
  4835                           # 131 "Interrupt.c"
  4836  048C  0000               NOP ;#
  4837                           psect	text820
  4838                           	line	132
  4839                           ;Interrupt.c: 132: } else Flag_working_time = 0;
  4840  048D  2C93               	goto	i1l2039
  4841                           	
  4842  048E                     i1l2033:	
  4843                           	
  4844  048E                     i1l9028:	
  4845  048E  1283               	bcf	status, 5	;RP0=0, select bank0
  4846  048F  1303               	bcf	status, 6	;RP1=0, select bank0
  4847  0490  01AC               	clrf	(_Flag_working_time)
  4848  0491  01AD               	clrf	(_Flag_working_time+1)
  4849  0492  2C93               	goto	i1l2039
  4850                           	
  4851  0493                     i1l2038:	
  4852                           	line	133
  4853                           	
  4854  0493                     i1l2039:	
  4855  0493  0008               	return
  4856                           	opt stack 0
  4857                           GLOBAL	__end_of_TMR1_int
  4858  0494                     	__end_of_TMR1_int:
  4859 ;; =============== function _TMR1_int ends ============
  4860                           
  4861                           	signat	_TMR1_int,88
  4862                           	global	_TMR2_int
  4863                           psect	text821,local,class=CODE,delta=2
  4864                           global __ptext821
  4865  067C                     __ptext821:
  4866                           
  4867 ;; *************** function _TMR2_int *****************
  4868 ;; Defined at:
  4869 ;;		line 135 in file "Interrupt.c"
  4870 ;; Parameters:    Size  Location     Type
  4871 ;;		None
  4872 ;; Auto vars:     Size  Location     Type
  4873 ;;		None
  4874 ;; Return value:  Size  Location     Type
  4875 ;;		None               void
  4876 ;; Registers used:
  4877 ;;		wreg, status,2
  4878 ;; Tracked objects:
  4879 ;;		On entry : 0/0
  4880 ;;		On exit  : 0/0
  4881 ;;		Unchanged: 0/0
  4882 ;; Data sizes:     COMMON   BANK0   BANK1   BANK3   BANK2
  4883 ;;      Params:         0       0       0       0       0
  4884 ;;      Locals:         0       0       0       0       0
  4885 ;;      Temps:          0       0       0       0       0
  4886 ;;      Totals:         0       0       0       0       0
  4887 ;;Total ram usage:        0 bytes
  4888 ;; Hardware stack levels used:    1
  4889 ;; This function calls:
  4890 ;;		Nothing
  4891 ;; This function is called by:
  4892 ;;		_com
  4893 ;; This function uses a non-reentrant model
  4894 ;;
  4895                           psect	text821
  4896                           	file	"Interrupt.c"
  4897                           	line	135
  4898                           	global	__size_of_TMR2_int
  4899  0019                     	__size_of_TMR2_int	equ	__end_of_TMR2_int-_TMR2_int
  4900                           	
  4901  067C                     _TMR2_int:	
  4902                           	opt	stack 3
  4903                           ; Regs used in _TMR2_int: [wreg+status,2]
  4904                           	line	136
  4905                           	
  4906  067C                     i1l8958:	
  4907                           ;Interrupt.c: 136: TMR2IF=0;
  4908  067C  1283               	bcf	status, 5	;RP0=0, select bank0
  4909  067D  1303               	bcf	status, 6	;RP1=0, select bank0
  4910  067E  108C               	bcf	(97/8),(97)&7
  4911                           	line	137
  4912                           	
  4913  067F                     i1l8960:	
  4914                           ;Interrupt.c: 137: TMR2=0;
  4915  067F  0191               	clrf	(17)	;volatile
  4916                           	line	138
  4917                           	
  4918  0680                     i1l8962:	
  4919                           ;Interrupt.c: 138: FG_Period_time++;
  4920  0680  3001               	movlw	low(01h)
  4921  0681  07A6               	addwf	(_FG_Period_time),f
  4922  0682  1803               	skipnc
  4923  0683  0AA7               	incf	(_FG_Period_time+1),f
  4924  0684  3000               	movlw	high(01h)
  4925  0685  07A7               	addwf	(_FG_Period_time+1),f
  4926                           	line	139
  4927                           	
  4928  0686                     i1l8964:	
  4929                           ;Interrupt.c: 139: if(FG_Period_time >=300) FG_Period_time = 300;
  4930  0686  3001               	movlw	high(012Ch)
  4931  0687  0227               	subwf	(_FG_Period_time+1),w
  4932  0688  302C               	movlw	low(012Ch)
  4933  0689  1903               	skipnz
  4934  068A  0226               	subwf	(_FG_Period_time),w
  4935  068B  1C03               	skipc
  4936  068C  2E8E               	goto	u300_21
  4937  068D  2E8F               	goto	u300_20
  4938  068E                     u300_21:
  4939  068E  2E94               	goto	i1l2043
  4940  068F                     u300_20:
  4941                           	
  4942  068F                     i1l8966:	
  4943  068F  302C               	movlw	low(012Ch)
  4944  0690  00A6               	movwf	(_FG_Period_time)
  4945  0691  3001               	movlw	high(012Ch)
  4946  0692  00A7               	movwf	((_FG_Period_time))+1
  4947  0693  2E94               	goto	i1l2043
  4948                           	
  4949  0694                     i1l2042:	
  4950                           	line	140
  4951                           	
  4952  0694                     i1l2043:	
  4953  0694  0008               	return
  4954                           	opt stack 0
  4955                           GLOBAL	__end_of_TMR2_int
  4956  0695                     	__end_of_TMR2_int:
  4957 ;; =============== function _TMR2_int ends ============
  4958                           
  4959                           	signat	_TMR2_int,88
  4960                           	global	_RBCN_int
  4961                           psect	text822,local,class=CODE,delta=2
  4962                           global __ptext822
  4963  065A                     __ptext822:
  4964                           
  4965 ;; *************** function _RBCN_int *****************
  4966 ;; Defined at:
  4967 ;;		line 142 in file "Interrupt.c"
  4968 ;; Parameters:    Size  Location     Type
  4969 ;;		None
  4970 ;; Auto vars:     Size  Location     Type
  4971 ;;  Sameple         1    1[COMMON] unsigned char 
  4972 ;; Return value:  Size  Location     Type
  4973 ;;		None               void
  4974 ;; Registers used:
  4975 ;;		wreg, status,2, status,0
  4976 ;; Tracked objects:
  4977 ;;		On entry : 0/0
  4978 ;;		On exit  : 0/0
  4979 ;;		Unchanged: 0/0
  4980 ;; Data sizes:     COMMON   BANK0   BANK1   BANK3   BANK2
  4981 ;;      Params:         0       0       0       0       0
  4982 ;;      Locals:         1       0       0       0       0
  4983 ;;      Temps:          1       0       0       0       0
  4984 ;;      Totals:         2       0       0       0       0
  4985 ;;Total ram usage:        2 bytes
  4986 ;; Hardware stack levels used:    1
  4987 ;; This function calls:
  4988 ;;		Nothing
  4989 ;; This function is called by:
  4990 ;;		_com
  4991 ;; This function uses a non-reentrant model
  4992 ;;
  4993                           psect	text822
  4994                           	file	"Interrupt.c"
  4995                           	line	142
  4996                           	global	__size_of_RBCN_int
  4997  0022                     	__size_of_RBCN_int	equ	__end_of_RBCN_int-_RBCN_int
  4998                           	
  4999  065A                     _RBCN_int:	
  5000                           	opt	stack 3
  5001                           ; Regs used in _RBCN_int: [wreg+status,2+status,0]
  5002                           	line	144
  5003                           	
  5004  065A                     i1l8942:	
  5005                           ;Interrupt.c: 143: unsigned char Sameple;
  5006                           ;Interrupt.c: 144: Sameple = PORTB;
  5007  065A  1283               	bcf	status, 5	;RP0=0, select bank0
  5008  065B  1303               	bcf	status, 6	;RP1=0, select bank0
  5009  065C  0806               	movf	(6),w	;volatile
  5010  065D  00F0               	movwf	(??_RBCN_int+0)+0
  5011  065E  0870               	movf	(??_RBCN_int+0)+0,w
  5012  065F  00F1               	movwf	(RBCN_int@Sameple)
  5013                           	line	145
  5014                           	
  5015  0660                     i1l8944:	
  5016                           ;Interrupt.c: 145: RBIF=0;
  5017  0660  100B               	bcf	(88/8),(88)&7
  5018                           	line	146
  5019                           	
  5020  0661                     i1l8946:	
  5021                           ;Interrupt.c: 146: FG_CN_Count++;
  5022  0661  3001               	movlw	(01h)
  5023  0662  00F0               	movwf	(??_RBCN_int+0)+0
  5024  0663  0870               	movf	(??_RBCN_int+0)+0,w
  5025  0664  07F7               	addwf	(_FG_CN_Count),f
  5026                           	line	147
  5027                           	
  5028  0665                     i1l8948:	
  5029                           ;Interrupt.c: 147: if(FG_CN_Count==3)
  5030  0665  0877               	movf	(_FG_CN_Count),w
  5031  0666  3A03               	xorlw	03h
  5032  0667  1D03               	skipz
  5033  0668  2E6A               	goto	u299_21
  5034  0669  2E6B               	goto	u299_20
  5035  066A                     u299_21:
  5036  066A  2E79               	goto	i1l2046
  5037  066B                     u299_20:
  5038                           	line	149
  5039                           	
  5040  066B                     i1l8950:	
  5041                           ;Interrupt.c: 148: {
  5042                           ;Interrupt.c: 149: FG_CN_Count=0;
  5043  066B  01F7               	clrf	(_FG_CN_Count)
  5044                           	line	150
  5045                           ;Interrupt.c: 150: TMR2ON=0;
  5046  066C  1112               	bcf	(146/8),(146)&7
  5047                           	line	151
  5048                           	
  5049  066D                     i1l8952:	
  5050                           ;Interrupt.c: 151: Flag_FG_Period=1;
  5051  066D  01D0               	clrf	(_Flag_FG_Period)
  5052  066E  1403               	bsf	status,0
  5053  066F  0DD0               	rlf	(_Flag_FG_Period),f
  5054                           	line	152
  5055                           	
  5056  0670                     i1l8954:	
  5057                           ;Interrupt.c: 152: Flag_FG_Period_time=FG_Period_time;
  5058  0670  0827               	movf	(_FG_Period_time+1),w
  5059  0671  01A9               	clrf	(_Flag_FG_Period_time+1)
  5060  0672  07A9               	addwf	(_Flag_FG_Period_time+1)
  5061  0673  0826               	movf	(_FG_Period_time),w
  5062  0674  01A8               	clrf	(_Flag_FG_Period_time)
  5063  0675  07A8               	addwf	(_Flag_FG_Period_time)
  5064                           
  5065                           	line	153
  5066                           	
  5067  0676                     i1l8956:	
  5068                           ;Interrupt.c: 153: FG_Period_time=0;
  5069  0676  01A6               	clrf	(_FG_Period_time)
  5070  0677  01A7               	clrf	(_FG_Period_time+1)
  5071                           	line	154
  5072                           ;Interrupt.c: 154: }
  5073  0678  2E7B               	goto	i1l2048
  5074                           	line	155
  5075                           	
  5076  0679                     i1l2046:	
  5077                           	line	157
  5078                           ;Interrupt.c: 155: else
  5079                           ;Interrupt.c: 156: {
  5080                           ;Interrupt.c: 157: TMR2ON=1;
  5081  0679  1512               	bsf	(146/8),(146)&7
  5082  067A  2E7B               	goto	i1l2048
  5083                           	line	158
  5084                           	
  5085  067B                     i1l2047:	
  5086                           	line	160
  5087                           	
  5088  067B                     i1l2048:	
  5089  067B  0008               	return
  5090                           	opt stack 0
  5091                           GLOBAL	__end_of_RBCN_int
  5092  067C                     	__end_of_RBCN_int:
  5093 ;; =============== function _RBCN_int ends ============
  5094                           
  5095                           	signat	_RBCN_int,88
  5096                           psect	text823,local,class=CODE,delta=2
  5097                           global __ptext823
  5098  0000                     __ptext823:
  5099                           	global	btemp
  5100  007E                     	btemp set 07Eh
  5101                           
  5102                           	DABS	1,126,2	;btemp
  5103                           	global	wtemp0
  5104  007E                     	wtemp0 set btemp


HI-TECH Software PICC Macro Assembler V9.82 build 9453 
Symbol Table                                                                                   Tue Oct 15 16:16:17 2019

                            _GO 00F9                              _RD 0C60                              _WR 0C61  
                            fsr 0004                             l970 06BF                             l973 06AA  
                           l982 06E5                             l967 0717                             l991 0610  
                           l976 06F5                             l985 0703                             _GIE 005F  
                           l988 0712                             _PR2 0092                             _PEN 048A  
                           _SEN 0488                             _kai 0043                             _com 05B9  
                           fsr0 0004                             indf 0000                   _Key_Run_times 0078  
                          l3100 01EC                            l3101 01F0                            l3102 01F1  
                          l3103 01F1                            l3106 0659                            l4101 0496  
                          l4102 0495                            l3070 0024                            l4103 049C  
                          l3071 0027                            l4104 04C6                            l3080 00AF  
                          l3072 0037                            l4105 04EE                            l3081 00CF  
                          l3073 0041                            l4106 04EF                            l3090 012C  
                          l3082 00CE                            l3074 0041                            l3091 0180  
                          l3083 00CA                            l3075 004C                            l5100 03A7  
                          l3092 0191                            l3084 00CD                            l3076 0065  
                          l5101 03C6                            l3093 01BF                            l3085 00EB  
                          l3077 00A1                            l3069 001B                            l5110 06D3  
                          l5102 03B0                            l3094 01BE                            l3086 011A  
                          l3078 00A0                            l5111 06D3                            l5103 03C6  
                          l3087 01EF                            l3095 01AC                            l3079 00D0  
                          ?_com 0070                            l5104 03CD                            l3088 01C0  
                          l3096 01BD                            l5105 03D2                            l3097 01EE  
                          l3089 017B                            l5114 05AD                            l3098 01ED  
                          l5115 058A                            l3099 01DB                            l5116 0597  
                          l5108 06CA                            l5117 05A7                            l5109 06C1  
                          l5118 05B8                            l5119 05B8                            l6104 0561  
                          l6105 0561                            l6106 0566                            l5090 032B  
                          l4098 02F2                            l6107 0584                            l5091 0342  
                          l5092 0349                            l5093 0371                            l5085 0313  
                          l5094 035A                            l5086 02FD                            l5095 0371  
                          l5087 0313                            l5096 0378                            l5088 031A  
                          l5097 03A0                            l5089 0342                            l7050 04FE  
                          l5098 0389                            l7051 050F                            l5099 03A0  
                          l7052 0510                            l7053 0529                            l7054 0537  
                          l7055 053F                            l7048 0538                            l7049 050A  
                          _ADIE 0466                            _ADIF 0066                            l9500 0702  
                          l9502 070C                            l9510 0547                            l9440 0713  
                          l9504 0710                            l9520 055F                            l9512 0553  
                          l9600 0530                            l9450 06BC                            l9442 06AB  
                          l9506 0711                            l9522 0566                            l9514 0556  
                          l9530 0585                            l9602 0538                            l9610 060C  
                          l9444 06AF                            l9460 06A4                            l9452 0695  
                          l9524 0571                            l9516 0559                            l9508 0543  
                          l9540 05A7                            l9532 058A                            l9604 053F  
                          l9612 060F                            l9620 02FD                            l9700 0654  
                          _ADON 00F8                            l9446 06B3                            l9462 06A5  
                          l9454 069D                            l9470 06EA                            l9526 057D  
                          l9518 055C                            l9534 058C                            l9606 05E8  
                          l9630 031F                            l9622 0304                            l9614 02F6  
                          l9702 0655                            l9710 049E                            l9448 06B8  
                          l9464 06A8                            l9456 069E                            l9472 06F0  
                          l9480 06D8                            l9528 0584                            l9536 0596  
                          l9608 060B                            l9640 0349                            l9632 0321  
                          l9624 0312                            l9616 02F8                            l9704 0658  
                          l9720 04C1                            l9712 04A7                            l9800 0085  
                          l9466 06A9                            l9458 06A1                            l9474 06F3  
                          l9490 06E4                            l9482 06D9                            l9538 0597  
                          l9650 0362                            l9642 034D                            l9634 032B  
                          l9626 031A                            l9618 02F9                            l9730 04DF  
                          l9714 04AF                            l9722 04C6                            l9706 0494  
                          l9810 00AF                            l9802 0089                            l9468 06E6  
                          l9484 06DA                            l9476 06D4                            l9492 06F6  
                          l9580 04F0                            l9660 037F                            l9652 0370  
                          l9644 034E                            l9636 0333                            l9628 031E  
                          l9732 04E9                            l9724 04CF                            l9716 04B3  
                          l9708 0496                            l9740 020B                            l9900 01B7  
                          l9820 00D8                            l9812 00BA                            l9804 0096  
                          l9486 06DE                            l9478 06D7                            l9494 06FA  
                          l9574 06C0                            l9590 050A                            l9582 04F4  
                          l9670 03AB                            l9662 0389                            l9654 0378  
                          l9646 0350                            l9638 0341                            l9726 04D7  
                          l9734 04EE                            l9718 04B7                            l9750 0267  
                          l9742 0222                            l9910 01DB                            l9902 01C0  
                          l9830 00F8                            l9822 00DD                            l9814 00C3  
                          l9806 00A1                            l9488 06E1                            l9496 06FE  
                          l9576 06C1                            l9592 0510                            l9584 04FA  
                          l9680 03CD                            l9672 03AC                            l9664 0391  
                          l9656 037C                            l9648 035A                            l9728 04DB  
                          l9760 02B8                            l9752 0273                            l9744 022E  
                          l9736 01F4                            l9912 01DC                            l9904 01C8  
                          l9840 010C                            l9832 00FA                            l9824 00E7  
                          l9816 00C7                            l9808 00AC                            l9498 06FF  
                          l9578 06CA                            l9594 0521                            l9586 04FE  
                          l9682 03D1                            l9674 03B0                            l9666 039F  
                          l9658 037D                            l9690 0642                            l9762 02CF  
                          l9754 028A                            l9746 0245                            l9738 0200  
                          l9914 01E6                            l9906 01D0                            l9850 0115  
                          l9842 010D                            l9834 0105                            l9826 00EB  
                          l9818 00D0                            l9770 0015                            l9596 0527  
                          l9588 0505                            l9676 03B7                            l9668 03A7  
                          l9692 0644                            l9684 0636                            l9764 02DA  
                          l9756 0295                            l9748 0250                            l9908 01D5  
                          l9860 012B                            l9852 0116                            l9844 0110  
                          l9836 0108                            l9828 00F3                            l9780 0032  
                          l9772 001B                            l9598 0529                            l9678 03C5  
                          l9694 0645                            l9686 063D                            l9766 02EE  
                          l9758 02AC                            l9870 0150                            l9862 012C  
                          l9846 0111                            l9838 0109                            l9854 011A  
                          l9790 004C                            l9782 0037                            l9774 0021  
                          l9696 0646                            l9688 0641                            l9768 02F1  
                          l9872 015B                            l9864 0132                            l9880 017B  
                          l9856 011E                            l9848 0114                            l9792 005A  
                          l9784 003E                            l9776 0027                            l9698 0651  
                          l9890 0199                            l9882 0180                            l9874 0167  
                          l9866 0139                            l9858 0124                            l9794 005E  
                          l9786 0044                            l9778 002C                            l9892 01A1  
                          l9884 0185                            l9876 0172                            l9868 0144  
                          l9788 004B                            l9796 0065                            l9894 01A6  
                          l9886 018B                            l9878 0177                            l9798 007C  
                          l9896 01AC                            l9888 0191                            l9898 01AD  
                          _T0IE 005D                            _IOCB 0096                            u4000 049C  
                          u4010 04A7                            u4011 04A6                            u4020 04CF  
                          u4100 0089                            u4021 04CE                            u4101 0088  
                          u4110 0093                            u4030 0021                            u4111 008F  
                          u4031 0020                            u4200 00F8                            u4040 002C  
                          u4201 00F7                            u4041 002B                            u4210 011E  
                          u4130 00AC                            u4050 0032                            u4211 011D  
                          u4131 00AB                            u4051 0031                            u4300 01C8  
                          u4220 0124                            u4140 00BA                            u4124 0096  
                          u4060 003E                            u4301 01C7                            u4221 0123  
                          u4141 00B9                            u4061 003D                            u4310 01D0  
                          u4230 012A                            u4150 00C3                            u4070 004A  
                          u4311 01CF                            u4231 0129                            u4151 00C2  
                          u4071 0049                            u4320 01E6                            u4240 017F  
                          u4160 00C7                            u4080 0064                            u4321 01E5  
                          u4161 00C6                            u4081 0063                            u4250 0185  
                          u4170 00D8                            u4090 0085                            u4251 0184  
                          u4171 00D7                            u4091 0084                            u4260 018B  
                          u4180 00DD                            u4325 01E2                            u4261 018A  
                          u4181 00DC                            u4270 0199                            u4190 00F3  
                          u4271 0198                            u4191 00F2                            u3800 05B7  
                          u4280 01A1                            u3801 05B6                            u4281 01A0  
                          u4290 01B7                            u4291 01B6                            _PEIE 005E  
                          u3820 06D2                            u3900 0311                            u3805 05B3  
                          u3821 06D1                            u3901 0310                            u3830 04FA  
                          u3910 0319                            u3831 04F9                            u3911 0318  
                          u4295 01B3                            _RBIE 005B                            u3920 0340  
                          _RBIF 0058                            u3921 033F                            u3905 030D  
                          u3770 0565                            u3850 050E                            u3930 0348  
                          u3771 0564                            u3851 050D                            u3931 0347  
                          u3780 0595                            u3940 036F                            u3765 054A  
                          u3781 0594                            u3845 04FF                            u3941 036E  
                          u3925 033C                            u3790 05A6                            u3870 0521  
                          u3950 0377                            u3791 05A5                            u3871 0520  
                          u3951 0376                            u3960 039E                            u3865 0511  
                          u3961 039D                            u3945 036B                            u3890 0536  
                          u3970 03A6                            u3891 0535                            u3875 051D  
                          u3971 03A5                            u3980 03C4                            u3885 052A  
                          u3981 03C3                            u3965 039A                            u3990 03CC  
                          u3991 03CB                            u3985 03C0                            _TMR0 0001  
                          _TMR1 000E                            _TMR2 0011                            _WREN 0C62  
                          _VOLT 004E                            _Once 0038                            _main 0015  
                 ??_InitDevices 0044                            btemp 007E              _REALVOLTAGE_BAT_DC 0030  
                          start 0012          __size_of_InitialiseADC 0016                 __end_of_ReadADC 0585  
                         ??_com 0072                __end_of_IIC_init 06F6                           ?_main 0070  
                         _EEADR 010D                           _CARRY 0018                __end_of_RBCN_int 067C  
                         _ANSEL 0188                           _T1CON 0010                           _T2CON 0012  
               __end_of___lwdiv 0540           _Motor_adjusting_speed 0494                           _PORTA 0005  
                         _PORTB 0006                           _PORTC 0007                           _TRISA 0085  
                         _TRISB 0086                           _TRISC 0087                           _SSPIF 0063  
                         _Delay 06C0                           _adsum 0042                __end_of_TMR1_int 0494  
              __end_of_TMR2_int 0695                           main@i 004D                  __pbitbssCOMMON 03D8  
                         pclath 000A                      _Count_Flag 0076                           status 0003  
                         wtemp0 007E                      _InitTimer1 06D4                      _InitTimer2 06F6  
                  __end_of_main 01F4             __end_of_InitDevices 0611                          ??_main 004C  
                        ?_Delay 0044                   _InitialiseADC 0695                __end_of_PortInit 06C0  
                        _ADCON0 001F                          _ADCON1 009F                          _ADRESH 001E  
                        _ADRESL 009E                          _EEDATA 010C                          _EECON1 018C  
                        _EECON2 018D                          _ANSELH 0189                          i1l2030 0435  
                        i1l2022 040F                          i1l2031 0438                          i1l2023 03EF  
                        i1l2032 0445                          i1l2024 040C                          i1l2016 05C3  
                        i1l2033 048E                          i1l2025 040B                          i1l2017 05CF  
                        i1l2042 0694                          i1l2034 0464                          i1l2026 040E  
                        i1l2018 05DB                          i1l2043 0694                          i1l2035 048B  
                        i1l2027 0439                          i1l2019 05DB                          i1l2036 048A  
                        i1l2028 0419                          i1l2037 048C                          i1l2029 0436  
                        i1l2046 0679                          i1l2038 0493                          i1l2047 067B  
                        i1l2039 0493                          i1l2048 067B                          u300_20 068F  
                        u300_21 068E                          i1l9000 0422                          u301_20 03E4  
                        u301_21 03E3                          i1l9002 0426                          i1l9010 0439  
                        Delay@n 0044                          i1l9020 0464                          i1l9012 043F  
                        i1l9004 042C                          i1l9022 046D                          i1l9014 044B  
                        i1l9006 0430                          i1l9024 047A                          i1l9016 045B  
                        i1l9008 0431                          u310_20 0422                          u302_20 03EA  
                        u310_21 0421                          u302_21 03E9                          i1l9026 0487  
                        i1l9018 0461                          i1l9028 048E                          u311_20 042C  
                        u303_20 03EE                          u311_21 042B                          u303_21 03ED  
                        u312_20 043F                          u304_20 03F3                          u312_21 043E  
                        u304_21 03F2                          u313_20 044B                          u305_20 03F8  
                        u313_21 044A                          u305_21 03F7                          i1l8930 05B9  
                        i1l8940 05D5                          i1l8932 05BD                          i1l8950 066B  
                        i1l8942 065A                          i1l8934 05C3                          i1l8952 066D  
                        i1l8944 0660                          i1l8960 067F                          u314_20 045B  
                        u306_20 0402                          i1l8936 05C9                          u314_21 045A  
                        u306_21 0401                          i1l8954 0670                          i1l8946 0661  
                        i1l8962 0680                          i1l8970 03DB                          i1l8938 05CF  
                        i1l8956 0676                          i1l8948 0665                          i1l8964 0686  
                        i1l8980 03F3                          i1l8972 03E0                          u314_25 0457  
                        i1l8966 068F                          i1l8958 067C                          i1l8990 0407  
                        i1l8982 03F8                          i1l8974 03E4                          u315_20 046D  
                        u307_20 0414                          i1l8984 03FC                          i1l8976 03EA  
                        i1l8992 040F                          i1l8968 03D3                          u315_21 046C  
                        u307_21 0413                          i1l8994 0414                          i1l8986 0402  
                        i1l8978 03EE                          i1l8996 0418                          i1l8988 0406  
                        i1l8998 041D                          u316_20 047A                          u308_20 0418  
                        u316_21 0479                          u308_21 0417                          u317_20 0484  
                        u309_20 041D                          u317_21 0480                          u309_21 041C  
                        u318_24 0487                          u296_20 05BD                          u296_21 05BC  
                        u297_20 05C9                          u297_21 05C8                          u298_20 05D5  
                        _OSCCON 008F                          u298_21 05D4                          u299_20 066B  
                        u299_21 066A                          _TMR1IE 0460                          _TMR1IF 0060  
                        _TMR1CS 0081                          _TMR2IE 0461                          _TMR2IF 0061  
                        _TMR1ON 0080                          _TMR2ON 0092                          _SSPADD 0093  
                        _TRISC3 043B                          _TRISC4 043C                          _SSPCON 0014  
                        _SSPBUF 0013                          _VOLT_H 0040                          _VOLT_L 0041  
                     ??_ReadADC 0046                __end_of_delaynms 05B9                          _InitCn 070C  
                        _Key_Up 0037                      _MotorClose 01F4              __size_of_The_Close 0024  
                     ??___lwdiv 0048          ?_Motor_adjusting_speed 0070                          clrloop 0705  
                ?_InitialiseADC 0070                          saved_w 007E                      _Start_Flag 003D  
                     ?_IIC_init 0070                     _InitDevices 05E8                       ?_RBCN_int 0070  
                 __end_of_Delay 06D4                     ?_InitTimer1 0070                     ?_InitTimer2 0070  
                __pcstackCOMMON 0070                    __pidataBANK0 0718                       ?_TMR1_int 0070  
                     ?_TMR2_int 0070              ReadADC@ADC_Channel 0048                         ??_Delay 0046  
             __end_of_The_Close 065A                      __pbssBANK0 0020                ReadADC@ADC_VALUE 0020  
                    ??_IIC_init 0044                      ??_RBCN_int 0070                         ?_InitCn 0070  
                   ?_MotorClose 0070                      __pmaintext 0015                       ?_PortInit 0070  
                    __pintentry 0004                      ??_TMR1_int 0070                      ??_TMR2_int 0070  
                       _ADC_Val 0022                  _ADC_RESULT_BAT 0034                 ??_InitialiseADC 0044  
                   _Onekey_Flag 0039                         _GO_DONE 00F9                       ?_delaynms 0044  
                     TMR1_int@t 0071                  _FG_Period_time 0026                         _SSPCON2 0091  
           __size_of_InitTimer1 0012             __size_of_InitTimer2 000E                         _SSPSTAT 0094  
              write_IIC@wdate_H 0047                write_IIC@wdate_L 0046                         _ReadADC 0540  
            __size_of_write_IIC 00E0                         _Key_Run 0036                 RBCN_int@Sameple 0071  
               __size_of_InitCn 0007              __size_of_systemOSC 0005                         _Not_two 0079  
                    ??_PortInit 0044                _Open_Cover_times 002E            _Flag_adjusting_speed 002A  
                 _BAT_LED_times 0024                         ___lwdiv 04F0               _Start_KeyRun_Flag 003E  
                     _T1CONbits 0010                    __size_of_com 002F                   _Onekey_Key_Up 003A  
                    ??_delaynms 0046             __size_of_MotorClose 00FF            end_of_initialization 0632  
                     _RELAY_BAT 03D9         ??_Motor_adjusting_speed 004A                       _PORTAbits 0005  
                     _PORTBbits 0006                       _PORTCbits 0007               __end_of_write_IIC 03D3  
             __end_of_systemOSC 0718                 _Speed_LED_times 0032                    ?_InitDevices 0070  
             __size_of_IIC_init 0010                    ??_InitTimer1 0044                    ??_InitTimer2 0044  
                __end_of_InitCn 0713               __size_of_RBCN_int 0022               __size_of_TMR1_int 00C1  
             __size_of_TMR2_int 0019             start_initialization 0611                     __end_of_com 05E8  
                  _Initial_Flag 0035              __end_of_InitTimer1 06E6              __end_of_InitTimer2 0704  
                     _The_Close 0636                        ??_InitCn 0044                    ??_MotorClose 004A  
             _Flag_working_time 002C                     __pdataBANK0 004E               __size_of_PortInit 0015  
                     _Stop_Flag 003F                     __pbssCOMMON 0076                   __pcstackBANK0 0044  
                     _Work_Flag 007A              __end_of_MotorClose 02F3               __size_of_delaynms 0034  
                    ?_The_Close 0070                        ?_ReadADC 0044                ___lwdiv@dividend 0046  
                     __ptext810 0585                       __ptext811 0540                       __ptext803 01F4  
                     __ptext820 03D3                       __ptext812 070C                       __ptext804 0494  
                     __ptext821 067C                       __ptext813 06F6                       __ptext805 0636  
                     __ptext822 065A                       __ptext814 06D4                       __ptext806 02F3  
                     __ptext823 0000                       __ptext815 06E6                       __ptext807 05E8  
                     __ptext816 0695                       __ptext808 04F0                       __ptext817 06AB  
                     __ptext809 06C0                       __ptext818 0713                       __ptext819 05B9  
                      ?___lwdiv 0044           __end_of_InitialiseADC 06AB                 _Open_Cover_Flag 003C  
                __size_of_Delay 0014                ___lwdiv@quotient 004A               interrupt_function 0004  
                      _IIC_init 06E6                       delaynms@i 0046                       delaynms@j 0048  
                     delaynms@n 0044                     _FG_CN_Count 0077                    _Onekey_times 003B  
                      _RBCN_int 065A                        _RELAY_AC 03D8            __size_of_InitDevices 0029  
                      _TMR1_int 03D3                        _TMR2_int 067C  __size_of_Motor_adjusting_speed 005C  
 __end_of_Motor_adjusting_speed 04F0                       _write_IIC 02F3                       _systemOSC 0713  
                   ??_The_Close 004A                __size_of_ReadADC 0045                        _PortInit 06AB  
              __size_of___lwdiv 0050                 ___lwdiv@divisor 0044                        _delaynms 0585  
               ___lwdiv@counter 0049                      ?_write_IIC 0046                      ?_systemOSC 0070  
                 __size_of_main 01DF                        clear_ram 0704                      write_IIC@t 0048  
                      intlevel1 0000                      _OPTION_REG 0081             _Flag_FG_Period_time 0028  
                   ??_write_IIC 0047                     ??_systemOSC 0044                  _Flag_FG_Period 0050  
