

HI-TECH Software PIC LITE Macro Assembler V9.82 build 9453 
                                                                                               Wed Nov 20 13:35:01 2019

HI-TECH Software Omniscient Code Generator (Lite mode) build 9453
     1  0000                     opt subtitle "HI-TECH Software Omniscient Code Generator (Lite mode) build 9453"
     2                           
     3                           opt pagewidth 120
     4                           
     5                           	opt lm
     6                           
     7                           	processor	16F886
     8                           clrc	macro
     9                           	bcf	3,0
    10  0000                     	endm
    11                           clrz	macro
    12                           	bcf	3,2
    13  0000                     	endm
    14                           setc	macro
    15                           	bsf	3,0
    16  0000                     	endm
    17                           setz	macro
    18                           	bsf	3,2
    19  0000                     	endm
    20                           skipc	macro
    21                           	btfss	3,0
    22  0000                     	endm
    23                           skipz	macro
    24                           	btfss	3,2
    25  0000                     	endm
    26                           skipnc	macro
    27                           	btfsc	3,0
    28  0000                     	endm
    29                           skipnz	macro
    30                           	btfsc	3,2
    31  0000                     	endm
    32  0000                     indf	equ	0
    33  0000                     indf0	equ	0
    34  0002                     pc	equ	2
    35  0002                     pcl	equ	2
    36  0003                     status	equ	3
    37  0004                     fsr	equ	4
    38  0004                     fsr0	equ	4
    39  0001                     c	equ	1
    40  0000                     z	equ	0
    41  000A                     pclath	equ	10
    42                           # 13 "main.h"
    43                           	psect config,class=CONFIG,delta=2 ;#
    44                           # 13 "main.h"
    45  2007  EFF5               	dw 0xFFFD & 0xFFF7 & 0xFFFF & 0xFFFF & 0xFFFF & 0xFFFF & 0xFFFF & 0xFFFF & 0xFFFF & 0xE
                                 FFF ;#
    46                           # 14 "main.h"
    47                           	psect config,class=CONFIG,delta=2 ;#
    48                           # 14 "main.h"
    49  2008  FFFF               	dw 0xFFFF & 0xFFFF ;#
    50                           	FNCALL	_main,_InitDevices
    51                           	FNCALL	_main,_delaynms
    52                           	FNCALL	_main,_write_IIC
    53                           	FNCALL	_main,_Motor_adjusting_speed
    54                           	FNCALL	_main,_MotorClose
    55                           	FNCALL	_main,_The_Close
    56                           	FNCALL	_MotorClose,_write_IIC
    57                           	FNCALL	_MotorClose,_delaynms
    58                           	FNCALL	_Motor_adjusting_speed,_write_IIC
    59                           	FNCALL	_The_Close,_delaynms
    60                           	FNCALL	_write_IIC,_Delay
    61                           	FNCALL	_InitDevices,_systemOSC
    62                           	FNCALL	_InitDevices,_PortInit
    63                           	FNCALL	_InitDevices,_InitTimer1
    64                           	FNCALL	_InitDevices,_IIC_init
    65                           	FNCALL	_InitDevices,_InitTimer2
    66                           	FNCALL	_InitDevices,_InitCn
    67                           	FNROOT	_main
    68                           	FNCALL	_com,_RBCN_int
    69                           	FNCALL	_com,_TMR2_int
    70                           	FNCALL	_com,_TMR1_int
    71                           	FNCALL	intlevel1,_com
    72                           	global	intlevel1
    73                           	FNROOT	intlevel1
    74                           	global	_VOLT
    75                           	global	_Flag_FG_Period
    76                           psect	idataBANK0,class=CODE,space=0,delta=2
    77                           global __pidataBANK0
    78  05CC                     __pidataBANK0:
    79                           	file	"work.h"
    80                           	line	20
    81                           
    82                           ;initializer for _VOLT
    83  05CC  347E               	retlw	07Eh
    84  05CD  3404               	retlw	04h
    85                           
    86                           	file	"Interrupt.h"
    87                           	line	6
    88                           
    89                           ;initializer for _Flag_FG_Period
    90  05CE  3401               	retlw	01h
    91                           	global	ReadADC@ADC_VALUE
    92                           	global	_BAT_LED_times
    93                           	global	_FG_Period_time
    94                           	global	_Flag_FG_Period_time
    95                           	global	_Flag_adjusting_speed
    96                           	global	_Flag_working_time
    97                           	global	_Open_Cover_times
    98                           	global	_REALVOLTAGE_BAT_DC
    99                           	global	_Speed_LED_times
   100                           	global	_ADC_RESULT_BAT
   101                           	global	_Forbid_input
   102                           	global	_Initial_Flag
   103                           	global	_Key_Run
   104                           	global	_Key_Up
   105                           	global	_Once
   106                           	global	_Onekey_Flag
   107                           	global	_Onekey_Key_Up
   108                           	global	_Onekey_times
   109                           	global	_Open_Cover_Flag
   110                           	global	_Start_Flag
   111                           	global	_Start_KeyRun_Flag
   112                           	global	_Stop_Flag
   113                           	global	_VOLT_H
   114                           	global	_VOLT_L
   115                           	global	_adsum
   116                           	global	_kai
   117                           	global	_Count_Flag
   118                           	global	_FG_CN_Count
   119                           	global	_Key_Run_times
   120                           	global	_Not_two
   121                           	global	_Work_Flag
   122                           	global	_RELAY_AC
   123                           	global	_RELAY_BAT
   124                           	global	_TMR1
   125  000E                     _TMR1	set	14
   126                           	global	_ADCON0
   127  001F                     _ADCON0	set	31
   128                           	global	_ADRESH
   129  001E                     _ADRESH	set	30
   130                           	global	_PORTA
   131  0005                     _PORTA	set	5
   132                           	global	_PORTAbits
   133  0005                     _PORTAbits	set	5
   134                           	global	_PORTB
   135  0006                     _PORTB	set	6
   136                           	global	_PORTBbits
   137  0006                     _PORTBbits	set	6
   138                           	global	_PORTC
   139  0007                     _PORTC	set	7
   140                           	global	_PORTCbits
   141  0007                     _PORTCbits	set	7
   142                           	global	_SSPBUF
   143  0013                     _SSPBUF	set	19
   144                           	global	_SSPCON
   145  0014                     _SSPCON	set	20
   146                           	global	_T1CON
   147  0010                     _T1CON	set	16
   148                           	global	_T1CONbits
   149  0010                     _T1CONbits	set	16
   150                           	global	_T2CON
   151  0012                     _T2CON	set	18
   152                           	global	_TMR0
   153  0001                     _TMR0	set	1
   154                           	global	_TMR2
   155  0011                     _TMR2	set	17
   156                           	global	_ADIF
   157  0066                     _ADIF	set	102
   158                           	global	_ADON
   159  00F8                     _ADON	set	248
   160                           	global	_CARRY
   161  0018                     _CARRY	set	24
   162                           	global	_GIE
   163  005F                     _GIE	set	95
   164                           	global	_GO
   165  00F9                     _GO	set	249
   166                           	global	_GO_DONE
   167  00F9                     _GO_DONE	set	249
   168                           	global	_PEIE
   169  005E                     _PEIE	set	94
   170                           	global	_RBIE
   171  005B                     _RBIE	set	91
   172                           	global	_RBIF
   173  0058                     _RBIF	set	88
   174                           	global	_SSPIF
   175  0063                     _SSPIF	set	99
   176                           	global	_T0IE
   177  005D                     _T0IE	set	93
   178                           	global	_TMR1CS
   179  0081                     _TMR1CS	set	129
   180                           	global	_TMR1IF
   181  0060                     _TMR1IF	set	96
   182                           	global	_TMR1ON
   183  0080                     _TMR1ON	set	128
   184                           	global	_TMR2IF
   185  0061                     _TMR2IF	set	97
   186                           	global	_TMR2ON
   187  0092                     _TMR2ON	set	146
   188                           	global	_ADCON1
   189  009F                     _ADCON1	set	159
   190                           	global	_ADRESL
   191  009E                     _ADRESL	set	158
   192                           	global	_IOCB
   193  0096                     _IOCB	set	150
   194                           	global	_OPTION_REG
   195  0081                     _OPTION_REG	set	129
   196                           	global	_OSCCON
   197  008F                     _OSCCON	set	143
   198                           	global	_PR2
   199  0092                     _PR2	set	146
   200                           	global	_SSPADD
   201  0093                     _SSPADD	set	147
   202                           	global	_SSPCON2
   203  0091                     _SSPCON2	set	145
   204                           	global	_SSPSTAT
   205  0094                     _SSPSTAT	set	148
   206                           	global	_TRISA
   207  0085                     _TRISA	set	133
   208                           	global	_TRISB
   209  0086                     _TRISB	set	134
   210                           	global	_TRISC
   211  0087                     _TRISC	set	135
   212                           	global	_ADIE
   213  0466                     _ADIE	set	1126
   214                           	global	_PEN
   215  048A                     _PEN	set	1162
   216                           	global	_SEN
   217  0488                     _SEN	set	1160
   218                           	global	_TMR1IE
   219  0460                     _TMR1IE	set	1120
   220                           	global	_TMR2IE
   221  0461                     _TMR2IE	set	1121
   222                           	global	_TRISC3
   223  043B                     _TRISC3	set	1083
   224                           	global	_TRISC4
   225  043C                     _TRISC4	set	1084
   226                           	global	_EEADR
   227  010D                     _EEADR	set	269
   228                           	global	_EEDATA
   229  010C                     _EEDATA	set	268
   230                           	global	_ANSEL
   231  0188                     _ANSEL	set	392
   232                           	global	_ANSELH
   233  0189                     _ANSELH	set	393
   234                           	global	_EECON1
   235  018C                     _EECON1	set	396
   236                           	global	_EECON2
   237  018D                     _EECON2	set	397
   238                           	global	_RD
   239  0C60                     _RD	set	3168
   240                           	global	_WR
   241  0C61                     _WR	set	3169
   242                           	global	_WREN
   243  0C62                     _WREN	set	3170
   244                           	file	"C:\Users\1\AppData\Local\Temp\sogc."
   245                           	line	#
   246                           psect cinit,class=CODE,delta=2
   247                           global start_initialization
   248  04B4                     start_initialization:
   249                           
   250                           psect	bitbssCOMMON,class=COMMON,bit,space=1
   251                           global __pbitbssCOMMON
   252  03D8                     __pbitbssCOMMON:
   253  03D8                     _RELAY_AC:
   254  03D8                            ds      1
   255                           
   256  03D9                     _RELAY_BAT:
   257  03D9                            ds      1
   258                           
   259                           psect	bssCOMMON,class=COMMON,space=1
   260                           global __pbssCOMMON
   261  0076                     __pbssCOMMON:
   262  0076                     _Count_Flag:
   263  0076                            ds      1
   264                           
   265  0077                     _FG_CN_Count:
   266  0077                            ds      1
   267                           
   268  0078                     _Key_Run_times:
   269  0078                            ds      1
   270                           
   271  0079                     _Not_two:
   272  0079                            ds      1
   273                           
   274  007A                     _Work_Flag:
   275  007A                            ds      1
   276                           
   277                           psect	bssBANK0,class=BANK0,space=1
   278                           global __pbssBANK0
   279  0020                     __pbssBANK0:
   280  0020                     ReadADC@ADC_VALUE:
   281  0020                            ds      2
   282                           
   283  0022                     _BAT_LED_times:
   284  0022                            ds      2
   285                           
   286  0024                     _FG_Period_time:
   287  0024                            ds      2
   288                           
   289  0026                     _Flag_FG_Period_time:
   290  0026                            ds      2
   291                           
   292  0028                     _Flag_adjusting_speed:
   293  0028                            ds      2
   294                           
   295  002A                     _Flag_working_time:
   296  002A                            ds      2
   297                           
   298  002C                     _Open_Cover_times:
   299  002C                            ds      2
   300                           
   301  002E                     _REALVOLTAGE_BAT_DC:
   302  002E                            ds      2
   303                           
   304  0030                     _Speed_LED_times:
   305  0030                            ds      2
   306                           
   307  0032                     _ADC_RESULT_BAT:
   308  0032                            ds      1
   309                           
   310  0033                     _Forbid_input:
   311  0033                            ds      1
   312                           
   313  0034                     _Initial_Flag:
   314  0034                            ds      1
   315                           
   316  0035                     _Key_Run:
   317  0035                            ds      1
   318                           
   319  0036                     _Key_Up:
   320  0036                            ds      1
   321                           
   322  0037                     _Once:
   323  0037                            ds      1
   324                           
   325  0038                     _Onekey_Flag:
   326  0038                            ds      1
   327                           
   328  0039                     _Onekey_Key_Up:
   329  0039                            ds      1
   330                           
   331  003A                     _Onekey_times:
   332  003A                            ds      1
   333                           
   334  003B                     _Open_Cover_Flag:
   335  003B                            ds      1
   336                           
   337  003C                     _Start_Flag:
   338  003C                            ds      1
   339                           
   340  003D                     _Start_KeyRun_Flag:
   341  003D                            ds      1
   342                           
   343  003E                     _Stop_Flag:
   344  003E                            ds      1
   345                           
   346  003F                     _VOLT_H:
   347  003F                            ds      1
   348                           
   349  0040                     _VOLT_L:
   350  0040                            ds      1
   351                           
   352  0041                     _adsum:
   353  0041                            ds      1
   354                           
   355  0042                     _kai:
   356  0042                            ds      1
   357                           
   358                           psect	dataBANK0,class=BANK0,space=1
   359                           global __pdataBANK0
   360  004B                     __pdataBANK0:
   361                           	file	"work.h"
   362                           	line	20
   363  004B                     _VOLT:
   364  004B                            ds      2
   365                           
   366                           psect	dataBANK0
   367                           	file	"Interrupt.h"
   368                           	line	6
   369  004D                     _Flag_FG_Period:
   370  004D                            ds      1
   371                           
   372                           psect clrtext,class=CODE,delta=2
   373                           global clear_ram
   374                           ;	Called with FSR containing the base address, and
   375                           ;	W with the last address+1
   376  05B8                     clear_ram:
   377  05B8  0064               	clrwdt			;clear the watchdog before getting into this loop
   378  05B9                     clrloop:
   379  05B9  0180               	clrf	indf		;clear RAM location pointed to by FSR
   380  05BA  0A84               	incf	fsr,f		;increment pointer
   381  05BB  0604               	xorwf	fsr,w		;XOR with final address
   382  05BC  1903               	btfsc	status,2	;have we reached the end yet?
   383  05BD  3400               	retlw	0		;all done for this memory range, return
   384  05BE  0604               	xorwf	fsr,w		;XOR again to restore value
   385  05BF  2DB9               	goto	clrloop		;do the next byte
   386                           
   387                           ; Clear objects allocated to BITCOMMON
   388                           psect cinit,class=CODE,delta=2
   389  04B4  01FB               	clrf	((__pbitbssCOMMON/8)+0)&07Fh
   390                           ; Clear objects allocated to COMMON
   391                           psect cinit,class=CODE,delta=2
   392  04B5  01F6               	clrf	((__pbssCOMMON)+0)&07Fh
   393  04B6  01F7               	clrf	((__pbssCOMMON)+1)&07Fh
   394  04B7  01F8               	clrf	((__pbssCOMMON)+2)&07Fh
   395  04B8  01F9               	clrf	((__pbssCOMMON)+3)&07Fh
   396  04B9  01FA               	clrf	((__pbssCOMMON)+4)&07Fh
   397                           ; Clear objects allocated to BANK0
   398                           psect cinit,class=CODE,delta=2
   399  04BA  1383               	bcf	status, 7	;select IRP bank0
   400  04BB  3020               	movlw	low(__pbssBANK0)
   401  04BC  0084               	movwf	fsr
   402  04BD  3043               	movlw	low((__pbssBANK0)+023h)
   403  04BE  120A  118A  25B8   	fcall	clear_ram
              120A  118A         
   404                           ; Initialize objects allocated to BANK0
   405                           	global __pidataBANK0
   406                           psect cinit,class=CODE,delta=2
   407  04C3  120A  118A  25CC   	fcall	__pidataBANK0+0		;fetch initializer
              120A  118A         
   408  04C8  00CB               	movwf	__pdataBANK0+0&07fh		
   409  04C9  120A  118A  25CD   	fcall	__pidataBANK0+1		;fetch initializer
              120A  118A         
   410  04CE  00CC               	movwf	__pdataBANK0+1&07fh		
   411  04CF  120A  118A  25CE   	fcall	__pidataBANK0+2		;fetch initializer
              120A  118A         
   412  04D4  00CD               	movwf	__pdataBANK0+2&07fh		
   413                           psect cinit,class=CODE,delta=2
   414                           global end_of_initialization
   415                           
   416                           ;End of C runtime variable initialization code
   417                           
   418  04D5                     end_of_initialization:
   419  04D5  0183               clrf status
   420  04D6  120A  118A  2815   ljmp _main	;jump to C main() function
   421                           psect	cstackCOMMON,class=COMMON,space=1
   422                           global __pcstackCOMMON
   423  0070                     __pcstackCOMMON:
   424                           	global	?_RBCN_int
   425  0070                     ?_RBCN_int:	; 0 bytes @ 0x0
   426                           	global	??_RBCN_int
   427  0070                     ??_RBCN_int:	; 0 bytes @ 0x0
   428                           	global	?_TMR2_int
   429  0070                     ?_TMR2_int:	; 0 bytes @ 0x0
   430                           	global	??_TMR2_int
   431  0070                     ??_TMR2_int:	; 0 bytes @ 0x0
   432                           	global	?_TMR1_int
   433  0070                     ?_TMR1_int:	; 0 bytes @ 0x0
   434                           	global	??_TMR1_int
   435  0070                     ??_TMR1_int:	; 0 bytes @ 0x0
   436                           	global	?_Motor_adjusting_speed
   437  0070                     ?_Motor_adjusting_speed:	; 0 bytes @ 0x0
   438                           	global	?_MotorClose
   439  0070                     ?_MotorClose:	; 0 bytes @ 0x0
   440                           	global	?_The_Close
   441  0070                     ?_The_Close:	; 0 bytes @ 0x0
   442                           	global	?_systemOSC
   443  0070                     ?_systemOSC:	; 0 bytes @ 0x0
   444                           	global	?_PortInit
   445  0070                     ?_PortInit:	; 0 bytes @ 0x0
   446                           	global	?_IIC_init
   447  0070                     ?_IIC_init:	; 0 bytes @ 0x0
   448                           	global	?_InitTimer1
   449  0070                     ?_InitTimer1:	; 0 bytes @ 0x0
   450                           	global	?_InitTimer2
   451  0070                     ?_InitTimer2:	; 0 bytes @ 0x0
   452                           	global	?_InitCn
   453  0070                     ?_InitCn:	; 0 bytes @ 0x0
   454                           	global	?_InitDevices
   455  0070                     ?_InitDevices:	; 0 bytes @ 0x0
   456                           	global	?_com
   457  0070                     ?_com:	; 0 bytes @ 0x0
   458                           	global	?_main
   459  0070                     ?_main:	; 0 bytes @ 0x0
   460  0070                     	ds	1
   461                           	global	TMR1_int@t
   462  0071                     TMR1_int@t:	; 1 bytes @ 0x1
   463                           	global	RBCN_int@Sameple
   464  0071                     RBCN_int@Sameple:	; 1 bytes @ 0x1
   465  0071                     	ds	1
   466                           	global	??_com
   467  0072                     ??_com:	; 0 bytes @ 0x2
   468  0072                     	ds	4
   469                           psect	cstackBANK0,class=BANK0,space=1
   470                           global __pcstackBANK0
   471  0043                     __pcstackBANK0:
   472                           	global	?_delaynms
   473  0043                     ?_delaynms:	; 0 bytes @ 0x0
   474                           	global	?_Delay
   475  0043                     ?_Delay:	; 0 bytes @ 0x0
   476                           	global	??_systemOSC
   477  0043                     ??_systemOSC:	; 0 bytes @ 0x0
   478                           	global	??_PortInit
   479  0043                     ??_PortInit:	; 0 bytes @ 0x0
   480                           	global	??_IIC_init
   481  0043                     ??_IIC_init:	; 0 bytes @ 0x0
   482                           	global	??_InitTimer1
   483  0043                     ??_InitTimer1:	; 0 bytes @ 0x0
   484                           	global	??_InitTimer2
   485  0043                     ??_InitTimer2:	; 0 bytes @ 0x0
   486                           	global	??_InitCn
   487  0043                     ??_InitCn:	; 0 bytes @ 0x0
   488                           	global	Delay@n
   489  0043                     Delay@n:	; 2 bytes @ 0x0
   490                           	global	delaynms@n
   491  0043                     delaynms@n:	; 2 bytes @ 0x0
   492  0043                     	ds	1
   493                           	global	??_InitDevices
   494  0044                     ??_InitDevices:	; 0 bytes @ 0x1
   495  0044                     	ds	1
   496                           	global	??_delaynms
   497  0045                     ??_delaynms:	; 0 bytes @ 0x2
   498                           	global	?_write_IIC
   499  0045                     ?_write_IIC:	; 0 bytes @ 0x2
   500                           	global	??_Delay
   501  0045                     ??_Delay:	; 0 bytes @ 0x2
   502                           	global	write_IIC@wdate_L
   503  0045                     write_IIC@wdate_L:	; 1 bytes @ 0x2
   504                           	global	delaynms@i
   505  0045                     delaynms@i:	; 2 bytes @ 0x2
   506  0045                     	ds	1
   507                           	global	??_write_IIC
   508  0046                     ??_write_IIC:	; 0 bytes @ 0x3
   509                           	global	write_IIC@wdate_H
   510  0046                     write_IIC@wdate_H:	; 1 bytes @ 0x3
   511  0046                     	ds	1
   512                           	global	write_IIC@t
   513  0047                     write_IIC@t:	; 2 bytes @ 0x4
   514                           	global	delaynms@j
   515  0047                     delaynms@j:	; 2 bytes @ 0x4
   516  0047                     	ds	2
   517                           	global	??_Motor_adjusting_speed
   518  0049                     ??_Motor_adjusting_speed:	; 0 bytes @ 0x6
   519                           	global	??_MotorClose
   520  0049                     ??_MotorClose:	; 0 bytes @ 0x6
   521                           	global	??_The_Close
   522  0049                     ??_The_Close:	; 0 bytes @ 0x6
   523  0049                     	ds	1
   524                           	global	??_main
   525  004A                     ??_main:	; 0 bytes @ 0x7
   526  004A                     	ds	1
   527 ;;Data sizes: Strings 0, constant 0, data 3, bss 40, persistent 0 stack 0
   528 ;;Auto spaces:   Size  Autos    Used
   529 ;; COMMON          14      6      12
   530 ;; BANK0           80      8      46
   531 ;; BANK1           80      0       0
   532 ;; BANK3           96      0       0
   533 ;; BANK2           96      0       0
   534                           
   535 ;;
   536 ;; Pointer list with targets:
   537                           
   538                           
   539                           
   540 ;;
   541 ;; Critical Paths under _main in COMMON
   542 ;;
   543 ;;   None.
   544 ;;
   545 ;; Critical Paths under _com in COMMON
   546 ;;
   547 ;;   _com->_RBCN_int
   548 ;;   _com->_TMR1_int
   549 ;;
   550 ;; Critical Paths under _main in BANK0
   551 ;;
   552 ;;   _main->_Motor_adjusting_speed
   553 ;;   _main->_MotorClose
   554 ;;   _MotorClose->_write_IIC
   555 ;;   _MotorClose->_delaynms
   556 ;;   _Motor_adjusting_speed->_write_IIC
   557 ;;   _The_Close->_delaynms
   558 ;;   _write_IIC->_Delay
   559 ;;   _InitDevices->_PortInit
   560 ;;
   561 ;; Critical Paths under _com in BANK0
   562 ;;
   563 ;;   None.
   564 ;;
   565 ;; Critical Paths under _main in BANK1
   566 ;;
   567 ;;   None.
   568 ;;
   569 ;; Critical Paths under _com in BANK1
   570 ;;
   571 ;;   None.
   572 ;;
   573 ;; Critical Paths under _main in BANK3
   574 ;;
   575 ;;   None.
   576 ;;
   577 ;; Critical Paths under _com in BANK3
   578 ;;
   579 ;;   None.
   580 ;;
   581 ;; Critical Paths under _main in BANK2
   582 ;;
   583 ;;   None.
   584 ;;
   585 ;; Critical Paths under _com in BANK2
   586 ;;
   587 ;;   None.
   588                           
   589 ;;
   590 ;;Main: autosize = 0, tempsize = 1, incstack = 0, save=0
   591 ;;
   592                           
   593 ;;
   594 ;;Call Graph Tables:
   595 ;;
   596 ;; ---------------------------------------------------------------------------------
   597 ;; (Depth) Function   	        Calls       Base Space   Used Autos Params    Refs
   598 ;; ---------------------------------------------------------------------------------
   599 ;; (0) _main                                                 2     2      0    1260
   600 ;;                                              7 BANK0      1     1      0
   601 ;;                        _InitDevices
   602 ;;                           _delaynms
   603 ;;                          _write_IIC
   604 ;;              _Motor_adjusting_speed
   605 ;;                         _MotorClose
   606 ;;                          _The_Close
   607 ;; ---------------------------------------------------------------------------------
   608 ;; (1) _MotorClose                                           1     1      0     420
   609 ;;                                              6 BANK0      1     1      0
   610 ;;                          _write_IIC
   611 ;;                           _delaynms
   612 ;; ---------------------------------------------------------------------------------
   613 ;; (1) _Motor_adjusting_speed                                1     1      0     284
   614 ;;                                              6 BANK0      1     1      0
   615 ;;                          _write_IIC
   616 ;; ---------------------------------------------------------------------------------
   617 ;; (1) _The_Close                                            0     0      0     136
   618 ;;                           _delaynms
   619 ;; ---------------------------------------------------------------------------------
   620 ;; (2) _write_IIC                                            4     3      1     284
   621 ;;                                              2 BANK0      4     3      1
   622 ;;                              _Delay
   623 ;; ---------------------------------------------------------------------------------
   624 ;; (1) _InitDevices                                          0     0      0       0
   625 ;;                          _systemOSC
   626 ;;                           _PortInit
   627 ;;                         _InitTimer1
   628 ;;                           _IIC_init
   629 ;;                         _InitTimer2
   630 ;;                             _InitCn
   631 ;; ---------------------------------------------------------------------------------
   632 ;; (3) _Delay                                                2     0      2      34
   633 ;;                                              0 BANK0      2     0      2
   634 ;; ---------------------------------------------------------------------------------
   635 ;; (2) _delaynms                                             6     4      2     136
   636 ;;                                              0 BANK0      6     4      2
   637 ;; ---------------------------------------------------------------------------------
   638 ;; (2) _InitCn                                               0     0      0       0
   639 ;; ---------------------------------------------------------------------------------
   640 ;; (2) _InitTimer2                                           0     0      0       0
   641 ;; ---------------------------------------------------------------------------------
   642 ;; (2) _InitTimer1                                           0     0      0       0
   643 ;; ---------------------------------------------------------------------------------
   644 ;; (2) _IIC_init                                             0     0      0       0
   645 ;; ---------------------------------------------------------------------------------
   646 ;; (2) _PortInit                                             1     1      0       0
   647 ;;                                              0 BANK0      1     1      0
   648 ;; ---------------------------------------------------------------------------------
   649 ;; (2) _systemOSC                                            0     0      0       0
   650 ;; ---------------------------------------------------------------------------------
   651 ;; Estimated maximum stack depth 3
   652 ;; ---------------------------------------------------------------------------------
   653 ;; (Depth) Function   	        Calls       Base Space   Used Autos Params    Refs
   654 ;; ---------------------------------------------------------------------------------
   655 ;; (4) _com                                                  4     4      0       2
   656 ;;                                              2 COMMON     4     4      0
   657 ;;                           _RBCN_int
   658 ;;                           _TMR2_int
   659 ;;                           _TMR1_int
   660 ;; ---------------------------------------------------------------------------------
   661 ;; (5) _TMR1_int                                             3     3      0       1
   662 ;;                                              0 COMMON     2     2      0
   663 ;; ---------------------------------------------------------------------------------
   664 ;; (5) _TMR2_int                                             0     0      0       0
   665 ;; ---------------------------------------------------------------------------------
   666 ;; (5) _RBCN_int                                             2     2      0       1
   667 ;;                                              0 COMMON     2     2      0
   668 ;; ---------------------------------------------------------------------------------
   669 ;; Estimated maximum stack depth 5
   670 ;; ---------------------------------------------------------------------------------
   671                           
   672 ;; Call Graph Graphs:
   673                           
   674 ;; _main (ROOT)
   675 ;;   _InitDevices
   676 ;;     _systemOSC
   677 ;;     _PortInit
   678 ;;     _InitTimer1
   679 ;;     _IIC_init
   680 ;;     _InitTimer2
   681 ;;     _InitCn
   682 ;;   _delaynms
   683 ;;   _write_IIC
   684 ;;     _Delay
   685 ;;   _Motor_adjusting_speed
   686 ;;     _write_IIC
   687 ;;       _Delay
   688 ;;   _MotorClose
   689 ;;     _write_IIC
   690 ;;       _Delay
   691 ;;     _delaynms
   692 ;;   _The_Close
   693 ;;     _delaynms
   694 ;;
   695 ;; _com (ROOT)
   696 ;;   _RBCN_int
   697 ;;   _TMR2_int
   698 ;;   _TMR1_int
   699 ;;
   700                           
   701 ;; Address spaces:
   702                           
   703 ;;Name               Size   Autos  Total    Cost      Usage
   704 ;;BANK3               60      0       0       9        0.0%
   705 ;;BITBANK3            60      0       0       8        0.0%
   706 ;;SFR3                 0      0       0       4        0.0%
   707 ;;BITSFR3              0      0       0       4        0.0%
   708 ;;BANK2               60      0       0      11        0.0%
   709 ;;BITBANK2            60      0       0      10        0.0%
   710 ;;SFR2                 0      0       0       5        0.0%
   711 ;;BITSFR2              0      0       0       5        0.0%
   712 ;;SFR1                 0      0       0       2        0.0%
   713 ;;BITSFR1              0      0       0       2        0.0%
   714 ;;BANK1               50      0       0       7        0.0%
   715 ;;BITBANK1            50      0       0       6        0.0%
   716 ;;CODE                 0      0       0       0        0.0%
   717 ;;DATA                 0      0      41      12        0.0%
   718 ;;ABS                  0      0      3A       3        0.0%
   719 ;;NULL                 0      0       0       0        0.0%
   720 ;;STACK                0      0       7       2        0.0%
   721 ;;BANK0               50      8      2E       5       57.5%
   722 ;;BITBANK0            50      0       0       4        0.0%
   723 ;;SFR0                 0      0       0       1        0.0%
   724 ;;BITSFR0              0      0       0       1        0.0%
   725 ;;COMMON               E      6       C       1       85.7%
   726 ;;BITCOMMON            E      0       1       0        7.1%
   727 ;;EEDATA             100      0       0       0        0.0%
   728                           
   729                           	global	_main
   730                           psect	maintext,global,class=CODE,delta=2
   731                           global __pmaintext
   732  0015                     __pmaintext:
   733                           
   734 ;; *************** function _main *****************
   735 ;; Defined at:
   736 ;;		line 26 in file "main.c"
   737 ;; Parameters:    Size  Location     Type
   738 ;;		None
   739 ;; Auto vars:     Size  Location     Type
   740 ;;  i               1    0        unsigned char 
   741 ;; Return value:  Size  Location     Type
   742 ;;		None               void
   743 ;; Registers used:
   744 ;;		wreg, status,2, status,0, btemp+1, pclath, cstack
   745 ;; Tracked objects:
   746 ;;		On entry : 17F/0
   747 ;;		On exit  : 0/0
   748 ;;		Unchanged: 0/0
   749 ;; Data sizes:     COMMON   BANK0   BANK1   BANK3   BANK2
   750 ;;      Params:         0       0       0       0       0
   751 ;;      Locals:         0       0       0       0       0
   752 ;;      Temps:          0       1       0       0       0
   753 ;;      Totals:         0       1       0       0       0
   754 ;;Total ram usage:        1 bytes
   755 ;; Hardware stack levels required when called:    5
   756 ;; This function calls:
   757 ;;		_InitDevices
   758 ;;		_delaynms
   759 ;;		_write_IIC
   760 ;;		_Motor_adjusting_speed
   761 ;;		_MotorClose
   762 ;;		_The_Close
   763 ;; This function is called by:
   764 ;;		Startup code after reset
   765 ;; This function uses a non-reentrant model
   766 ;;
   767                           psect	maintext
   768                           	file	"main.c"
   769                           	line	26
   770                           	global	__size_of_main
   771  013C                     	__size_of_main	equ	__end_of_main-_main
   772                           	
   773  0015                     _main:	
   774                           	opt	stack 3
   775                           ; Regs used in _main: [wreg+status,2+status,0+btemp+1+pclath+cstack]
   776                           	line	28
   777                           	
   778  0015                     l9568:	
   779                           ;main.c: 27: unsigned char i;
   780                           ;main.c: 28: InitDevices();
   781  0015  120A  118A  24FE   	fcall	_InitDevices
              120A  118A         
   782                           	line	29
   783                           	
   784  001A                     l9570:	
   785                           ;main.c: 29: PORTBbits.RB2 = 1;asm ("NOP");
   786  001A  1283               	bcf	status, 5	;RP0=0, select bank0
   787  001B  1303               	bcf	status, 6	;RP1=0, select bank0
   788  001C  1506               	bsf	(6),2	;volatile
   789                           	
   790  001D                     l9572:	
   791                           # 29 "main.c"
   792  001D  0000               NOP ;#
   793                           psect	maintext
   794                           	line	30
   795                           	
   796  001E                     l9574:	
   797                           ;main.c: 30: PORTBbits.RB3 = 0;asm ("NOP");
   798  001E  1283               	bcf	status, 5	;RP0=0, select bank0
   799  001F  1303               	bcf	status, 6	;RP1=0, select bank0
   800  0020  1186               	bcf	(6),3	;volatile
   801                           	
   802  0021                     l9576:	
   803                           # 30 "main.c"
   804  0021  0000               NOP ;#
   805                           psect	maintext
   806  0022  2823               	goto	l9578
   807                           	line	31
   808                           ;main.c: 31: while(1)
   809                           	
   810  0023                     l3069:	
   811                           	line	34
   812                           	
   813  0023                     l9578:	
   814                           ;main.c: 32: {
   815                           ;main.c: 34: if((Count_Flag == 0) && (Work_Flag == 1)) {PORTBbits.RB0 = 1;asm ("NOP");}
   816  0023  08F6               	movf	(_Count_Flag),f
   817  0024  1D03               	skipz
   818  0025  2827               	goto	u3671
   819  0026  2828               	goto	u3670
   820  0027                     u3671:
   821  0027  2833               	goto	l9584
   822  0028                     u3670:
   823                           	
   824  0028                     l9580:	
   825  0028  087A               	movf	(_Work_Flag),w
   826  0029  3A01               	xorlw	01h
   827  002A  1D03               	skipz
   828  002B  282D               	goto	u3681
   829  002C  282E               	goto	u3680
   830  002D                     u3681:
   831  002D  2833               	goto	l9584
   832  002E                     u3680:
   833                           	
   834  002E                     l9582:	
   835  002E  1283               	bcf	status, 5	;RP0=0, select bank0
   836  002F  1303               	bcf	status, 6	;RP1=0, select bank0
   837  0030  1406               	bsf	(6),0	;volatile
   838                           # 34 "main.c"
   839  0031  0000               NOP ;#
   840                           psect	maintext
   841  0032  283E               	goto	l9588
   842                           	line	35
   843                           	
   844  0033                     l3070:	
   845                           	
   846  0033                     l9584:	
   847                           ;main.c: 35: else if(Key_Run == 0 ) {PORTBbits.RB0 = 0;asm ("NOP");}
   848  0033  1283               	bcf	status, 5	;RP0=0, select bank0
   849  0034  1303               	bcf	status, 6	;RP1=0, select bank0
   850  0035  08B5               	movf	(_Key_Run),f
   851  0036  1D03               	skipz
   852  0037  2839               	goto	u3691
   853  0038  283A               	goto	u3690
   854  0039                     u3691:
   855  0039  283E               	goto	l9588
   856  003A                     u3690:
   857                           	
   858  003A                     l9586:	
   859  003A  1006               	bcf	(6),0	;volatile
   860                           # 35 "main.c"
   861  003B  0000               NOP ;#
   862                           psect	maintext
   863  003C  283E               	goto	l9588
   864                           	
   865  003D                     l3072:	
   866  003D  283E               	goto	l9588
   867                           	line	61
   868                           	
   869  003E                     l3071:	
   870                           	
   871  003E                     l9588:	
   872                           ;main.c: 61: if((Onekey_Flag == 1) &&(Work_Flag == 0))
   873  003E  1283               	bcf	status, 5	;RP0=0, select bank0
   874  003F  1303               	bcf	status, 6	;RP1=0, select bank0
   875  0040  0838               	movf	(_Onekey_Flag),w
   876  0041  3A01               	xorlw	01h
   877  0042  1D03               	skipz
   878  0043  2845               	goto	u3701
   879  0044  2846               	goto	u3700
   880  0045                     u3701:
   881  0045  2859               	goto	l9596
   882  0046                     u3700:
   883                           	
   884  0046                     l9590:	
   885  0046  08FA               	movf	(_Work_Flag),f
   886  0047  1D03               	skipz
   887  0048  284A               	goto	u3711
   888  0049  284B               	goto	u3710
   889  004A                     u3711:
   890  004A  2859               	goto	l9596
   891  004B                     u3710:
   892                           	line	63
   893                           	
   894  004B                     l9592:	
   895                           ;main.c: 62: {
   896                           ;main.c: 63: PORTCbits.RC0= 1;asm ("NOP");
   897  004B  1407               	bsf	(7),0	;volatile
   898                           # 63 "main.c"
   899  004C  0000               NOP ;#
   900                           psect	maintext
   901                           	line	64
   902                           ;main.c: 64: PORTAbits.RA4= 1;asm ("NOP");
   903  004D  1283               	bcf	status, 5	;RP0=0, select bank0
   904  004E  1303               	bcf	status, 6	;RP1=0, select bank0
   905  004F  1605               	bsf	(5),4	;volatile
   906                           # 64 "main.c"
   907  0050  0000               NOP ;#
   908                           psect	maintext
   909                           	line	65
   910                           ;main.c: 65: PORTBbits.RB5 = 1;asm ("NOP");
   911  0051  1283               	bcf	status, 5	;RP0=0, select bank0
   912  0052  1303               	bcf	status, 6	;RP1=0, select bank0
   913  0053  1686               	bsf	(6),5	;volatile
   914                           # 65 "main.c"
   915  0054  0000               NOP ;#
   916                           psect	maintext
   917                           	line	66
   918                           	
   919  0055                     l9594:	
   920                           ;main.c: 66: Not_two = 1;
   921  0055  01F9               	clrf	(_Not_two)
   922  0056  1403               	bsf	status,0
   923  0057  0DF9               	rlf	(_Not_two),f
   924  0058  2859               	goto	l9596
   925                           	line	67
   926                           	
   927  0059                     l3073:	
   928                           	line	68
   929                           	
   930  0059                     l9596:	
   931                           ;main.c: 67: }
   932                           ;main.c: 68: if((Onekey_Flag == 2) && (Work_Flag == 0))
   933  0059  1283               	bcf	status, 5	;RP0=0, select bank0
   934  005A  1303               	bcf	status, 6	;RP1=0, select bank0
   935  005B  0838               	movf	(_Onekey_Flag),w
   936  005C  3A02               	xorlw	02h
   937  005D  1D03               	skipz
   938  005E  2860               	goto	u3721
   939  005F  2861               	goto	u3720
   940  0060                     u3721:
   941  0060  2888               	goto	l9624
   942  0061                     u3720:
   943                           	
   944  0061                     l9598:	
   945  0061  08FA               	movf	(_Work_Flag),f
   946  0062  1D03               	skipz
   947  0063  2865               	goto	u3731
   948  0064  2866               	goto	u3730
   949  0065                     u3731:
   950  0065  2888               	goto	l9624
   951  0066                     u3730:
   952                           	line	70
   953                           	
   954  0066                     l9600:	
   955                           ;main.c: 69: {
   956                           ;main.c: 70: PORTAbits.RA2 = 1;asm ("NOP");
   957  0066  1505               	bsf	(5),2	;volatile
   958                           # 70 "main.c"
   959  0067  0000               NOP ;#
   960                           psect	maintext
   961                           	line	71
   962                           	
   963  0068                     l9602:	
   964                           ;main.c: 71: delaynms(10);
   965  0068  300A               	movlw	low(0Ah)
   966  0069  1283               	bcf	status, 5	;RP0=0, select bank0
   967  006A  1303               	bcf	status, 6	;RP1=0, select bank0
   968  006B  00C3               	movwf	(?_delaynms)
   969  006C  3000               	movlw	high(0Ah)
   970  006D  00C4               	movwf	((?_delaynms))+1
   971  006E  120A  118A  2451   	fcall	_delaynms
              120A  118A         
   972                           	line	72
   973                           	
   974  0073                     l9604:	
   975                           ;main.c: 72: PORTAbits.RA2 = 0;asm ("NOP");
   976  0073  1283               	bcf	status, 5	;RP0=0, select bank0
   977  0074  1303               	bcf	status, 6	;RP1=0, select bank0
   978  0075  1105               	bcf	(5),2	;volatile
   979                           	
   980  0076                     l9606:	
   981                           # 72 "main.c"
   982  0076  0000               NOP ;#
   983                           psect	maintext
   984                           	line	73
   985                           	
   986  0077                     l9608:	
   987                           ;main.c: 73: PORTCbits.RC0 = 0;asm ("NOP");
   988  0077  1283               	bcf	status, 5	;RP0=0, select bank0
   989  0078  1303               	bcf	status, 6	;RP1=0, select bank0
   990  0079  1007               	bcf	(7),0	;volatile
   991                           	
   992  007A                     l9610:	
   993                           # 73 "main.c"
   994  007A  0000               NOP ;#
   995                           psect	maintext
   996                           	line	74
   997                           	
   998  007B                     l9612:	
   999                           ;main.c: 74: PORTAbits.RA4 = 0;asm ("NOP");
  1000  007B  1283               	bcf	status, 5	;RP0=0, select bank0
  1001  007C  1303               	bcf	status, 6	;RP1=0, select bank0
  1002  007D  1205               	bcf	(5),4	;volatile
  1003                           	
  1004  007E                     l9614:	
  1005                           # 74 "main.c"
  1006  007E  0000               NOP ;#
  1007                           psect	maintext
  1008                           	line	75
  1009                           	
  1010  007F                     l9616:	
  1011                           ;main.c: 75: PORTBbits.RB5 = 0;asm ("NOP");
  1012  007F  1283               	bcf	status, 5	;RP0=0, select bank0
  1013  0080  1303               	bcf	status, 6	;RP1=0, select bank0
  1014  0081  1286               	bcf	(6),5	;volatile
  1015                           	
  1016  0082                     l9618:	
  1017                           # 75 "main.c"
  1018  0082  0000               NOP ;#
  1019                           psect	maintext
  1020                           	line	76
  1021                           	
  1022  0083                     l9620:	
  1023                           ;main.c: 76: Not_two = 0;
  1024  0083  01F9               	clrf	(_Not_two)
  1025                           	line	77
  1026                           	
  1027  0084                     l9622:	
  1028                           ;main.c: 77: Onekey_Flag = 0;
  1029  0084  1283               	bcf	status, 5	;RP0=0, select bank0
  1030  0085  1303               	bcf	status, 6	;RP1=0, select bank0
  1031  0086  01B8               	clrf	(_Onekey_Flag)
  1032  0087  2888               	goto	l9624
  1033                           	line	78
  1034                           	
  1035  0088                     l3074:	
  1036                           	line	80
  1037                           	
  1038  0088                     l9624:	
  1039                           ;main.c: 78: }
  1040                           ;main.c: 80: if((PORTAbits.RA1 == 0) && (Not_two == 1))
  1041  0088  1885               	btfsc	(5),1	;volatile
  1042  0089  288B               	goto	u3741
  1043  008A  288C               	goto	u3740
  1044  008B                     u3741:
  1045  008B  2823               	goto	l9578
  1046  008C                     u3740:
  1047                           	
  1048  008C                     l9626:	
  1049  008C  0879               	movf	(_Not_two),w
  1050  008D  3A01               	xorlw	01h
  1051  008E  1D03               	skipz
  1052  008F  2891               	goto	u3751
  1053  0090  2892               	goto	u3750
  1054  0091                     u3751:
  1055  0091  2823               	goto	l9578
  1056  0092                     u3750:
  1057                           	line	82
  1058                           	
  1059  0092                     l9628:	
  1060                           ;main.c: 81: {
  1061                           ;main.c: 82: if(Key_Run == 1)
  1062  0092  0835               	movf	(_Key_Run),w
  1063  0093  3A01               	xorlw	01h
  1064  0094  1D03               	skipz
  1065  0095  2897               	goto	u3761
  1066  0096  2898               	goto	u3760
  1067  0097                     u3761:
  1068  0097  291A               	goto	l9664
  1069  0098                     u3760:
  1070  0098  28D5               	goto	l9642
  1071                           	line	84
  1072                           	
  1073  0099                     l9630:	
  1074                           ;main.c: 83: {
  1075                           ;main.c: 84: while(Initial_Flag == 0)
  1076  0099  28D5               	goto	l9642
  1077                           	
  1078  009A                     l3078:	
  1079                           	line	86
  1080                           	
  1081  009A                     l9632:	
  1082                           ;main.c: 85: {
  1083                           ;main.c: 86: Work_Flag = 1;
  1084  009A  01FA               	clrf	(_Work_Flag)
  1085  009B  1403               	bsf	status,0
  1086  009C  0DFA               	rlf	(_Work_Flag),f
  1087                           	line	87
  1088                           ;main.c: 87: Count_Flag = 1;
  1089  009D  01F6               	clrf	(_Count_Flag)
  1090  009E  1403               	bsf	status,0
  1091  009F  0DF6               	rlf	(_Count_Flag),f
  1092                           	line	88
  1093                           	
  1094  00A0                     l9634:	
  1095                           ;main.c: 88: write_IIC(0x03,0x33 );
  1096  00A0  3033               	movlw	(033h)
  1097  00A1  00CA               	movwf	(??_main+0)+0
  1098  00A2  084A               	movf	(??_main+0)+0,w
  1099  00A3  00C5               	movwf	(?_write_IIC)
  1100  00A4  3003               	movlw	(03h)
  1101  00A5  120A  118A  2250   	fcall	_write_IIC
              120A  118A         
  1102                           	line	89
  1103                           	
  1104  00AA                     l9636:	
  1105                           ;main.c: 89: delaynms(1);
  1106  00AA  3001               	movlw	low(01h)
  1107  00AB  1283               	bcf	status, 5	;RP0=0, select bank0
  1108  00AC  1303               	bcf	status, 6	;RP1=0, select bank0
  1109  00AD  00C3               	movwf	(?_delaynms)
  1110  00AE  3000               	movlw	high(01h)
  1111  00AF  00C4               	movwf	((?_delaynms))+1
  1112  00B0  120A  118A  2451   	fcall	_delaynms
              120A  118A         
  1113                           	line	90
  1114                           	
  1115  00B5                     l9638:	
  1116                           ;main.c: 90: write_IIC(0x04,0x4c );
  1117  00B5  304C               	movlw	(04Ch)
  1118  00B6  1283               	bcf	status, 5	;RP0=0, select bank0
  1119  00B7  1303               	bcf	status, 6	;RP1=0, select bank0
  1120  00B8  00CA               	movwf	(??_main+0)+0
  1121  00B9  084A               	movf	(??_main+0)+0,w
  1122  00BA  00C5               	movwf	(?_write_IIC)
  1123  00BB  3004               	movlw	(04h)
  1124  00BC  120A  118A  2250   	fcall	_write_IIC
              120A  118A         
  1125                           	line	91
  1126                           	
  1127  00C1                     l9640:	
  1128                           ;main.c: 91: delaynms(1);
  1129  00C1  3001               	movlw	low(01h)
  1130  00C2  1283               	bcf	status, 5	;RP0=0, select bank0
  1131  00C3  1303               	bcf	status, 6	;RP1=0, select bank0
  1132  00C4  00C3               	movwf	(?_delaynms)
  1133  00C5  3000               	movlw	high(01h)
  1134  00C6  00C4               	movwf	((?_delaynms))+1
  1135  00C7  120A  118A  2451   	fcall	_delaynms
              120A  118A         
  1136                           	line	92
  1137                           ;main.c: 92: Initial_Flag = 1;
  1138  00CC  1283               	bcf	status, 5	;RP0=0, select bank0
  1139  00CD  1303               	bcf	status, 6	;RP1=0, select bank0
  1140  00CE  01B4               	clrf	(_Initial_Flag)
  1141  00CF  1403               	bsf	status,0
  1142  00D0  0DB4               	rlf	(_Initial_Flag),f
  1143                           	line	93
  1144                           ;main.c: 93: kai = 1;
  1145  00D1  01C2               	clrf	(_kai)
  1146  00D2  1403               	bsf	status,0
  1147  00D3  0DC2               	rlf	(_kai),f
  1148                           	line	94
  1149                           ;main.c: 94: break;
  1150  00D4  28DA               	goto	l9644
  1151                           	line	95
  1152                           	
  1153  00D5                     l3077:	
  1154                           	line	84
  1155                           	
  1156  00D5                     l9642:	
  1157  00D5  0834               	movf	(_Initial_Flag),w
  1158  00D6  1D03               	skipz
  1159  00D7  28D9               	goto	u3770
  1160  00D8  289A               	goto	l9632
  1161  00D9                     u3770:
  1162  00D9  28DA               	goto	l9644
  1163                           	
  1164  00DA                     l3079:	
  1165                           	line	96
  1166                           	
  1167  00DA                     l9644:	
  1168                           ;main.c: 95: }
  1169                           ;main.c: 96: if((Start_Flag == 0)&&(kai == 1))
  1170  00DA  08BC               	movf	(_Start_Flag),f
  1171  00DB  1D03               	skipz
  1172  00DC  28DE               	goto	u3781
  1173  00DD  28DF               	goto	u3780
  1174  00DE                     u3781:
  1175  00DE  28EB               	goto	l9650
  1176  00DF                     u3780:
  1177                           	
  1178  00DF                     l9646:	
  1179  00DF  0842               	movf	(_kai),w
  1180  00E0  3A01               	xorlw	01h
  1181  00E1  1D03               	skipz
  1182  00E2  28E4               	goto	u3791
  1183  00E3  28E5               	goto	u3790
  1184  00E4                     u3791:
  1185  00E4  28EB               	goto	l9650
  1186  00E5                     u3790:
  1187                           	line	98
  1188                           	
  1189  00E5                     l9648:	
  1190                           ;main.c: 97: {
  1191                           ;main.c: 98: Motor_adjusting_speed();
  1192  00E5  120A  118A  23F5   	fcall	_Motor_adjusting_speed
              120A  118A         
  1193                           	line	99
  1194                           ;main.c: 99: }
  1195  00EA  2823               	goto	l9578
  1196                           	line	100
  1197                           	
  1198  00EB                     l3080:	
  1199                           	
  1200  00EB                     l9650:	
  1201                           ;main.c: 100: else if(Stop_Flag == 1)
  1202  00EB  1283               	bcf	status, 5	;RP0=0, select bank0
  1203  00EC  1303               	bcf	status, 6	;RP1=0, select bank0
  1204  00ED  083E               	movf	(_Stop_Flag),w
  1205  00EE  3A01               	xorlw	01h
  1206  00EF  1D03               	skipz
  1207  00F0  28F2               	goto	u3801
  1208  00F1  28F3               	goto	u3800
  1209  00F2                     u3801:
  1210  00F2  2823               	goto	l9578
  1211  00F3                     u3800:
  1212                           	line	102
  1213                           	
  1214  00F3                     l9652:	
  1215                           ;main.c: 101: {
  1216                           ;main.c: 102: Open_Cover_Flag = 1;
  1217  00F3  01BB               	clrf	(_Open_Cover_Flag)
  1218  00F4  1403               	bsf	status,0
  1219  00F5  0DBB               	rlf	(_Open_Cover_Flag),f
  1220                           	line	103
  1221                           ;main.c: 103: if(Once == 0)
  1222  00F6  08B7               	movf	(_Once),f
  1223  00F7  1D03               	skipz
  1224  00F8  28FA               	goto	u3811
  1225  00F9  28FB               	goto	u3810
  1226  00FA                     u3811:
  1227  00FA  2906               	goto	l9658
  1228  00FB                     u3810:
  1229                           	line	105
  1230                           	
  1231  00FB                     l9654:	
  1232                           ;main.c: 104: {
  1233                           ;main.c: 105: MotorClose();
  1234  00FB  120A  118A  2151   	fcall	_MotorClose
              120A  118A         
  1235                           	line	106
  1236                           	
  1237  0100                     l9656:	
  1238                           ;main.c: 106: Once = 1;
  1239  0100  1283               	bcf	status, 5	;RP0=0, select bank0
  1240  0101  1303               	bcf	status, 6	;RP1=0, select bank0
  1241  0102  01B7               	clrf	(_Once)
  1242  0103  1403               	bsf	status,0
  1243  0104  0DB7               	rlf	(_Once),f
  1244  0105  2906               	goto	l9658
  1245                           	line	107
  1246                           	
  1247  0106                     l3083:	
  1248                           	line	108
  1249                           	
  1250  0106                     l9658:	
  1251                           ;main.c: 107: }
  1252                           ;main.c: 108: Count_Flag=0;
  1253  0106  01F6               	clrf	(_Count_Flag)
  1254                           	line	109
  1255                           	
  1256  0107                     l9660:	
  1257                           ;main.c: 109: if(Open_Cover_times == 2700)
  1258  0107  300A               	movlw	high(0A8Ch)
  1259  0108  062D               	xorwf	(_Open_Cover_times+1),w
  1260  0109  1D03               	skipz
  1261  010A  290D               	goto	u3825
  1262  010B  308C               	movlw	low(0A8Ch)
  1263  010C  062C               	xorwf	(_Open_Cover_times),w
  1264  010D                     u3825:
  1265                           
  1266  010D  1D03               	skipz
  1267  010E  2910               	goto	u3821
  1268  010F  2911               	goto	u3820
  1269  0110                     u3821:
  1270  0110  2823               	goto	l9578
  1271  0111                     u3820:
  1272                           	line	111
  1273                           	
  1274  0111                     l9662:	
  1275                           ;main.c: 110: {
  1276                           ;main.c: 111: The_Close();
  1277  0111  120A  118A  24D9   	fcall	_The_Close
              120A  118A         
  1278  0116  2823               	goto	l9578
  1279                           	line	112
  1280                           	
  1281  0117                     l3084:	
  1282  0117  2823               	goto	l9578
  1283                           	line	113
  1284                           	
  1285  0118                     l3082:	
  1286  0118  2823               	goto	l9578
  1287                           	line	114
  1288                           	
  1289  0119                     l3081:	
  1290                           ;main.c: 112: }
  1291                           ;main.c: 113: }
  1292                           ;main.c: 114: }
  1293  0119  2823               	goto	l9578
  1294                           	line	115
  1295                           	
  1296  011A                     l3076:	
  1297                           	
  1298  011A                     l9664:	
  1299                           ;main.c: 115: else if(Key_Run == 2)
  1300  011A  1283               	bcf	status, 5	;RP0=0, select bank0
  1301  011B  1303               	bcf	status, 6	;RP1=0, select bank0
  1302  011C  0835               	movf	(_Key_Run),w
  1303  011D  3A02               	xorlw	02h
  1304  011E  1D03               	skipz
  1305  011F  2921               	goto	u3831
  1306  0120  2922               	goto	u3830
  1307  0121                     u3831:
  1308  0121  2823               	goto	l9578
  1309  0122                     u3830:
  1310                           	line	117
  1311                           	
  1312  0122                     l9666:	
  1313                           ;main.c: 116: {
  1314                           ;main.c: 117: Forbid_input = 1;
  1315  0122  01B3               	clrf	(_Forbid_input)
  1316  0123  1403               	bsf	status,0
  1317  0124  0DB3               	rlf	(_Forbid_input),f
  1318                           	line	118
  1319                           ;main.c: 118: Open_Cover_Flag = 1;
  1320  0125  01BB               	clrf	(_Open_Cover_Flag)
  1321  0126  1403               	bsf	status,0
  1322  0127  0DBB               	rlf	(_Open_Cover_Flag),f
  1323                           	line	119
  1324                           ;main.c: 119: if(Once == 0)
  1325  0128  08B7               	movf	(_Once),f
  1326  0129  1D03               	skipz
  1327  012A  292C               	goto	u3841
  1328  012B  292D               	goto	u3840
  1329  012C                     u3841:
  1330  012C  2938               	goto	l9672
  1331  012D                     u3840:
  1332                           	line	121
  1333                           	
  1334  012D                     l9668:	
  1335                           ;main.c: 120: {
  1336                           ;main.c: 121: MotorClose();
  1337  012D  120A  118A  2151   	fcall	_MotorClose
              120A  118A         
  1338                           	line	122
  1339                           	
  1340  0132                     l9670:	
  1341                           ;main.c: 122: Once = 1;
  1342  0132  1283               	bcf	status, 5	;RP0=0, select bank0
  1343  0133  1303               	bcf	status, 6	;RP1=0, select bank0
  1344  0134  01B7               	clrf	(_Once)
  1345  0135  1403               	bsf	status,0
  1346  0136  0DB7               	rlf	(_Once),f
  1347  0137  2938               	goto	l9672
  1348                           	line	123
  1349                           	
  1350  0138                     l3087:	
  1351                           	line	124
  1352                           	
  1353  0138                     l9672:	
  1354                           ;main.c: 123: }
  1355                           ;main.c: 124: Count_Flag=0;
  1356  0138  01F6               	clrf	(_Count_Flag)
  1357                           	line	125
  1358                           	
  1359  0139                     l9674:	
  1360                           ;main.c: 125: if(Open_Cover_times == 2700)
  1361  0139  300A               	movlw	high(0A8Ch)
  1362  013A  062D               	xorwf	(_Open_Cover_times+1),w
  1363  013B  1D03               	skipz
  1364  013C  293F               	goto	u3855
  1365  013D  308C               	movlw	low(0A8Ch)
  1366  013E  062C               	xorwf	(_Open_Cover_times),w
  1367  013F                     u3855:
  1368                           
  1369  013F  1D03               	skipz
  1370  0140  2942               	goto	u3851
  1371  0141  2943               	goto	u3850
  1372  0142                     u3851:
  1373  0142  2823               	goto	l9578
  1374  0143                     u3850:
  1375                           	line	127
  1376                           	
  1377  0143                     l9676:	
  1378                           ;main.c: 126: {
  1379                           ;main.c: 127: The_Close();
  1380  0143  120A  118A  24D9   	fcall	_The_Close
              120A  118A         
  1381  0148  2823               	goto	l9578
  1382                           	line	128
  1383                           	
  1384  0149                     l3088:	
  1385  0149  2823               	goto	l9578
  1386                           	line	129
  1387                           	
  1388  014A                     l3086:	
  1389  014A  2823               	goto	l9578
  1390                           	line	130
  1391                           	
  1392  014B                     l3085:	
  1393  014B  2823               	goto	l9578
  1394                           	
  1395  014C                     l3075:	
  1396  014C  2823               	goto	l9578
  1397                           	line	139
  1398                           	
  1399  014D                     l3089:	
  1400                           	line	31
  1401  014D  2823               	goto	l9578
  1402                           	
  1403  014E                     l3090:	
  1404                           	line	141
  1405                           	
  1406  014E                     l3091:	
  1407                           	global	start
  1408  014E  120A  118A  2812   	ljmp	start
  1409                           	opt stack 0
  1410                           GLOBAL	__end_of_main
  1411  0151                     	__end_of_main:
  1412 ;; =============== function _main ends ============
  1413                           
  1414                           	signat	_main,88
  1415                           	global	_MotorClose
  1416                           psect	text708,local,class=CODE,delta=2
  1417                           global __ptext708
  1418  0151                     __ptext708:
  1419                           
  1420 ;; *************** function _MotorClose *****************
  1421 ;; Defined at:
  1422 ;;		line 40 in file "work.c"
  1423 ;; Parameters:    Size  Location     Type
  1424 ;;		None
  1425 ;; Auto vars:     Size  Location     Type
  1426 ;;		None
  1427 ;; Return value:  Size  Location     Type
  1428 ;;		None               void
  1429 ;; Registers used:
  1430 ;;		wreg, status,2, status,0, btemp+1, pclath, cstack
  1431 ;; Tracked objects:
  1432 ;;		On entry : 0/0
  1433 ;;		On exit  : 0/0
  1434 ;;		Unchanged: 0/0
  1435 ;; Data sizes:     COMMON   BANK0   BANK1   BANK3   BANK2
  1436 ;;      Params:         0       0       0       0       0
  1437 ;;      Locals:         0       0       0       0       0
  1438 ;;      Temps:          0       1       0       0       0
  1439 ;;      Totals:         0       1       0       0       0
  1440 ;;Total ram usage:        1 bytes
  1441 ;; Hardware stack levels used:    1
  1442 ;; Hardware stack levels required when called:    4
  1443 ;; This function calls:
  1444 ;;		_write_IIC
  1445 ;;		_delaynms
  1446 ;; This function is called by:
  1447 ;;		_main
  1448 ;;		_Motor_working_time
  1449 ;; This function uses a non-reentrant model
  1450 ;;
  1451                           psect	text708
  1452                           	file	"work.c"
  1453                           	line	40
  1454                           	global	__size_of_MotorClose
  1455  00FF                     	__size_of_MotorClose	equ	__end_of_MotorClose-_MotorClose
  1456                           	
  1457  0151                     _MotorClose:	
  1458                           	opt	stack 3
  1459                           ; Regs used in _MotorClose: [wreg+status,2+status,0+btemp+1+pclath+cstack]
  1460                           	line	41
  1461                           	
  1462  0151                     l9534:	
  1463                           ;work.c: 41: write_IIC(0x08 ,0xfc );
  1464  0151  30FC               	movlw	(0FCh)
  1465  0152  1283               	bcf	status, 5	;RP0=0, select bank0
  1466  0153  1303               	bcf	status, 6	;RP1=0, select bank0
  1467  0154  00C9               	movwf	(??_MotorClose+0)+0
  1468  0155  0849               	movf	(??_MotorClose+0)+0,w
  1469  0156  00C5               	movwf	(?_write_IIC)
  1470  0157  3008               	movlw	(08h)
  1471  0158  120A  118A  2250   	fcall	_write_IIC
              120A  118A         
  1472                           	line	42
  1473                           	
  1474  015D                     l9536:	
  1475                           ;work.c: 42: delaynms(100);
  1476  015D  3064               	movlw	low(064h)
  1477  015E  1283               	bcf	status, 5	;RP0=0, select bank0
  1478  015F  1303               	bcf	status, 6	;RP1=0, select bank0
  1479  0160  00C3               	movwf	(?_delaynms)
  1480  0161  3000               	movlw	high(064h)
  1481  0162  00C4               	movwf	((?_delaynms))+1
  1482  0163  120A  118A  2451   	fcall	_delaynms
              120A  118A         
  1483                           	line	43
  1484                           	
  1485  0168                     l9538:	
  1486                           ;work.c: 43: write_IIC(0x07 ,0x9E );
  1487  0168  309E               	movlw	(09Eh)
  1488  0169  1283               	bcf	status, 5	;RP0=0, select bank0
  1489  016A  1303               	bcf	status, 6	;RP1=0, select bank0
  1490  016B  00C9               	movwf	(??_MotorClose+0)+0
  1491  016C  0849               	movf	(??_MotorClose+0)+0,w
  1492  016D  00C5               	movwf	(?_write_IIC)
  1493  016E  3007               	movlw	(07h)
  1494  016F  120A  118A  2250   	fcall	_write_IIC
              120A  118A         
  1495                           	line	44
  1496                           ;work.c: 44: delaynms(100);
  1497  0174  3064               	movlw	low(064h)
  1498  0175  1283               	bcf	status, 5	;RP0=0, select bank0
  1499  0176  1303               	bcf	status, 6	;RP1=0, select bank0
  1500  0177  00C3               	movwf	(?_delaynms)
  1501  0178  3000               	movlw	high(064h)
  1502  0179  00C4               	movwf	((?_delaynms))+1
  1503  017A  120A  118A  2451   	fcall	_delaynms
              120A  118A         
  1504                           	line	47
  1505                           	
  1506  017F                     l9540:	
  1507                           ;work.c: 47: write_IIC(0x06 ,0x66 );
  1508  017F  3066               	movlw	(066h)
  1509  0180  1283               	bcf	status, 5	;RP0=0, select bank0
  1510  0181  1303               	bcf	status, 6	;RP1=0, select bank0
  1511  0182  00C9               	movwf	(??_MotorClose+0)+0
  1512  0183  0849               	movf	(??_MotorClose+0)+0,w
  1513  0184  00C5               	movwf	(?_write_IIC)
  1514  0185  3006               	movlw	(06h)
  1515  0186  120A  118A  2250   	fcall	_write_IIC
              120A  118A         
  1516                           	line	48
  1517                           	
  1518  018B                     l9542:	
  1519                           ;work.c: 48: delaynms(100);
  1520  018B  3064               	movlw	low(064h)
  1521  018C  1283               	bcf	status, 5	;RP0=0, select bank0
  1522  018D  1303               	bcf	status, 6	;RP1=0, select bank0
  1523  018E  00C3               	movwf	(?_delaynms)
  1524  018F  3000               	movlw	high(064h)
  1525  0190  00C4               	movwf	((?_delaynms))+1
  1526  0191  120A  118A  2451   	fcall	_delaynms
              120A  118A         
  1527                           	line	49
  1528                           ;work.c: 49: write_IIC(0x05,0x70 );
  1529  0196  3070               	movlw	(070h)
  1530  0197  1283               	bcf	status, 5	;RP0=0, select bank0
  1531  0198  1303               	bcf	status, 6	;RP1=0, select bank0
  1532  0199  00C9               	movwf	(??_MotorClose+0)+0
  1533  019A  0849               	movf	(??_MotorClose+0)+0,w
  1534  019B  00C5               	movwf	(?_write_IIC)
  1535  019C  3005               	movlw	(05h)
  1536  019D  120A  118A  2250   	fcall	_write_IIC
              120A  118A         
  1537                           	line	50
  1538                           	
  1539  01A2                     l9544:	
  1540                           ;work.c: 50: delaynms(100);
  1541  01A2  3064               	movlw	low(064h)
  1542  01A3  1283               	bcf	status, 5	;RP0=0, select bank0
  1543  01A4  1303               	bcf	status, 6	;RP1=0, select bank0
  1544  01A5  00C3               	movwf	(?_delaynms)
  1545  01A6  3000               	movlw	high(064h)
  1546  01A7  00C4               	movwf	((?_delaynms))+1
  1547  01A8  120A  118A  2451   	fcall	_delaynms
              120A  118A         
  1548                           	line	53
  1549                           	
  1550  01AD                     l9546:	
  1551                           ;work.c: 53: write_IIC(0x03,0xD6 );
  1552  01AD  30D6               	movlw	(0D6h)
  1553  01AE  1283               	bcf	status, 5	;RP0=0, select bank0
  1554  01AF  1303               	bcf	status, 6	;RP1=0, select bank0
  1555  01B0  00C9               	movwf	(??_MotorClose+0)+0
  1556  01B1  0849               	movf	(??_MotorClose+0)+0,w
  1557  01B2  00C5               	movwf	(?_write_IIC)
  1558  01B3  3003               	movlw	(03h)
  1559  01B4  120A  118A  2250   	fcall	_write_IIC
              120A  118A         
  1560                           	line	54
  1561                           ;work.c: 54: delaynms(100);
  1562  01B9  3064               	movlw	low(064h)
  1563  01BA  1283               	bcf	status, 5	;RP0=0, select bank0
  1564  01BB  1303               	bcf	status, 6	;RP1=0, select bank0
  1565  01BC  00C3               	movwf	(?_delaynms)
  1566  01BD  3000               	movlw	high(064h)
  1567  01BE  00C4               	movwf	((?_delaynms))+1
  1568  01BF  120A  118A  2451   	fcall	_delaynms
              120A  118A         
  1569                           	line	57
  1570                           	
  1571  01C4                     l9548:	
  1572                           ;work.c: 57: write_IIC(0x02,0x6B );
  1573  01C4  306B               	movlw	(06Bh)
  1574  01C5  1283               	bcf	status, 5	;RP0=0, select bank0
  1575  01C6  1303               	bcf	status, 6	;RP1=0, select bank0
  1576  01C7  00C9               	movwf	(??_MotorClose+0)+0
  1577  01C8  0849               	movf	(??_MotorClose+0)+0,w
  1578  01C9  00C5               	movwf	(?_write_IIC)
  1579  01CA  3002               	movlw	(02h)
  1580  01CB  120A  118A  2250   	fcall	_write_IIC
              120A  118A         
  1581                           	line	58
  1582                           	
  1583  01D0                     l9550:	
  1584                           ;work.c: 58: delaynms(100);
  1585  01D0  3064               	movlw	low(064h)
  1586  01D1  1283               	bcf	status, 5	;RP0=0, select bank0
  1587  01D2  1303               	bcf	status, 6	;RP1=0, select bank0
  1588  01D3  00C3               	movwf	(?_delaynms)
  1589  01D4  3000               	movlw	high(064h)
  1590  01D5  00C4               	movwf	((?_delaynms))+1
  1591  01D6  120A  118A  2451   	fcall	_delaynms
              120A  118A         
  1592                           	line	59
  1593                           ;work.c: 59: write_IIC(0x01,0xA3 );
  1594  01DB  30A3               	movlw	(0A3h)
  1595  01DC  1283               	bcf	status, 5	;RP0=0, select bank0
  1596  01DD  1303               	bcf	status, 6	;RP1=0, select bank0
  1597  01DE  00C9               	movwf	(??_MotorClose+0)+0
  1598  01DF  0849               	movf	(??_MotorClose+0)+0,w
  1599  01E0  00C5               	movwf	(?_write_IIC)
  1600  01E1  3001               	movlw	(01h)
  1601  01E2  120A  118A  2250   	fcall	_write_IIC
              120A  118A         
  1602                           	line	60
  1603                           	
  1604  01E7                     l9552:	
  1605                           ;work.c: 60: delaynms(100);
  1606  01E7  3064               	movlw	low(064h)
  1607  01E8  1283               	bcf	status, 5	;RP0=0, select bank0
  1608  01E9  1303               	bcf	status, 6	;RP1=0, select bank0
  1609  01EA  00C3               	movwf	(?_delaynms)
  1610  01EB  3000               	movlw	high(064h)
  1611  01EC  00C4               	movwf	((?_delaynms))+1
  1612  01ED  120A  118A  2451   	fcall	_delaynms
              120A  118A         
  1613                           	line	61
  1614                           	
  1615  01F2                     l9554:	
  1616                           ;work.c: 61: write_IIC(0x00,0x64 );
  1617  01F2  3064               	movlw	(064h)
  1618  01F3  1283               	bcf	status, 5	;RP0=0, select bank0
  1619  01F4  1303               	bcf	status, 6	;RP1=0, select bank0
  1620  01F5  00C9               	movwf	(??_MotorClose+0)+0
  1621  01F6  0849               	movf	(??_MotorClose+0)+0,w
  1622  01F7  00C5               	movwf	(?_write_IIC)
  1623  01F8  3000               	movlw	(0)
  1624  01F9  120A  118A  2250   	fcall	_write_IIC
              120A  118A         
  1625                           	line	62
  1626                           ;work.c: 62: delaynms(100);
  1627  01FE  3064               	movlw	low(064h)
  1628  01FF  1283               	bcf	status, 5	;RP0=0, select bank0
  1629  0200  1303               	bcf	status, 6	;RP1=0, select bank0
  1630  0201  00C3               	movwf	(?_delaynms)
  1631  0202  3000               	movlw	high(064h)
  1632  0203  00C4               	movwf	((?_delaynms))+1
  1633  0204  120A  118A  2451   	fcall	_delaynms
              120A  118A         
  1634                           	line	63
  1635                           	
  1636  0209                     l9556:	
  1637                           ;work.c: 63: write_IIC(0x00,0x32 );
  1638  0209  3032               	movlw	(032h)
  1639  020A  1283               	bcf	status, 5	;RP0=0, select bank0
  1640  020B  1303               	bcf	status, 6	;RP1=0, select bank0
  1641  020C  00C9               	movwf	(??_MotorClose+0)+0
  1642  020D  0849               	movf	(??_MotorClose+0)+0,w
  1643  020E  00C5               	movwf	(?_write_IIC)
  1644  020F  3000               	movlw	(0)
  1645  0210  120A  118A  2250   	fcall	_write_IIC
              120A  118A         
  1646                           	line	64
  1647                           	
  1648  0215                     l9558:	
  1649                           ;work.c: 64: delaynms(100);
  1650  0215  3064               	movlw	low(064h)
  1651  0216  1283               	bcf	status, 5	;RP0=0, select bank0
  1652  0217  1303               	bcf	status, 6	;RP1=0, select bank0
  1653  0218  00C3               	movwf	(?_delaynms)
  1654  0219  3000               	movlw	high(064h)
  1655  021A  00C4               	movwf	((?_delaynms))+1
  1656  021B  120A  118A  2451   	fcall	_delaynms
              120A  118A         
  1657                           	line	65
  1658                           ;work.c: 65: write_IIC(0x00,0x14 );
  1659  0220  3014               	movlw	(014h)
  1660  0221  1283               	bcf	status, 5	;RP0=0, select bank0
  1661  0222  1303               	bcf	status, 6	;RP1=0, select bank0
  1662  0223  00C9               	movwf	(??_MotorClose+0)+0
  1663  0224  0849               	movf	(??_MotorClose+0)+0,w
  1664  0225  00C5               	movwf	(?_write_IIC)
  1665  0226  3000               	movlw	(0)
  1666  0227  120A  118A  2250   	fcall	_write_IIC
              120A  118A         
  1667                           	line	66
  1668                           	
  1669  022C                     l9560:	
  1670                           ;work.c: 66: delaynms(100);
  1671  022C  3064               	movlw	low(064h)
  1672  022D  1283               	bcf	status, 5	;RP0=0, select bank0
  1673  022E  1303               	bcf	status, 6	;RP1=0, select bank0
  1674  022F  00C3               	movwf	(?_delaynms)
  1675  0230  3000               	movlw	high(064h)
  1676  0231  00C4               	movwf	((?_delaynms))+1
  1677  0232  120A  118A  2451   	fcall	_delaynms
              120A  118A         
  1678                           	line	67
  1679                           	
  1680  0237                     l9562:	
  1681                           ;work.c: 67: write_IIC(0x00,0x00 );
  1682  0237  1283               	bcf	status, 5	;RP0=0, select bank0
  1683  0238  1303               	bcf	status, 6	;RP1=0, select bank0
  1684  0239  01C5               	clrf	(?_write_IIC)
  1685  023A  3000               	movlw	(0)
  1686  023B  120A  118A  2250   	fcall	_write_IIC
              120A  118A         
  1687                           	line	68
  1688                           ;work.c: 68: delaynms(100);
  1689  0240  3064               	movlw	low(064h)
  1690  0241  1283               	bcf	status, 5	;RP0=0, select bank0
  1691  0242  1303               	bcf	status, 6	;RP1=0, select bank0
  1692  0243  00C3               	movwf	(?_delaynms)
  1693  0244  3000               	movlw	high(064h)
  1694  0245  00C4               	movwf	((?_delaynms))+1
  1695  0246  120A  118A  2451   	fcall	_delaynms
              120A  118A         
  1696                           	line	69
  1697                           	
  1698  024B                     l9564:	
  1699                           ;work.c: 69: TMR1ON=1;
  1700  024B  1283               	bcf	status, 5	;RP0=0, select bank0
  1701  024C  1303               	bcf	status, 6	;RP1=0, select bank0
  1702  024D  1410               	bsf	(128/8),(128)&7
  1703                           	line	70
  1704                           	
  1705  024E                     l9566:	
  1706                           ;work.c: 70: GIE=1;
  1707  024E  178B               	bsf	(95/8),(95)&7
  1708                           	line	71
  1709                           	
  1710  024F                     l4086:	
  1711  024F  0008               	return
  1712                           	opt stack 0
  1713                           GLOBAL	__end_of_MotorClose
  1714  0250                     	__end_of_MotorClose:
  1715 ;; =============== function _MotorClose ends ============
  1716                           
  1717                           	signat	_MotorClose,88
  1718                           	global	_Motor_adjusting_speed
  1719                           psect	text709,local,class=CODE,delta=2
  1720                           global __ptext709
  1721  03F5                     __ptext709:
  1722                           
  1723 ;; *************** function _Motor_adjusting_speed *****************
  1724 ;; Defined at:
  1725 ;;		line 73 in file "work.c"
  1726 ;; Parameters:    Size  Location     Type
  1727 ;;		None
  1728 ;; Auto vars:     Size  Location     Type
  1729 ;;		None
  1730 ;; Return value:  Size  Location     Type
  1731 ;;		None               void
  1732 ;; Registers used:
  1733 ;;		wreg, status,2, status,0, btemp+1, pclath, cstack
  1734 ;; Tracked objects:
  1735 ;;		On entry : 0/0
  1736 ;;		On exit  : 0/0
  1737 ;;		Unchanged: 0/0
  1738 ;; Data sizes:     COMMON   BANK0   BANK1   BANK3   BANK2
  1739 ;;      Params:         0       0       0       0       0
  1740 ;;      Locals:         0       0       0       0       0
  1741 ;;      Temps:          0       1       0       0       0
  1742 ;;      Totals:         0       1       0       0       0
  1743 ;;Total ram usage:        1 bytes
  1744 ;; Hardware stack levels used:    1
  1745 ;; Hardware stack levels required when called:    4
  1746 ;; This function calls:
  1747 ;;		_write_IIC
  1748 ;; This function is called by:
  1749 ;;		_main
  1750 ;; This function uses a non-reentrant model
  1751 ;;
  1752                           psect	text709
  1753                           	file	"work.c"
  1754                           	line	73
  1755                           	global	__size_of_Motor_adjusting_speed
  1756  005C                     	__size_of_Motor_adjusting_speed	equ	__end_of_Motor_adjusting_speed-_Motor_adjusting_spe
                                 ed
  1757                           	
  1758  03F5                     _Motor_adjusting_speed:	
  1759                           	opt	stack 3
  1760                           ; Regs used in _Motor_adjusting_speed: [wreg+status,2+status,0+btemp+1+pclath+cstack]
  1761                           	line	74
  1762                           	
  1763  03F5                     l9504:	
  1764                           ;work.c: 74: while(Flag_FG_Period == 0);
  1765  03F5  2BF7               	goto	l9506
  1766                           	
  1767  03F6                     l4090:	
  1768  03F6  2BF7               	goto	l9506
  1769                           	
  1770  03F7                     l4089:	
  1771                           	
  1772  03F7                     l9506:	
  1773  03F7  1283               	bcf	status, 5	;RP0=0, select bank0
  1774  03F8  1303               	bcf	status, 6	;RP1=0, select bank0
  1775  03F9  084D               	movf	(_Flag_FG_Period),w
  1776  03FA  1D03               	skipz
  1777  03FB  2BFD               	goto	u3640
  1778  03FC  2BF7               	goto	l9506
  1779  03FD                     u3640:
  1780                           	
  1781  03FD                     l4091:	
  1782                           	line	75
  1783                           ;work.c: 75: Flag_FG_Period=0;
  1784  03FD  01CD               	clrf	(_Flag_FG_Period)
  1785                           	line	76
  1786                           ;work.c: 76: GIE=0;
  1787  03FE  138B               	bcf	(95/8),(95)&7
  1788                           	line	77
  1789                           	
  1790  03FF                     l9508:	
  1791                           ;work.c: 77: if(Flag_FG_Period_time>25)
  1792  03FF  3000               	movlw	high(01Ah)
  1793  0400  0227               	subwf	(_Flag_FG_Period_time+1),w
  1794  0401  301A               	movlw	low(01Ah)
  1795  0402  1903               	skipnz
  1796  0403  0226               	subwf	(_Flag_FG_Period_time),w
  1797  0404  1C03               	skipc
  1798  0405  2C07               	goto	u3651
  1799  0406  2C08               	goto	u3650
  1800  0407                     u3651:
  1801  0407  2C27               	goto	l9520
  1802  0408                     u3650:
  1803                           	line	79
  1804                           	
  1805  0408                     l9510:	
  1806                           ;work.c: 78: {
  1807                           ;work.c: 79: VOLT=VOLT+1;
  1808  0408  084B               	movf	(_VOLT),w
  1809  0409  3E01               	addlw	low(01h)
  1810  040A  00CB               	movwf	(_VOLT)
  1811  040B  084C               	movf	(_VOLT+1),w
  1812  040C  1803               	skipnc
  1813  040D  3E01               	addlw	1
  1814  040E  3E00               	addlw	high(01h)
  1815  040F  00CC               	movwf	1+(_VOLT)
  1816                           	line	80
  1817                           	
  1818  0410                     l9512:	
  1819                           ;work.c: 80: VOLT_H=(VOLT&0xFF00)>>8;
  1820  0410  084C               	movf	(_VOLT+1),w
  1821  0411  00C9               	movwf	(??_Motor_adjusting_speed+0)+0
  1822  0412  0849               	movf	(??_Motor_adjusting_speed+0)+0,w
  1823  0413  00BF               	movwf	(_VOLT_H)
  1824                           	line	81
  1825                           	
  1826  0414                     l9514:	
  1827                           ;work.c: 81: VOLT_L=VOLT&0x00FF;
  1828  0414  084B               	movf	(_VOLT),w
  1829  0415  00C9               	movwf	(??_Motor_adjusting_speed+0)+0
  1830  0416  0849               	movf	(??_Motor_adjusting_speed+0)+0,w
  1831  0417  00C0               	movwf	(_VOLT_L)
  1832                           	line	82
  1833                           	
  1834  0418                     l9516:	
  1835                           ;work.c: 82: write_IIC(VOLT_H,VOLT_L );
  1836  0418  0840               	movf	(_VOLT_L),w
  1837  0419  00C9               	movwf	(??_Motor_adjusting_speed+0)+0
  1838  041A  0849               	movf	(??_Motor_adjusting_speed+0)+0,w
  1839  041B  00C5               	movwf	(?_write_IIC)
  1840  041C  083F               	movf	(_VOLT_H),w
  1841  041D  120A  118A  2250   	fcall	_write_IIC
              120A  118A         
  1842                           	line	83
  1843                           	
  1844  0422                     l9518:	
  1845                           ;work.c: 83: FG_Period_time=0;
  1846  0422  1283               	bcf	status, 5	;RP0=0, select bank0
  1847  0423  1303               	bcf	status, 6	;RP1=0, select bank0
  1848  0424  01A4               	clrf	(_FG_Period_time)
  1849  0425  01A5               	clrf	(_FG_Period_time+1)
  1850  0426  2C27               	goto	l9520
  1851                           	line	84
  1852                           	
  1853  0427                     l4092:	
  1854                           	line	85
  1855                           	
  1856  0427                     l9520:	
  1857                           ;work.c: 84: }
  1858                           ;work.c: 85: if(Flag_FG_Period_time<10)
  1859  0427  3000               	movlw	high(0Ah)
  1860  0428  0227               	subwf	(_Flag_FG_Period_time+1),w
  1861  0429  300A               	movlw	low(0Ah)
  1862  042A  1903               	skipnz
  1863  042B  0226               	subwf	(_Flag_FG_Period_time),w
  1864  042C  1803               	skipnc
  1865  042D  2C2F               	goto	u3661
  1866  042E  2C30               	goto	u3660
  1867  042F                     u3661:
  1868  042F  2C4F               	goto	l9532
  1869  0430                     u3660:
  1870                           	line	87
  1871                           	
  1872  0430                     l9522:	
  1873                           ;work.c: 86: {
  1874                           ;work.c: 87: VOLT=VOLT-1;
  1875  0430  084B               	movf	(_VOLT),w
  1876  0431  3EFF               	addlw	low(0FFFFh)
  1877  0432  00CB               	movwf	(_VOLT)
  1878  0433  084C               	movf	(_VOLT+1),w
  1879  0434  1803               	skipnc
  1880  0435  3E01               	addlw	1
  1881  0436  3EFF               	addlw	high(0FFFFh)
  1882  0437  00CC               	movwf	1+(_VOLT)
  1883                           	line	88
  1884                           	
  1885  0438                     l9524:	
  1886                           ;work.c: 88: VOLT_H=(VOLT&0xFF00)>>8;
  1887  0438  084C               	movf	(_VOLT+1),w
  1888  0439  00C9               	movwf	(??_Motor_adjusting_speed+0)+0
  1889  043A  0849               	movf	(??_Motor_adjusting_speed+0)+0,w
  1890  043B  00BF               	movwf	(_VOLT_H)
  1891                           	line	89
  1892                           	
  1893  043C                     l9526:	
  1894                           ;work.c: 89: VOLT_L=VOLT&0x00FF;
  1895  043C  084B               	movf	(_VOLT),w
  1896  043D  00C9               	movwf	(??_Motor_adjusting_speed+0)+0
  1897  043E  0849               	movf	(??_Motor_adjusting_speed+0)+0,w
  1898  043F  00C0               	movwf	(_VOLT_L)
  1899                           	line	90
  1900                           	
  1901  0440                     l9528:	
  1902                           ;work.c: 90: write_IIC(VOLT_H,VOLT_L );
  1903  0440  0840               	movf	(_VOLT_L),w
  1904  0441  00C9               	movwf	(??_Motor_adjusting_speed+0)+0
  1905  0442  0849               	movf	(??_Motor_adjusting_speed+0)+0,w
  1906  0443  00C5               	movwf	(?_write_IIC)
  1907  0444  083F               	movf	(_VOLT_H),w
  1908  0445  120A  118A  2250   	fcall	_write_IIC
              120A  118A         
  1909                           	line	91
  1910                           	
  1911  044A                     l9530:	
  1912                           ;work.c: 91: FG_Period_time=0;
  1913  044A  1283               	bcf	status, 5	;RP0=0, select bank0
  1914  044B  1303               	bcf	status, 6	;RP1=0, select bank0
  1915  044C  01A4               	clrf	(_FG_Period_time)
  1916  044D  01A5               	clrf	(_FG_Period_time+1)
  1917  044E  2C4F               	goto	l9532
  1918                           	line	92
  1919                           	
  1920  044F                     l4093:	
  1921                           	line	93
  1922                           	
  1923  044F                     l9532:	
  1924                           ;work.c: 92: }
  1925                           ;work.c: 93: GIE=1;
  1926  044F  178B               	bsf	(95/8),(95)&7
  1927                           	line	94
  1928                           	
  1929  0450                     l4094:	
  1930  0450  0008               	return
  1931                           	opt stack 0
  1932                           GLOBAL	__end_of_Motor_adjusting_speed
  1933  0451                     	__end_of_Motor_adjusting_speed:
  1934 ;; =============== function _Motor_adjusting_speed ends ============
  1935                           
  1936                           	signat	_Motor_adjusting_speed,88
  1937                           	global	_The_Close
  1938                           psect	text710,local,class=CODE,delta=2
  1939                           global __ptext710
  1940  04D9                     __ptext710:
  1941                           
  1942 ;; *************** function _The_Close *****************
  1943 ;; Defined at:
  1944 ;;		line 143 in file "main.c"
  1945 ;; Parameters:    Size  Location     Type
  1946 ;;		None
  1947 ;; Auto vars:     Size  Location     Type
  1948 ;;		None
  1949 ;; Return value:  Size  Location     Type
  1950 ;;		None               void
  1951 ;; Registers used:
  1952 ;;		wreg, status,2, status,0, pclath, cstack
  1953 ;; Tracked objects:
  1954 ;;		On entry : 0/0
  1955 ;;		On exit  : 0/0
  1956 ;;		Unchanged: 0/0
  1957 ;; Data sizes:     COMMON   BANK0   BANK1   BANK3   BANK2
  1958 ;;      Params:         0       0       0       0       0
  1959 ;;      Locals:         0       0       0       0       0
  1960 ;;      Temps:          0       0       0       0       0
  1961 ;;      Totals:         0       0       0       0       0
  1962 ;;Total ram usage:        0 bytes
  1963 ;; Hardware stack levels used:    1
  1964 ;; Hardware stack levels required when called:    3
  1965 ;; This function calls:
  1966 ;;		_delaynms
  1967 ;; This function is called by:
  1968 ;;		_main
  1969 ;; This function uses a non-reentrant model
  1970 ;;
  1971                           psect	text710
  1972                           	file	"main.c"
  1973                           	line	143
  1974                           	global	__size_of_The_Close
  1975  0025                     	__size_of_The_Close	equ	__end_of_The_Close-_The_Close
  1976                           	
  1977  04D9                     _The_Close:	
  1978                           	opt	stack 4
  1979                           ; Regs used in _The_Close: [wreg+status,2+status,0+pclath+cstack]
  1980                           	line	144
  1981                           	
  1982  04D9                     l9480:	
  1983                           ;main.c: 144: kai = 0;
  1984  04D9  1283               	bcf	status, 5	;RP0=0, select bank0
  1985  04DA  1303               	bcf	status, 6	;RP1=0, select bank0
  1986  04DB  01C2               	clrf	(_kai)
  1987                           	line	145
  1988                           ;main.c: 145: Stop_Flag = 0;
  1989  04DC  01BE               	clrf	(_Stop_Flag)
  1990                           	line	146
  1991                           ;main.c: 146: Start_Flag = 0;
  1992  04DD  01BC               	clrf	(_Start_Flag)
  1993                           	line	147
  1994                           ;main.c: 147: Initial_Flag = 0;
  1995  04DE  01B4               	clrf	(_Initial_Flag)
  1996                           	line	148
  1997                           ;main.c: 148: Work_Flag = 0;
  1998  04DF  01FA               	clrf	(_Work_Flag)
  1999                           	line	149
  2000                           	
  2001  04E0                     l9482:	
  2002                           ;main.c: 149: VOLT=1150;
  2003  04E0  307E               	movlw	low(047Eh)
  2004  04E1  00CB               	movwf	(_VOLT)
  2005  04E2  3004               	movlw	high(047Eh)
  2006  04E3  00CC               	movwf	((_VOLT))+1
  2007                           	line	150
  2008                           	
  2009  04E4                     l9484:	
  2010                           ;main.c: 150: Open_Cover_Flag = 0;
  2011  04E4  01BB               	clrf	(_Open_Cover_Flag)
  2012                           	line	151
  2013                           	
  2014  04E5                     l9486:	
  2015                           ;main.c: 151: Open_Cover_times = 0;
  2016  04E5  01AC               	clrf	(_Open_Cover_times)
  2017  04E6  01AD               	clrf	(_Open_Cover_times+1)
  2018                           	line	152
  2019                           	
  2020  04E7                     l9488:	
  2021                           ;main.c: 152: PORTAbits.RA2 = 1;asm ("NOP");
  2022  04E7  1505               	bsf	(5),2	;volatile
  2023                           	
  2024  04E8                     l9490:	
  2025                           # 152 "main.c"
  2026  04E8  0000               NOP ;#
  2027                           psect	text710
  2028                           	line	153
  2029                           	
  2030  04E9                     l9492:	
  2031                           ;main.c: 153: delaynms(10);
  2032  04E9  300A               	movlw	low(0Ah)
  2033  04EA  1283               	bcf	status, 5	;RP0=0, select bank0
  2034  04EB  1303               	bcf	status, 6	;RP1=0, select bank0
  2035  04EC  00C3               	movwf	(?_delaynms)
  2036  04ED  3000               	movlw	high(0Ah)
  2037  04EE  00C4               	movwf	((?_delaynms))+1
  2038  04EF  120A  118A  2451   	fcall	_delaynms
              120A  118A         
  2039                           	line	154
  2040                           	
  2041  04F4                     l9494:	
  2042                           ;main.c: 154: PORTAbits.RA2 = 0;asm ("NOP");
  2043  04F4  1283               	bcf	status, 5	;RP0=0, select bank0
  2044  04F5  1303               	bcf	status, 6	;RP1=0, select bank0
  2045  04F6  1105               	bcf	(5),2	;volatile
  2046                           	
  2047  04F7                     l9496:	
  2048                           # 154 "main.c"
  2049  04F7  0000               NOP ;#
  2050                           psect	text710
  2051                           	line	155
  2052                           	
  2053  04F8                     l9498:	
  2054                           ;main.c: 155: Key_Run = 0;
  2055  04F8  1283               	bcf	status, 5	;RP0=0, select bank0
  2056  04F9  1303               	bcf	status, 6	;RP1=0, select bank0
  2057  04FA  01B5               	clrf	(_Key_Run)
  2058                           	line	156
  2059                           	
  2060  04FB                     l9500:	
  2061                           ;main.c: 156: Once = 0;
  2062  04FB  01B7               	clrf	(_Once)
  2063                           	line	157
  2064                           	
  2065  04FC                     l9502:	
  2066                           ;main.c: 157: Forbid_input = 0;
  2067  04FC  01B3               	clrf	(_Forbid_input)
  2068                           	line	158
  2069                           	
  2070  04FD                     l3094:	
  2071  04FD  0008               	return
  2072                           	opt stack 0
  2073                           GLOBAL	__end_of_The_Close
  2074  04FE                     	__end_of_The_Close:
  2075 ;; =============== function _The_Close ends ============
  2076                           
  2077                           	signat	_The_Close,88
  2078                           	global	_write_IIC
  2079                           psect	text711,local,class=CODE,delta=2
  2080                           global __ptext711
  2081  0250                     __ptext711:
  2082                           
  2083 ;; *************** function _write_IIC *****************
  2084 ;; Defined at:
  2085 ;;		line 5 in file "IIC.c"
  2086 ;; Parameters:    Size  Location     Type
  2087 ;;  wdate_H         1    wreg     unsigned char 
  2088 ;;  wdate_L         1    2[BANK0 ] unsigned char 
  2089 ;; Auto vars:     Size  Location     Type
  2090 ;;  wdate_H         1    3[BANK0 ] unsigned char 
  2091 ;;  t               2    4[BANK0 ] int 
  2092 ;; Return value:  Size  Location     Type
  2093 ;;		None               void
  2094 ;; Registers used:
  2095 ;;		wreg, status,2, status,0, btemp+1, pclath, cstack
  2096 ;; Tracked objects:
  2097 ;;		On entry : 0/0
  2098 ;;		On exit  : 0/0
  2099 ;;		Unchanged: 0/0
  2100 ;; Data sizes:     COMMON   BANK0   BANK1   BANK3   BANK2
  2101 ;;      Params:         0       1       0       0       0
  2102 ;;      Locals:         0       3       0       0       0
  2103 ;;      Temps:          0       0       0       0       0
  2104 ;;      Totals:         0       4       0       0       0
  2105 ;;Total ram usage:        4 bytes
  2106 ;; Hardware stack levels used:    1
  2107 ;; Hardware stack levels required when called:    3
  2108 ;; This function calls:
  2109 ;;		_Delay
  2110 ;; This function is called by:
  2111 ;;		_main
  2112 ;;		_MotorClose
  2113 ;;		_Motor_adjusting_speed
  2114 ;;		_MotorStart
  2115 ;; This function uses a non-reentrant model
  2116 ;;
  2117                           psect	text711
  2118                           	file	"IIC.c"
  2119                           	line	5
  2120                           	global	__size_of_write_IIC
  2121  00E0                     	__size_of_write_IIC	equ	__end_of_write_IIC-_write_IIC
  2122                           	
  2123  0250                     _write_IIC:	
  2124                           	opt	stack 3
  2125                           ; Regs used in _write_IIC: [wreg+status,2+status,0+btemp+1+pclath+cstack]
  2126                           ;write_IIC@wdate_H stored from wreg
  2127  0250  1283               	bcf	status, 5	;RP0=0, select bank0
  2128  0251  1303               	bcf	status, 6	;RP1=0, select bank0
  2129  0252  00C6               	movwf	(write_IIC@wdate_H)
  2130                           	line	6
  2131                           	
  2132  0253                     l9410:	
  2133                           ;IIC.c: 6: int t=0;
  2134  0253  01C7               	clrf	(write_IIC@t)
  2135  0254  01C8               	clrf	(write_IIC@t+1)
  2136                           	line	7
  2137                           	
  2138  0255                     l9412:	
  2139                           ;IIC.c: 7: SSPIF=0;
  2140  0255  118C               	bcf	(99/8),(99)&7
  2141                           	line	8
  2142                           	
  2143  0256                     l9414:	
  2144                           ;IIC.c: 8: SEN=1;
  2145  0256  1683               	bsf	status, 5	;RP0=1, select bank1
  2146  0257  1303               	bcf	status, 6	;RP1=0, select bank1
  2147  0258  1411               	bsf	(1160/8)^080h,(1160)&7
  2148                           	line	9
  2149                           ;IIC.c: 9: while(SSPIF==0)
  2150  0259  2A70               	goto	l5073
  2151                           	
  2152  025A                     l5074:	
  2153                           	line	11
  2154                           	
  2155  025A                     l9416:	
  2156                           ;IIC.c: 10: {
  2157                           ;IIC.c: 11: t++;
  2158  025A  3001               	movlw	low(01h)
  2159  025B  1283               	bcf	status, 5	;RP0=0, select bank0
  2160  025C  07C7               	addwf	(write_IIC@t),f
  2161  025D  1803               	skipnc
  2162  025E  0AC8               	incf	(write_IIC@t+1),f
  2163  025F  3000               	movlw	high(01h)
  2164  0260  07C8               	addwf	(write_IIC@t+1),f
  2165                           	line	12
  2166                           	
  2167  0261                     l9418:	
  2168                           ;IIC.c: 12: if(t > 1000) break;
  2169  0261  0848               	movf	(write_IIC@t+1),w
  2170  0262  3A80               	xorlw	80h
  2171  0263  00FF               	movwf	btemp+1
  2172  0264  3083               	movlw	(high(03E9h))^80h
  2173  0265  027F               	subwf	btemp+1,w
  2174  0266  1D03               	skipz
  2175  0267  2A6A               	goto	u3545
  2176  0268  30E9               	movlw	low(03E9h)
  2177  0269  0247               	subwf	(write_IIC@t),w
  2178  026A                     u3545:
  2179                           
  2180  026A  1C03               	skipc
  2181  026B  2A6D               	goto	u3541
  2182  026C  2A6E               	goto	u3540
  2183  026D                     u3541:
  2184  026D  2A70               	goto	l5073
  2185  026E                     u3540:
  2186  026E  2A77               	goto	l9422
  2187                           	
  2188  026F                     l9420:	
  2189  026F  2A77               	goto	l9422
  2190                           	
  2191  0270                     l5075:	
  2192                           	line	13
  2193                           	
  2194  0270                     l5073:	
  2195                           	line	9
  2196  0270  1283               	bcf	status, 5	;RP0=0, select bank0
  2197  0271  1303               	bcf	status, 6	;RP1=0, select bank0
  2198  0272  1D8C               	btfss	(99/8),(99)&7
  2199  0273  2A75               	goto	u3551
  2200  0274  2A76               	goto	u3550
  2201  0275                     u3551:
  2202  0275  2A5A               	goto	l9416
  2203  0276                     u3550:
  2204  0276  2A77               	goto	l9422
  2205                           	
  2206  0277                     l5076:	
  2207                           	line	14
  2208                           	
  2209  0277                     l9422:	
  2210                           ;IIC.c: 13: }
  2211                           ;IIC.c: 14: t=0;
  2212  0277  1283               	bcf	status, 5	;RP0=0, select bank0
  2213  0278  1303               	bcf	status, 6	;RP1=0, select bank0
  2214  0279  01C7               	clrf	(write_IIC@t)
  2215  027A  01C8               	clrf	(write_IIC@t+1)
  2216                           	line	15
  2217                           	
  2218  027B                     l9424:	
  2219                           ;IIC.c: 15: SSPIF=0;
  2220  027B  118C               	bcf	(99/8),(99)&7
  2221                           	line	17
  2222                           	
  2223  027C                     l9426:	
  2224                           ;IIC.c: 17: SSPBUF=0X98;
  2225  027C  3098               	movlw	(098h)
  2226  027D  0093               	movwf	(19)	;volatile
  2227                           	line	18
  2228                           	
  2229  027E                     l9428:	
  2230                           ;IIC.c: 18: Delay(1);
  2231  027E  3001               	movlw	low(01h)
  2232  027F  00C3               	movwf	(?_Delay)
  2233  0280  3000               	movlw	high(01h)
  2234  0281  00C4               	movwf	((?_Delay))+1
  2235  0282  120A  118A  2574   	fcall	_Delay
              120A  118A         
  2236                           	line	19
  2237                           ;IIC.c: 19: while(SSPIF==0)
  2238  0287  2A9F               	goto	l5077
  2239                           	
  2240  0288                     l5078:	
  2241                           	line	21
  2242                           	
  2243  0288                     l9430:	
  2244                           ;IIC.c: 20: {
  2245                           ;IIC.c: 21: t++;
  2246  0288  3001               	movlw	low(01h)
  2247  0289  1283               	bcf	status, 5	;RP0=0, select bank0
  2248  028A  1303               	bcf	status, 6	;RP1=0, select bank0
  2249  028B  07C7               	addwf	(write_IIC@t),f
  2250  028C  1803               	skipnc
  2251  028D  0AC8               	incf	(write_IIC@t+1),f
  2252  028E  3000               	movlw	high(01h)
  2253  028F  07C8               	addwf	(write_IIC@t+1),f
  2254                           	line	22
  2255                           	
  2256  0290                     l9432:	
  2257                           ;IIC.c: 22: if(t > 1000) break;
  2258  0290  0848               	movf	(write_IIC@t+1),w
  2259  0291  3A80               	xorlw	80h
  2260  0292  00FF               	movwf	btemp+1
  2261  0293  3083               	movlw	(high(03E9h))^80h
  2262  0294  027F               	subwf	btemp+1,w
  2263  0295  1D03               	skipz
  2264  0296  2A99               	goto	u3565
  2265  0297  30E9               	movlw	low(03E9h)
  2266  0298  0247               	subwf	(write_IIC@t),w
  2267  0299                     u3565:
  2268                           
  2269  0299  1C03               	skipc
  2270  029A  2A9C               	goto	u3561
  2271  029B  2A9D               	goto	u3560
  2272  029C                     u3561:
  2273  029C  2A9F               	goto	l5077
  2274  029D                     u3560:
  2275  029D  2AA6               	goto	l9436
  2276                           	
  2277  029E                     l9434:	
  2278  029E  2AA6               	goto	l9436
  2279                           	
  2280  029F                     l5079:	
  2281                           	line	23
  2282                           	
  2283  029F                     l5077:	
  2284                           	line	19
  2285  029F  1283               	bcf	status, 5	;RP0=0, select bank0
  2286  02A0  1303               	bcf	status, 6	;RP1=0, select bank0
  2287  02A1  1D8C               	btfss	(99/8),(99)&7
  2288  02A2  2AA4               	goto	u3571
  2289  02A3  2AA5               	goto	u3570
  2290  02A4                     u3571:
  2291  02A4  2A88               	goto	l9430
  2292  02A5                     u3570:
  2293  02A5  2AA6               	goto	l9436
  2294                           	
  2295  02A6                     l5080:	
  2296                           	line	24
  2297                           	
  2298  02A6                     l9436:	
  2299                           ;IIC.c: 23: }
  2300                           ;IIC.c: 24: t=0;
  2301  02A6  1283               	bcf	status, 5	;RP0=0, select bank0
  2302  02A7  1303               	bcf	status, 6	;RP1=0, select bank0
  2303  02A8  01C7               	clrf	(write_IIC@t)
  2304  02A9  01C8               	clrf	(write_IIC@t+1)
  2305                           	line	25
  2306                           	
  2307  02AA                     l9438:	
  2308                           ;IIC.c: 25: SSPIF=0;
  2309  02AA  118C               	bcf	(99/8),(99)&7
  2310                           	line	27
  2311                           	
  2312  02AB                     l9440:	
  2313                           ;IIC.c: 27: SSPBUF=wdate_H;
  2314  02AB  0846               	movf	(write_IIC@wdate_H),w
  2315  02AC  0093               	movwf	(19)	;volatile
  2316                           	line	28
  2317                           	
  2318  02AD                     l9442:	
  2319                           ;IIC.c: 28: Delay(1);
  2320  02AD  3001               	movlw	low(01h)
  2321  02AE  00C3               	movwf	(?_Delay)
  2322  02AF  3000               	movlw	high(01h)
  2323  02B0  00C4               	movwf	((?_Delay))+1
  2324  02B1  120A  118A  2574   	fcall	_Delay
              120A  118A         
  2325                           	line	29
  2326                           ;IIC.c: 29: while(SSPIF==0)
  2327  02B6  2ACE               	goto	l5081
  2328                           	
  2329  02B7                     l5082:	
  2330                           	line	31
  2331                           	
  2332  02B7                     l9444:	
  2333                           ;IIC.c: 30: {
  2334                           ;IIC.c: 31: t++;
  2335  02B7  3001               	movlw	low(01h)
  2336  02B8  1283               	bcf	status, 5	;RP0=0, select bank0
  2337  02B9  1303               	bcf	status, 6	;RP1=0, select bank0
  2338  02BA  07C7               	addwf	(write_IIC@t),f
  2339  02BB  1803               	skipnc
  2340  02BC  0AC8               	incf	(write_IIC@t+1),f
  2341  02BD  3000               	movlw	high(01h)
  2342  02BE  07C8               	addwf	(write_IIC@t+1),f
  2343                           	line	32
  2344                           	
  2345  02BF                     l9446:	
  2346                           ;IIC.c: 32: if(t > 1000) break;
  2347  02BF  0848               	movf	(write_IIC@t+1),w
  2348  02C0  3A80               	xorlw	80h
  2349  02C1  00FF               	movwf	btemp+1
  2350  02C2  3083               	movlw	(high(03E9h))^80h
  2351  02C3  027F               	subwf	btemp+1,w
  2352  02C4  1D03               	skipz
  2353  02C5  2AC8               	goto	u3585
  2354  02C6  30E9               	movlw	low(03E9h)
  2355  02C7  0247               	subwf	(write_IIC@t),w
  2356  02C8                     u3585:
  2357                           
  2358  02C8  1C03               	skipc
  2359  02C9  2ACB               	goto	u3581
  2360  02CA  2ACC               	goto	u3580
  2361  02CB                     u3581:
  2362  02CB  2ACE               	goto	l5081
  2363  02CC                     u3580:
  2364  02CC  2AD5               	goto	l9450
  2365                           	
  2366  02CD                     l9448:	
  2367  02CD  2AD5               	goto	l9450
  2368                           	
  2369  02CE                     l5083:	
  2370                           	line	33
  2371                           	
  2372  02CE                     l5081:	
  2373                           	line	29
  2374  02CE  1283               	bcf	status, 5	;RP0=0, select bank0
  2375  02CF  1303               	bcf	status, 6	;RP1=0, select bank0
  2376  02D0  1D8C               	btfss	(99/8),(99)&7
  2377  02D1  2AD3               	goto	u3591
  2378  02D2  2AD4               	goto	u3590
  2379  02D3                     u3591:
  2380  02D3  2AB7               	goto	l9444
  2381  02D4                     u3590:
  2382  02D4  2AD5               	goto	l9450
  2383                           	
  2384  02D5                     l5084:	
  2385                           	line	34
  2386                           	
  2387  02D5                     l9450:	
  2388                           ;IIC.c: 33: }
  2389                           ;IIC.c: 34: t=0;
  2390  02D5  1283               	bcf	status, 5	;RP0=0, select bank0
  2391  02D6  1303               	bcf	status, 6	;RP1=0, select bank0
  2392  02D7  01C7               	clrf	(write_IIC@t)
  2393  02D8  01C8               	clrf	(write_IIC@t+1)
  2394                           	line	35
  2395                           	
  2396  02D9                     l9452:	
  2397                           ;IIC.c: 35: SSPIF=0;
  2398  02D9  118C               	bcf	(99/8),(99)&7
  2399                           	line	37
  2400                           	
  2401  02DA                     l9454:	
  2402                           ;IIC.c: 37: SSPBUF=wdate_L;
  2403  02DA  0845               	movf	(write_IIC@wdate_L),w
  2404  02DB  0093               	movwf	(19)	;volatile
  2405                           	line	38
  2406                           	
  2407  02DC                     l9456:	
  2408                           ;IIC.c: 38: Delay(1);
  2409  02DC  3001               	movlw	low(01h)
  2410  02DD  00C3               	movwf	(?_Delay)
  2411  02DE  3000               	movlw	high(01h)
  2412  02DF  00C4               	movwf	((?_Delay))+1
  2413  02E0  120A  118A  2574   	fcall	_Delay
              120A  118A         
  2414                           	line	39
  2415                           ;IIC.c: 39: while(SSPIF==0)
  2416  02E5  2AFD               	goto	l5085
  2417                           	
  2418  02E6                     l5086:	
  2419                           	line	41
  2420                           	
  2421  02E6                     l9458:	
  2422                           ;IIC.c: 40: {
  2423                           ;IIC.c: 41: t++;
  2424  02E6  3001               	movlw	low(01h)
  2425  02E7  1283               	bcf	status, 5	;RP0=0, select bank0
  2426  02E8  1303               	bcf	status, 6	;RP1=0, select bank0
  2427  02E9  07C7               	addwf	(write_IIC@t),f
  2428  02EA  1803               	skipnc
  2429  02EB  0AC8               	incf	(write_IIC@t+1),f
  2430  02EC  3000               	movlw	high(01h)
  2431  02ED  07C8               	addwf	(write_IIC@t+1),f
  2432                           	line	42
  2433                           	
  2434  02EE                     l9460:	
  2435                           ;IIC.c: 42: if(t > 1000) break;
  2436  02EE  0848               	movf	(write_IIC@t+1),w
  2437  02EF  3A80               	xorlw	80h
  2438  02F0  00FF               	movwf	btemp+1
  2439  02F1  3083               	movlw	(high(03E9h))^80h
  2440  02F2  027F               	subwf	btemp+1,w
  2441  02F3  1D03               	skipz
  2442  02F4  2AF7               	goto	u3605
  2443  02F5  30E9               	movlw	low(03E9h)
  2444  02F6  0247               	subwf	(write_IIC@t),w
  2445  02F7                     u3605:
  2446                           
  2447  02F7  1C03               	skipc
  2448  02F8  2AFA               	goto	u3601
  2449  02F9  2AFB               	goto	u3600
  2450  02FA                     u3601:
  2451  02FA  2AFD               	goto	l5085
  2452  02FB                     u3600:
  2453  02FB  2B04               	goto	l9464
  2454                           	
  2455  02FC                     l9462:	
  2456  02FC  2B04               	goto	l9464
  2457                           	
  2458  02FD                     l5087:	
  2459                           	line	43
  2460                           	
  2461  02FD                     l5085:	
  2462                           	line	39
  2463  02FD  1283               	bcf	status, 5	;RP0=0, select bank0
  2464  02FE  1303               	bcf	status, 6	;RP1=0, select bank0
  2465  02FF  1D8C               	btfss	(99/8),(99)&7
  2466  0300  2B02               	goto	u3611
  2467  0301  2B03               	goto	u3610
  2468  0302                     u3611:
  2469  0302  2AE6               	goto	l9458
  2470  0303                     u3610:
  2471  0303  2B04               	goto	l9464
  2472                           	
  2473  0304                     l5088:	
  2474                           	line	44
  2475                           	
  2476  0304                     l9464:	
  2477                           ;IIC.c: 43: }
  2478                           ;IIC.c: 44: t=0;
  2479  0304  1283               	bcf	status, 5	;RP0=0, select bank0
  2480  0305  1303               	bcf	status, 6	;RP1=0, select bank0
  2481  0306  01C7               	clrf	(write_IIC@t)
  2482  0307  01C8               	clrf	(write_IIC@t+1)
  2483                           	line	45
  2484                           	
  2485  0308                     l9466:	
  2486                           ;IIC.c: 45: SSPIF=0;
  2487  0308  118C               	bcf	(99/8),(99)&7
  2488                           	line	47
  2489                           	
  2490  0309                     l9468:	
  2491                           ;IIC.c: 47: PEN=1;
  2492  0309  1683               	bsf	status, 5	;RP0=1, select bank1
  2493  030A  1303               	bcf	status, 6	;RP1=0, select bank1
  2494  030B  1511               	bsf	(1162/8)^080h,(1162)&7
  2495                           	line	48
  2496                           ;IIC.c: 48: while(SSPIF==0)
  2497  030C  2B23               	goto	l5089
  2498                           	
  2499  030D                     l5090:	
  2500                           	line	50
  2501                           	
  2502  030D                     l9470:	
  2503                           ;IIC.c: 49: {
  2504                           ;IIC.c: 50: t++;
  2505  030D  3001               	movlw	low(01h)
  2506  030E  1283               	bcf	status, 5	;RP0=0, select bank0
  2507  030F  07C7               	addwf	(write_IIC@t),f
  2508  0310  1803               	skipnc
  2509  0311  0AC8               	incf	(write_IIC@t+1),f
  2510  0312  3000               	movlw	high(01h)
  2511  0313  07C8               	addwf	(write_IIC@t+1),f
  2512                           	line	51
  2513                           	
  2514  0314                     l9472:	
  2515                           ;IIC.c: 51: if(t > 1000) break;
  2516  0314  0848               	movf	(write_IIC@t+1),w
  2517  0315  3A80               	xorlw	80h
  2518  0316  00FF               	movwf	btemp+1
  2519  0317  3083               	movlw	(high(03E9h))^80h
  2520  0318  027F               	subwf	btemp+1,w
  2521  0319  1D03               	skipz
  2522  031A  2B1D               	goto	u3625
  2523  031B  30E9               	movlw	low(03E9h)
  2524  031C  0247               	subwf	(write_IIC@t),w
  2525  031D                     u3625:
  2526                           
  2527  031D  1C03               	skipc
  2528  031E  2B20               	goto	u3621
  2529  031F  2B21               	goto	u3620
  2530  0320                     u3621:
  2531  0320  2B23               	goto	l5089
  2532  0321                     u3620:
  2533  0321  2B2A               	goto	l9476
  2534                           	
  2535  0322                     l9474:	
  2536  0322  2B2A               	goto	l9476
  2537                           	
  2538  0323                     l5091:	
  2539                           	line	52
  2540                           	
  2541  0323                     l5089:	
  2542                           	line	48
  2543  0323  1283               	bcf	status, 5	;RP0=0, select bank0
  2544  0324  1303               	bcf	status, 6	;RP1=0, select bank0
  2545  0325  1D8C               	btfss	(99/8),(99)&7
  2546  0326  2B28               	goto	u3631
  2547  0327  2B29               	goto	u3630
  2548  0328                     u3631:
  2549  0328  2B0D               	goto	l9470
  2550  0329                     u3630:
  2551  0329  2B2A               	goto	l9476
  2552                           	
  2553  032A                     l5092:	
  2554                           	line	53
  2555                           	
  2556  032A                     l9476:	
  2557                           ;IIC.c: 52: }
  2558                           ;IIC.c: 53: t=0;
  2559  032A  1283               	bcf	status, 5	;RP0=0, select bank0
  2560  032B  1303               	bcf	status, 6	;RP1=0, select bank0
  2561  032C  01C7               	clrf	(write_IIC@t)
  2562  032D  01C8               	clrf	(write_IIC@t+1)
  2563                           	line	54
  2564                           	
  2565  032E                     l9478:	
  2566                           ;IIC.c: 54: SSPIF=0;
  2567  032E  118C               	bcf	(99/8),(99)&7
  2568                           	line	56
  2569                           	
  2570  032F                     l5093:	
  2571  032F  0008               	return
  2572                           	opt stack 0
  2573                           GLOBAL	__end_of_write_IIC
  2574  0330                     	__end_of_write_IIC:
  2575 ;; =============== function _write_IIC ends ============
  2576                           
  2577                           	signat	_write_IIC,8312
  2578                           	global	_InitDevices
  2579                           psect	text712,local,class=CODE,delta=2
  2580                           global __ptext712
  2581  04FE                     __ptext712:
  2582                           
  2583 ;; *************** function _InitDevices *****************
  2584 ;; Defined at:
  2585 ;;		line 120 in file "InitDevices.c"
  2586 ;; Parameters:    Size  Location     Type
  2587 ;;		None
  2588 ;; Auto vars:     Size  Location     Type
  2589 ;;		None
  2590 ;; Return value:  Size  Location     Type
  2591 ;;		None               void
  2592 ;; Registers used:
  2593 ;;		wreg, status,2, status,0, pclath, cstack
  2594 ;; Tracked objects:
  2595 ;;		On entry : 0/0
  2596 ;;		On exit  : 0/0
  2597 ;;		Unchanged: 0/0
  2598 ;; Data sizes:     COMMON   BANK0   BANK1   BANK3   BANK2
  2599 ;;      Params:         0       0       0       0       0
  2600 ;;      Locals:         0       0       0       0       0
  2601 ;;      Temps:          0       0       0       0       0
  2602 ;;      Totals:         0       0       0       0       0
  2603 ;;Total ram usage:        0 bytes
  2604 ;; Hardware stack levels used:    1
  2605 ;; Hardware stack levels required when called:    3
  2606 ;; This function calls:
  2607 ;;		_systemOSC
  2608 ;;		_PortInit
  2609 ;;		_InitTimer1
  2610 ;;		_IIC_init
  2611 ;;		_InitTimer2
  2612 ;;		_InitCn
  2613 ;; This function is called by:
  2614 ;;		_main
  2615 ;; This function uses a non-reentrant model
  2616 ;;
  2617                           psect	text712
  2618                           	file	"InitDevices.c"
  2619                           	line	120
  2620                           	global	__size_of_InitDevices
  2621  0024                     	__size_of_InitDevices	equ	__end_of_InitDevices-_InitDevices
  2622                           	
  2623  04FE                     _InitDevices:	
  2624                           	opt	stack 4
  2625                           ; Regs used in _InitDevices: [wreg+status,2+status,0+pclath+cstack]
  2626                           	line	121
  2627                           	
  2628  04FE                     l9402:	
  2629                           ;InitDevices.c: 121: systemOSC();
  2630  04FE  120A  118A  25C7   	fcall	_systemOSC
              120A  118A         
  2631                           	line	122
  2632                           ;InitDevices.c: 122: PortInit();
  2633  0503  120A  118A  255D   	fcall	_PortInit
              120A  118A         
  2634                           	line	124
  2635                           ;InitDevices.c: 124: InitTimer1();
  2636  0508  120A  118A  2588   	fcall	_InitTimer1
              120A  118A         
  2637                           	line	125
  2638                           ;InitDevices.c: 125: IIC_init();
  2639  050D  120A  118A  259A   	fcall	_IIC_init
              120A  118A         
  2640                           	line	127
  2641                           ;InitDevices.c: 127: InitTimer2();
  2642  0512  120A  118A  25AA   	fcall	_InitTimer2
              120A  118A         
  2643                           	line	128
  2644                           ;InitDevices.c: 128: InitCn();
  2645  0517  120A  118A  25C0   	fcall	_InitCn
              120A  118A         
  2646                           	line	129
  2647                           	
  2648  051C                     l9404:	
  2649                           ;InitDevices.c: 129: PEIE = 1;
  2650  051C  170B               	bsf	(94/8),(94)&7
  2651                           	line	130
  2652                           	
  2653  051D                     l9406:	
  2654                           ;InitDevices.c: 130: TMR1ON=1;
  2655  051D  1283               	bcf	status, 5	;RP0=0, select bank0
  2656  051E  1303               	bcf	status, 6	;RP1=0, select bank0
  2657  051F  1410               	bsf	(128/8),(128)&7
  2658                           	line	131
  2659                           	
  2660  0520                     l9408:	
  2661                           ;InitDevices.c: 131: GIE=1;
  2662  0520  178B               	bsf	(95/8),(95)&7
  2663                           	line	133
  2664                           	
  2665  0521                     l991:	
  2666  0521  0008               	return
  2667                           	opt stack 0
  2668                           GLOBAL	__end_of_InitDevices
  2669  0522                     	__end_of_InitDevices:
  2670 ;; =============== function _InitDevices ends ============
  2671                           
  2672                           	signat	_InitDevices,88
  2673                           	global	_Delay
  2674                           psect	text713,local,class=CODE,delta=2
  2675                           global __ptext713
  2676  0574                     __ptext713:
  2677                           
  2678 ;; *************** function _Delay *****************
  2679 ;; Defined at:
  2680 ;;		line 98 in file "IIC.c"
  2681 ;; Parameters:    Size  Location     Type
  2682 ;;  n               2    0[BANK0 ] unsigned int 
  2683 ;; Auto vars:     Size  Location     Type
  2684 ;;		None
  2685 ;; Return value:  Size  Location     Type
  2686 ;;		None               void
  2687 ;; Registers used:
  2688 ;;		wreg, status,2, status,0
  2689 ;; Tracked objects:
  2690 ;;		On entry : 0/0
  2691 ;;		On exit  : 0/0
  2692 ;;		Unchanged: 0/0
  2693 ;; Data sizes:     COMMON   BANK0   BANK1   BANK3   BANK2
  2694 ;;      Params:         0       2       0       0       0
  2695 ;;      Locals:         0       0       0       0       0
  2696 ;;      Temps:          0       0       0       0       0
  2697 ;;      Totals:         0       2       0       0       0
  2698 ;;Total ram usage:        2 bytes
  2699 ;; Hardware stack levels used:    1
  2700 ;; Hardware stack levels required when called:    2
  2701 ;; This function calls:
  2702 ;;		Nothing
  2703 ;; This function is called by:
  2704 ;;		_write_IIC
  2705 ;; This function uses a non-reentrant model
  2706 ;;
  2707                           psect	text713
  2708                           	file	"IIC.c"
  2709                           	line	98
  2710                           	global	__size_of_Delay
  2711  0014                     	__size_of_Delay	equ	__end_of_Delay-_Delay
  2712                           	
  2713  0574                     _Delay:	
  2714                           	opt	stack 3
  2715                           ; Regs used in _Delay: [wreg+status,2+status,0]
  2716                           	line	99
  2717                           	
  2718  0574                     l9396:	
  2719                           ;IIC.c: 99: while(n)
  2720  0574  2D7E               	goto	l9400
  2721                           	
  2722  0575                     l5097:	
  2723                           	line	101
  2724                           	
  2725  0575                     l9398:	
  2726                           ;IIC.c: 100: {
  2727                           ;IIC.c: 101: n--;
  2728  0575  3001               	movlw	low(01h)
  2729  0576  1283               	bcf	status, 5	;RP0=0, select bank0
  2730  0577  1303               	bcf	status, 6	;RP1=0, select bank0
  2731  0578  02C3               	subwf	(Delay@n),f
  2732  0579  3000               	movlw	high(01h)
  2733  057A  1C03               	skipc
  2734  057B  03C4               	decf	(Delay@n+1),f
  2735  057C  02C4               	subwf	(Delay@n+1),f
  2736  057D  2D7E               	goto	l9400
  2737                           	line	102
  2738                           	
  2739  057E                     l5096:	
  2740                           	line	99
  2741                           	
  2742  057E                     l9400:	
  2743  057E  1283               	bcf	status, 5	;RP0=0, select bank0
  2744  057F  1303               	bcf	status, 6	;RP1=0, select bank0
  2745  0580  0844               	movf	((Delay@n+1)),w
  2746  0581  0443               	iorwf	((Delay@n)),w
  2747  0582  1D03               	skipz
  2748  0583  2D85               	goto	u3531
  2749  0584  2D86               	goto	u3530
  2750  0585                     u3531:
  2751  0585  2D75               	goto	l9398
  2752  0586                     u3530:
  2753  0586  2D87               	goto	l5099
  2754                           	
  2755  0587                     l5098:	
  2756                           	line	103
  2757                           	
  2758  0587                     l5099:	
  2759  0587  0008               	return
  2760                           	opt stack 0
  2761                           GLOBAL	__end_of_Delay
  2762  0588                     	__end_of_Delay:
  2763 ;; =============== function _Delay ends ============
  2764                           
  2765                           	signat	_Delay,4216
  2766                           	global	_delaynms
  2767                           psect	text714,local,class=CODE,delta=2
  2768                           global __ptext714
  2769  0451                     __ptext714:
  2770                           
  2771 ;; *************** function _delaynms *****************
  2772 ;; Defined at:
  2773 ;;		line 107 in file "IIC.c"
  2774 ;; Parameters:    Size  Location     Type
  2775 ;;  n               2    0[BANK0 ] unsigned int 
  2776 ;; Auto vars:     Size  Location     Type
  2777 ;;  j               2    4[BANK0 ] unsigned int 
  2778 ;;  i               2    2[BANK0 ] unsigned int 
  2779 ;; Return value:  Size  Location     Type
  2780 ;;		None               void
  2781 ;; Registers used:
  2782 ;;		wreg, status,2
  2783 ;; Tracked objects:
  2784 ;;		On entry : 0/0
  2785 ;;		On exit  : 0/0
  2786 ;;		Unchanged: 0/0
  2787 ;; Data sizes:     COMMON   BANK0   BANK1   BANK3   BANK2
  2788 ;;      Params:         0       2       0       0       0
  2789 ;;      Locals:         0       4       0       0       0
  2790 ;;      Temps:          0       0       0       0       0
  2791 ;;      Totals:         0       6       0       0       0
  2792 ;;Total ram usage:        6 bytes
  2793 ;; Hardware stack levels used:    1
  2794 ;; Hardware stack levels required when called:    2
  2795 ;; This function calls:
  2796 ;;		Nothing
  2797 ;; This function is called by:
  2798 ;;		_main
  2799 ;;		_The_Close
  2800 ;;		_MotorClose
  2801 ;;		_MotorStart
  2802 ;; This function uses a non-reentrant model
  2803 ;;
  2804                           psect	text714
  2805                           	file	"IIC.c"
  2806                           	line	107
  2807                           	global	__size_of_delaynms
  2808  0034                     	__size_of_delaynms	equ	__end_of_delaynms-_delaynms
  2809                           	
  2810  0451                     _delaynms:	
  2811                           	opt	stack 4
  2812                           ; Regs used in _delaynms: [wreg+status,2]
  2813                           	line	110
  2814                           	
  2815  0451                     l9352:	
  2816                           ;IIC.c: 108: unsigned int i,j;
  2817                           ;IIC.c: 110: for(i=0;i<n;i++)
  2818  0451  1283               	bcf	status, 5	;RP0=0, select bank0
  2819  0452  1303               	bcf	status, 6	;RP1=0, select bank0
  2820  0453  01C5               	clrf	(delaynms@i)
  2821  0454  01C6               	clrf	(delaynms@i+1)
  2822  0455  2C79               	goto	l5102
  2823                           	line	111
  2824                           	
  2825  0456                     l5103:	
  2826                           	
  2827  0456                     l9354:	
  2828                           ;IIC.c: 111: for(j=0;j<1600;j++);
  2829  0456  01C7               	clrf	(delaynms@j)
  2830  0457  01C8               	clrf	(delaynms@j+1)
  2831                           	
  2832  0458                     l9356:	
  2833  0458  3006               	movlw	high(0640h)
  2834  0459  0248               	subwf	(delaynms@j+1),w
  2835  045A  3040               	movlw	low(0640h)
  2836  045B  1903               	skipnz
  2837  045C  0247               	subwf	(delaynms@j),w
  2838  045D  1C03               	skipc
  2839  045E  2C60               	goto	u3491
  2840  045F  2C61               	goto	u3490
  2841  0460                     u3491:
  2842  0460  2C63               	goto	l9360
  2843  0461                     u3490:
  2844  0461  2C73               	goto	l9362
  2845                           	
  2846  0462                     l9358:	
  2847  0462  2C73               	goto	l9362
  2848                           	
  2849  0463                     l5104:	
  2850                           	
  2851  0463                     l9360:	
  2852  0463  3001               	movlw	low(01h)
  2853  0464  07C7               	addwf	(delaynms@j),f
  2854  0465  1803               	skipnc
  2855  0466  0AC8               	incf	(delaynms@j+1),f
  2856  0467  3000               	movlw	high(01h)
  2857  0468  07C8               	addwf	(delaynms@j+1),f
  2858  0469  3006               	movlw	high(0640h)
  2859  046A  0248               	subwf	(delaynms@j+1),w
  2860  046B  3040               	movlw	low(0640h)
  2861  046C  1903               	skipnz
  2862  046D  0247               	subwf	(delaynms@j),w
  2863  046E  1C03               	skipc
  2864  046F  2C71               	goto	u3501
  2865  0470  2C72               	goto	u3500
  2866  0471                     u3501:
  2867  0471  2C63               	goto	l9360
  2868  0472                     u3500:
  2869  0472  2C73               	goto	l9362
  2870                           	
  2871  0473                     l5105:	
  2872                           	line	110
  2873                           	
  2874  0473                     l9362:	
  2875  0473  3001               	movlw	low(01h)
  2876  0474  07C5               	addwf	(delaynms@i),f
  2877  0475  1803               	skipnc
  2878  0476  0AC6               	incf	(delaynms@i+1),f
  2879  0477  3000               	movlw	high(01h)
  2880  0478  07C6               	addwf	(delaynms@i+1),f
  2881                           	
  2882  0479                     l5102:	
  2883  0479  0844               	movf	(delaynms@n+1),w
  2884  047A  0246               	subwf	(delaynms@i+1),w
  2885  047B  1D03               	skipz
  2886  047C  2C7F               	goto	u3515
  2887  047D  0843               	movf	(delaynms@n),w
  2888  047E  0245               	subwf	(delaynms@i),w
  2889  047F                     u3515:
  2890  047F  1C03               	skipc
  2891  0480  2C82               	goto	u3511
  2892  0481  2C83               	goto	u3510
  2893  0482                     u3511:
  2894  0482  2C56               	goto	l9354
  2895  0483                     u3510:
  2896  0483  2C84               	goto	l5107
  2897                           	
  2898  0484                     l5106:	
  2899                           	line	112
  2900                           	
  2901  0484                     l5107:	
  2902  0484  0008               	return
  2903                           	opt stack 0
  2904                           GLOBAL	__end_of_delaynms
  2905  0485                     	__end_of_delaynms:
  2906 ;; =============== function _delaynms ends ============
  2907                           
  2908                           	signat	_delaynms,4216
  2909                           	global	_InitCn
  2910                           psect	text715,local,class=CODE,delta=2
  2911                           global __ptext715
  2912  05C0                     __ptext715:
  2913                           
  2914 ;; *************** function _InitCn *****************
  2915 ;; Defined at:
  2916 ;;		line 113 in file "InitDevices.c"
  2917 ;; Parameters:    Size  Location     Type
  2918 ;;		None
  2919 ;; Auto vars:     Size  Location     Type
  2920 ;;		None
  2921 ;; Return value:  Size  Location     Type
  2922 ;;		None               void
  2923 ;; Registers used:
  2924 ;;		wreg
  2925 ;; Tracked objects:
  2926 ;;		On entry : 0/0
  2927 ;;		On exit  : 0/0
  2928 ;;		Unchanged: 0/0
  2929 ;; Data sizes:     COMMON   BANK0   BANK1   BANK3   BANK2
  2930 ;;      Params:         0       0       0       0       0
  2931 ;;      Locals:         0       0       0       0       0
  2932 ;;      Temps:          0       0       0       0       0
  2933 ;;      Totals:         0       0       0       0       0
  2934 ;;Total ram usage:        0 bytes
  2935 ;; Hardware stack levels used:    1
  2936 ;; Hardware stack levels required when called:    2
  2937 ;; This function calls:
  2938 ;;		Nothing
  2939 ;; This function is called by:
  2940 ;;		_InitDevices
  2941 ;; This function uses a non-reentrant model
  2942 ;;
  2943                           psect	text715
  2944                           	file	"InitDevices.c"
  2945                           	line	113
  2946                           	global	__size_of_InitCn
  2947  0007                     	__size_of_InitCn	equ	__end_of_InitCn-_InitCn
  2948                           	
  2949  05C0                     _InitCn:	
  2950                           	opt	stack 4
  2951                           ; Regs used in _InitCn: [wreg]
  2952                           	line	114
  2953                           	
  2954  05C0                     l9346:	
  2955                           ;InitDevices.c: 114: IOCB=0X10;
  2956  05C0  3010               	movlw	(010h)
  2957  05C1  1683               	bsf	status, 5	;RP0=1, select bank1
  2958  05C2  1303               	bcf	status, 6	;RP1=0, select bank1
  2959  05C3  0096               	movwf	(150)^080h	;volatile
  2960                           	line	115
  2961                           	
  2962  05C4                     l9348:	
  2963                           ;InitDevices.c: 115: RBIE=1;
  2964  05C4  158B               	bsf	(91/8),(91)&7
  2965                           	line	116
  2966                           	
  2967  05C5                     l9350:	
  2968                           ;InitDevices.c: 116: RBIF=0;
  2969  05C5  100B               	bcf	(88/8),(88)&7
  2970                           	line	117
  2971                           	
  2972  05C6                     l988:	
  2973  05C6  0008               	return
  2974                           	opt stack 0
  2975                           GLOBAL	__end_of_InitCn
  2976  05C7                     	__end_of_InitCn:
  2977 ;; =============== function _InitCn ends ============
  2978                           
  2979                           	signat	_InitCn,88
  2980                           	global	_InitTimer2
  2981                           psect	text716,local,class=CODE,delta=2
  2982                           global __ptext716
  2983  05AA                     __ptext716:
  2984                           
  2985 ;; *************** function _InitTimer2 *****************
  2986 ;; Defined at:
  2987 ;;		line 103 in file "InitDevices.c"
  2988 ;; Parameters:    Size  Location     Type
  2989 ;;		None
  2990 ;; Auto vars:     Size  Location     Type
  2991 ;;		None
  2992 ;; Return value:  Size  Location     Type
  2993 ;;		None               void
  2994 ;; Registers used:
  2995 ;;		wreg, status,2
  2996 ;; Tracked objects:
  2997 ;;		On entry : 0/0
  2998 ;;		On exit  : 0/0
  2999 ;;		Unchanged: 0/0
  3000 ;; Data sizes:     COMMON   BANK0   BANK1   BANK3   BANK2
  3001 ;;      Params:         0       0       0       0       0
  3002 ;;      Locals:         0       0       0       0       0
  3003 ;;      Temps:          0       0       0       0       0
  3004 ;;      Totals:         0       0       0       0       0
  3005 ;;Total ram usage:        0 bytes
  3006 ;; Hardware stack levels used:    1
  3007 ;; Hardware stack levels required when called:    2
  3008 ;; This function calls:
  3009 ;;		Nothing
  3010 ;; This function is called by:
  3011 ;;		_InitDevices
  3012 ;; This function uses a non-reentrant model
  3013 ;;
  3014                           psect	text716
  3015                           	file	"InitDevices.c"
  3016                           	line	103
  3017                           	global	__size_of_InitTimer2
  3018  000E                     	__size_of_InitTimer2	equ	__end_of_InitTimer2-_InitTimer2
  3019                           	
  3020  05AA                     _InitTimer2:	
  3021                           	opt	stack 4
  3022                           ; Regs used in _InitTimer2: [wreg+status,2]
  3023                           	line	104
  3024                           	
  3025  05AA                     l9336:	
  3026                           ;InitDevices.c: 104: T2CON = 0X00;
  3027  05AA  1283               	bcf	status, 5	;RP0=0, select bank0
  3028  05AB  1303               	bcf	status, 6	;RP1=0, select bank0
  3029  05AC  0192               	clrf	(18)	;volatile
  3030                           	line	105
  3031                           ;InitDevices.c: 105: TMR2=0;
  3032  05AD  0191               	clrf	(17)	;volatile
  3033                           	line	106
  3034                           	
  3035  05AE                     l9338:	
  3036                           ;InitDevices.c: 106: PR2=199;
  3037  05AE  30C7               	movlw	(0C7h)
  3038  05AF  1683               	bsf	status, 5	;RP0=1, select bank1
  3039  05B0  1303               	bcf	status, 6	;RP1=0, select bank1
  3040  05B1  0092               	movwf	(146)^080h	;volatile
  3041                           	line	107
  3042                           	
  3043  05B2                     l9340:	
  3044                           ;InitDevices.c: 107: TMR2IE=1;
  3045  05B2  148C               	bsf	(1121/8)^080h,(1121)&7
  3046                           	line	108
  3047                           	
  3048  05B3                     l9342:	
  3049                           ;InitDevices.c: 108: TMR2IF = 0;
  3050  05B3  1283               	bcf	status, 5	;RP0=0, select bank0
  3051  05B4  1303               	bcf	status, 6	;RP1=0, select bank0
  3052  05B5  108C               	bcf	(97/8),(97)&7
  3053                           	line	109
  3054                           	
  3055  05B6                     l9344:	
  3056                           ;InitDevices.c: 109: TMR2ON = 0;
  3057  05B6  1112               	bcf	(146/8),(146)&7
  3058                           	line	110
  3059                           	
  3060  05B7                     l985:	
  3061  05B7  0008               	return
  3062                           	opt stack 0
  3063                           GLOBAL	__end_of_InitTimer2
  3064  05B8                     	__end_of_InitTimer2:
  3065 ;; =============== function _InitTimer2 ends ============
  3066                           
  3067                           	signat	_InitTimer2,88
  3068                           	global	_InitTimer1
  3069                           psect	text717,local,class=CODE,delta=2
  3070                           global __ptext717
  3071  0588                     __ptext717:
  3072                           
  3073 ;; *************** function _InitTimer1 *****************
  3074 ;; Defined at:
  3075 ;;		line 90 in file "InitDevices.c"
  3076 ;; Parameters:    Size  Location     Type
  3077 ;;		None
  3078 ;; Auto vars:     Size  Location     Type
  3079 ;;		None
  3080 ;; Return value:  Size  Location     Type
  3081 ;;		None               void
  3082 ;; Registers used:
  3083 ;;		wreg, status,2
  3084 ;; Tracked objects:
  3085 ;;		On entry : 0/0
  3086 ;;		On exit  : 0/0
  3087 ;;		Unchanged: 0/0
  3088 ;; Data sizes:     COMMON   BANK0   BANK1   BANK3   BANK2
  3089 ;;      Params:         0       0       0       0       0
  3090 ;;      Locals:         0       0       0       0       0
  3091 ;;      Temps:          0       0       0       0       0
  3092 ;;      Totals:         0       0       0       0       0
  3093 ;;Total ram usage:        0 bytes
  3094 ;; Hardware stack levels used:    1
  3095 ;; Hardware stack levels required when called:    2
  3096 ;; This function calls:
  3097 ;;		Nothing
  3098 ;; This function is called by:
  3099 ;;		_InitDevices
  3100 ;; This function uses a non-reentrant model
  3101 ;;
  3102                           psect	text717
  3103                           	file	"InitDevices.c"
  3104                           	line	90
  3105                           	global	__size_of_InitTimer1
  3106  0012                     	__size_of_InitTimer1	equ	__end_of_InitTimer1-_InitTimer1
  3107                           	
  3108  0588                     _InitTimer1:	
  3109                           	opt	stack 4
  3110                           ; Regs used in _InitTimer1: [wreg+status,2]
  3111                           	line	91
  3112                           	
  3113  0588                     l9320:	
  3114                           ;InitDevices.c: 91: T1CON=0x00;
  3115  0588  1283               	bcf	status, 5	;RP0=0, select bank0
  3116  0589  1303               	bcf	status, 6	;RP1=0, select bank0
  3117  058A  0190               	clrf	(16)	;volatile
  3118                           	line	92
  3119                           	
  3120  058B                     l9322:	
  3121                           ;InitDevices.c: 92: TMR1CS = 0;
  3122  058B  1090               	bcf	(129/8),(129)&7
  3123                           	line	93
  3124                           	
  3125  058C                     l9324:	
  3126                           ;InitDevices.c: 93: T1CONbits.T1CKPS0=1;
  3127  058C  1610               	bsf	(16),4	;volatile
  3128                           	line	94
  3129                           	
  3130  058D                     l9326:	
  3131                           ;InitDevices.c: 94: T1CONbits.T1CKPS1=0;
  3132  058D  1290               	bcf	(16),5	;volatile
  3133                           	line	96
  3134                           	
  3135  058E                     l9328:	
  3136                           ;InitDevices.c: 96: TMR1=15536;
  3137  058E  30B0               	movlw	low(03CB0h)
  3138  058F  008E               	movwf	(14)	;volatile
  3139  0590  303C               	movlw	high(03CB0h)
  3140  0591  008F               	movwf	((14))+1	;volatile
  3141                           	line	97
  3142                           	
  3143  0592                     l9330:	
  3144                           ;InitDevices.c: 97: TMR1IE=1;
  3145  0592  1683               	bsf	status, 5	;RP0=1, select bank1
  3146  0593  1303               	bcf	status, 6	;RP1=0, select bank1
  3147  0594  140C               	bsf	(1120/8)^080h,(1120)&7
  3148                           	line	98
  3149                           	
  3150  0595                     l9332:	
  3151                           ;InitDevices.c: 98: TMR1IF = 0;
  3152  0595  1283               	bcf	status, 5	;RP0=0, select bank0
  3153  0596  1303               	bcf	status, 6	;RP1=0, select bank0
  3154  0597  100C               	bcf	(96/8),(96)&7
  3155                           	line	99
  3156                           	
  3157  0598                     l9334:	
  3158                           ;InitDevices.c: 99: TMR1ON=0;
  3159  0598  1010               	bcf	(128/8),(128)&7
  3160                           	line	100
  3161                           	
  3162  0599                     l982:	
  3163  0599  0008               	return
  3164                           	opt stack 0
  3165                           GLOBAL	__end_of_InitTimer1
  3166  059A                     	__end_of_InitTimer1:
  3167 ;; =============== function _InitTimer1 ends ============
  3168                           
  3169                           	signat	_InitTimer1,88
  3170                           	global	_IIC_init
  3171                           psect	text718,local,class=CODE,delta=2
  3172                           global __ptext718
  3173  059A                     __ptext718:
  3174                           
  3175 ;; *************** function _IIC_init *****************
  3176 ;; Defined at:
  3177 ;;		line 70 in file "InitDevices.c"
  3178 ;; Parameters:    Size  Location     Type
  3179 ;;		None
  3180 ;; Auto vars:     Size  Location     Type
  3181 ;;		None
  3182 ;; Return value:  Size  Location     Type
  3183 ;;		None               void
  3184 ;; Registers used:
  3185 ;;		wreg, status,2
  3186 ;; Tracked objects:
  3187 ;;		On entry : 0/0
  3188 ;;		On exit  : 0/0
  3189 ;;		Unchanged: 0/0
  3190 ;; Data sizes:     COMMON   BANK0   BANK1   BANK3   BANK2
  3191 ;;      Params:         0       0       0       0       0
  3192 ;;      Locals:         0       0       0       0       0
  3193 ;;      Temps:          0       0       0       0       0
  3194 ;;      Totals:         0       0       0       0       0
  3195 ;;Total ram usage:        0 bytes
  3196 ;; Hardware stack levels used:    1
  3197 ;; Hardware stack levels required when called:    2
  3198 ;; This function calls:
  3199 ;;		Nothing
  3200 ;; This function is called by:
  3201 ;;		_InitDevices
  3202 ;; This function uses a non-reentrant model
  3203 ;;
  3204                           psect	text718
  3205                           	file	"InitDevices.c"
  3206                           	line	70
  3207                           	global	__size_of_IIC_init
  3208  0010                     	__size_of_IIC_init	equ	__end_of_IIC_init-_IIC_init
  3209                           	
  3210  059A                     _IIC_init:	
  3211                           	opt	stack 4
  3212                           ; Regs used in _IIC_init: [wreg+status,2]
  3213                           	line	71
  3214                           	
  3215  059A                     l9312:	
  3216                           ;InitDevices.c: 71: TRISC3=1;
  3217  059A  1683               	bsf	status, 5	;RP0=1, select bank1
  3218  059B  1303               	bcf	status, 6	;RP1=0, select bank1
  3219  059C  1587               	bsf	(1083/8)^080h,(1083)&7
  3220                           	line	72
  3221                           ;InitDevices.c: 72: TRISC4=1;
  3222  059D  1607               	bsf	(1084/8)^080h,(1084)&7
  3223                           	line	73
  3224                           	
  3225  059E                     l9314:	
  3226                           ;InitDevices.c: 73: SSPSTAT=0x80;
  3227  059E  3080               	movlw	(080h)
  3228  059F  0094               	movwf	(148)^080h	;volatile
  3229                           	line	74
  3230                           ;InitDevices.c: 74: SSPCON=0x28;
  3231  05A0  3028               	movlw	(028h)
  3232  05A1  1283               	bcf	status, 5	;RP0=0, select bank0
  3233  05A2  1303               	bcf	status, 6	;RP1=0, select bank0
  3234  05A3  0094               	movwf	(20)	;volatile
  3235                           	line	75
  3236                           	
  3237  05A4                     l9316:	
  3238                           ;InitDevices.c: 75: SSPCON2=0;
  3239  05A4  1683               	bsf	status, 5	;RP0=1, select bank1
  3240  05A5  1303               	bcf	status, 6	;RP1=0, select bank1
  3241  05A6  0191               	clrf	(145)^080h	;volatile
  3242                           	line	79
  3243                           	
  3244  05A7                     l9318:	
  3245                           ;InitDevices.c: 79: SSPADD=0x13;
  3246  05A7  3013               	movlw	(013h)
  3247  05A8  0093               	movwf	(147)^080h	;volatile
  3248                           	line	80
  3249                           	
  3250  05A9                     l976:	
  3251  05A9  0008               	return
  3252                           	opt stack 0
  3253                           GLOBAL	__end_of_IIC_init
  3254  05AA                     	__end_of_IIC_init:
  3255 ;; =============== function _IIC_init ends ============
  3256                           
  3257                           	signat	_IIC_init,88
  3258                           	global	_PortInit
  3259                           psect	text719,local,class=CODE,delta=2
  3260                           global __ptext719
  3261  055D                     __ptext719:
  3262                           
  3263 ;; *************** function _PortInit *****************
  3264 ;; Defined at:
  3265 ;;		line 32 in file "InitDevices.c"
  3266 ;; Parameters:    Size  Location     Type
  3267 ;;		None
  3268 ;; Auto vars:     Size  Location     Type
  3269 ;;		None
  3270 ;; Return value:  Size  Location     Type
  3271 ;;		None               void
  3272 ;; Registers used:
  3273 ;;		wreg, status,2, status,0
  3274 ;; Tracked objects:
  3275 ;;		On entry : 0/0
  3276 ;;		On exit  : 0/0
  3277 ;;		Unchanged: 0/0
  3278 ;; Data sizes:     COMMON   BANK0   BANK1   BANK3   BANK2
  3279 ;;      Params:         0       0       0       0       0
  3280 ;;      Locals:         0       0       0       0       0
  3281 ;;      Temps:          0       1       0       0       0
  3282 ;;      Totals:         0       1       0       0       0
  3283 ;;Total ram usage:        1 bytes
  3284 ;; Hardware stack levels used:    1
  3285 ;; Hardware stack levels required when called:    2
  3286 ;; This function calls:
  3287 ;;		Nothing
  3288 ;; This function is called by:
  3289 ;;		_InitDevices
  3290 ;; This function uses a non-reentrant model
  3291 ;;
  3292                           psect	text719
  3293                           	file	"InitDevices.c"
  3294                           	line	32
  3295                           	global	__size_of_PortInit
  3296  0017                     	__size_of_PortInit	equ	__end_of_PortInit-_PortInit
  3297                           	
  3298  055D                     _PortInit:	
  3299                           	opt	stack 4
  3300                           ; Regs used in _PortInit: [wreg+status,2+status,0]
  3301                           	line	33
  3302                           	
  3303  055D                     l9300:	
  3304                           ;InitDevices.c: 33: PORTA = 0x00;
  3305  055D  1283               	bcf	status, 5	;RP0=0, select bank0
  3306  055E  1303               	bcf	status, 6	;RP1=0, select bank0
  3307  055F  0185               	clrf	(5)	;volatile
  3308                           	line	34
  3309                           ;InitDevices.c: 34: PORTB = 0x00;
  3310  0560  0186               	clrf	(6)	;volatile
  3311                           	line	35
  3312                           	
  3313  0561                     l9302:	
  3314                           ;InitDevices.c: 35: TRISA |= 0xE2;
  3315  0561  30E2               	movlw	(0E2h)
  3316  0562  00C3               	movwf	(??_PortInit+0)+0
  3317  0563  0843               	movf	(??_PortInit+0)+0,w
  3318  0564  1683               	bsf	status, 5	;RP0=1, select bank1
  3319  0565  1303               	bcf	status, 6	;RP1=0, select bank1
  3320  0566  0485               	iorwf	(133)^080h,f	;volatile
  3321                           	line	36
  3322                           	
  3323  0567                     l9304:	
  3324                           ;InitDevices.c: 36: TRISB = 0X12;
  3325  0567  3012               	movlw	(012h)
  3326  0568  0086               	movwf	(134)^080h	;volatile
  3327                           	line	37
  3328                           	
  3329  0569                     l9306:	
  3330                           ;InitDevices.c: 37: PORTC = 0X00;
  3331  0569  1283               	bcf	status, 5	;RP0=0, select bank0
  3332  056A  1303               	bcf	status, 6	;RP1=0, select bank0
  3333  056B  0187               	clrf	(7)	;volatile
  3334                           	line	38
  3335                           	
  3336  056C                     l9308:	
  3337                           ;InitDevices.c: 38: TRISC = 0XE2;
  3338  056C  30E2               	movlw	(0E2h)
  3339  056D  1683               	bsf	status, 5	;RP0=1, select bank1
  3340  056E  1303               	bcf	status, 6	;RP1=0, select bank1
  3341  056F  0087               	movwf	(135)^080h	;volatile
  3342                           	line	40
  3343                           	
  3344  0570                     l9310:	
  3345                           ;InitDevices.c: 40: ANSELH = 0x00;
  3346  0570  1683               	bsf	status, 5	;RP0=1, select bank3
  3347  0571  1703               	bsf	status, 6	;RP1=1, select bank3
  3348  0572  0189               	clrf	(393)^0180h	;volatile
  3349                           	line	43
  3350                           	
  3351  0573                     l970:	
  3352  0573  0008               	return
  3353                           	opt stack 0
  3354                           GLOBAL	__end_of_PortInit
  3355  0574                     	__end_of_PortInit:
  3356 ;; =============== function _PortInit ends ============
  3357                           
  3358                           	signat	_PortInit,88
  3359                           	global	_systemOSC
  3360                           psect	text720,local,class=CODE,delta=2
  3361                           global __ptext720
  3362  05C7                     __ptext720:
  3363                           
  3364 ;; *************** function _systemOSC *****************
  3365 ;; Defined at:
  3366 ;;		line 27 in file "InitDevices.c"
  3367 ;; Parameters:    Size  Location     Type
  3368 ;;		None
  3369 ;; Auto vars:     Size  Location     Type
  3370 ;;		None
  3371 ;; Return value:  Size  Location     Type
  3372 ;;		None               void
  3373 ;; Registers used:
  3374 ;;		wreg
  3375 ;; Tracked objects:
  3376 ;;		On entry : 0/0
  3377 ;;		On exit  : 0/0
  3378 ;;		Unchanged: 0/0
  3379 ;; Data sizes:     COMMON   BANK0   BANK1   BANK3   BANK2
  3380 ;;      Params:         0       0       0       0       0
  3381 ;;      Locals:         0       0       0       0       0
  3382 ;;      Temps:          0       0       0       0       0
  3383 ;;      Totals:         0       0       0       0       0
  3384 ;;Total ram usage:        0 bytes
  3385 ;; Hardware stack levels used:    1
  3386 ;; Hardware stack levels required when called:    2
  3387 ;; This function calls:
  3388 ;;		Nothing
  3389 ;; This function is called by:
  3390 ;;		_InitDevices
  3391 ;; This function uses a non-reentrant model
  3392 ;;
  3393                           psect	text720
  3394                           	file	"InitDevices.c"
  3395                           	line	27
  3396                           	global	__size_of_systemOSC
  3397  0005                     	__size_of_systemOSC	equ	__end_of_systemOSC-_systemOSC
  3398                           	
  3399  05C7                     _systemOSC:	
  3400                           	opt	stack 4
  3401                           ; Regs used in _systemOSC: [wreg]
  3402                           	line	28
  3403                           	
  3404  05C7                     l9298:	
  3405                           ;InitDevices.c: 28: OSCCON = 0X71;
  3406  05C7  3071               	movlw	(071h)
  3407  05C8  1683               	bsf	status, 5	;RP0=1, select bank1
  3408  05C9  1303               	bcf	status, 6	;RP1=0, select bank1
  3409  05CA  008F               	movwf	(143)^080h	;volatile
  3410                           	line	29
  3411                           	
  3412  05CB                     l967:	
  3413  05CB  0008               	return
  3414                           	opt stack 0
  3415                           GLOBAL	__end_of_systemOSC
  3416  05CC                     	__end_of_systemOSC:
  3417 ;; =============== function _systemOSC ends ============
  3418                           
  3419                           	signat	_systemOSC,88
  3420                           	global	_com
  3421                           psect	text721,local,class=CODE,delta=2
  3422                           global __ptext721
  3423  0485                     __ptext721:
  3424                           
  3425 ;; *************** function _com *****************
  3426 ;; Defined at:
  3427 ;;		line 5 in file "Interrupt.c"
  3428 ;; Parameters:    Size  Location     Type
  3429 ;;		None
  3430 ;; Auto vars:     Size  Location     Type
  3431 ;;		None
  3432 ;; Return value:  Size  Location     Type
  3433 ;;		None               void
  3434 ;; Registers used:
  3435 ;;		wreg, status,2, status,0, pclath, cstack
  3436 ;; Tracked objects:
  3437 ;;		On entry : 0/0
  3438 ;;		On exit  : 0/0
  3439 ;;		Unchanged: 0/0
  3440 ;; Data sizes:     COMMON   BANK0   BANK1   BANK3   BANK2
  3441 ;;      Params:         0       0       0       0       0
  3442 ;;      Locals:         0       0       0       0       0
  3443 ;;      Temps:          4       0       0       0       0
  3444 ;;      Totals:         4       0       0       0       0
  3445 ;;Total ram usage:        4 bytes
  3446 ;; Hardware stack levels used:    1
  3447 ;; Hardware stack levels required when called:    1
  3448 ;; This function calls:
  3449 ;;		_RBCN_int
  3450 ;;		_TMR2_int
  3451 ;;		_TMR1_int
  3452 ;; This function is called by:
  3453 ;;		Interrupt level 1
  3454 ;; This function uses a non-reentrant model
  3455 ;;
  3456                           psect	text721
  3457                           	file	"Interrupt.c"
  3458                           	line	5
  3459                           	global	__size_of_com
  3460  002F                     	__size_of_com	equ	__end_of_com-_com
  3461                           	
  3462  0485                     _com:	
  3463                           	opt	stack 3
  3464                           ; Regs used in _com: [wreg+status,2+status,0+pclath+cstack]
  3465                           psect	intentry,class=CODE,delta=2
  3466                           global __pintentry
  3467  0004                     __pintentry:
  3468                           global interrupt_function
  3469  0004                     interrupt_function:
  3470                           	global saved_w
  3471  007E                     	saved_w	set	btemp+0
  3472  0004  00FE               	movwf	saved_w
  3473  0005  0E03               	swapf	status,w
  3474  0006  00F2               	movwf	(??_com+0)
  3475  0007  0804               	movf	fsr0,w
  3476  0008  00F3               	movwf	(??_com+1)
  3477  0009  080A               	movf	pclath,w
  3478  000A  00F4               	movwf	(??_com+2)
  3479  000B  1283               	bcf	status, 5	;RP0=0, select bank0
  3480  000C  1303               	bcf	status, 6	;RP1=0, select bank0
  3481  000D  087F               	movf	btemp+1,w
  3482  000E  00F5               	movwf	(??_com+3)
  3483  000F  120A  118A  2C85   	ljmp	_com
  3484                           psect	text721
  3485                           	line	6
  3486                           	
  3487  0485                     i1l8850:	
  3488                           ;Interrupt.c: 6: if(RBIF)
  3489  0485  1C0B               	btfss	(88/8),(88)&7
  3490  0486  2C88               	goto	u286_21
  3491  0487  2C89               	goto	u286_20
  3492  0488                     u286_21:
  3493  0488  2C8F               	goto	i1l8854
  3494  0489                     u286_20:
  3495                           	line	8
  3496                           	
  3497  0489                     i1l8852:	
  3498                           ;Interrupt.c: 7: {
  3499                           ;Interrupt.c: 8: RBCN_int();
  3500  0489  120A  118A  2522   	fcall	_RBCN_int
              120A  118A         
  3501  048E  2C8F               	goto	i1l8854
  3502                           	line	9
  3503                           	
  3504  048F                     i1l2018:	
  3505                           	line	10
  3506                           	
  3507  048F                     i1l8854:	
  3508                           ;Interrupt.c: 9: }
  3509                           ;Interrupt.c: 10: if(TMR2IF)
  3510  048F  1283               	bcf	status, 5	;RP0=0, select bank0
  3511  0490  1303               	bcf	status, 6	;RP1=0, select bank0
  3512  0491  1C8C               	btfss	(97/8),(97)&7
  3513  0492  2C94               	goto	u287_21
  3514  0493  2C95               	goto	u287_20
  3515  0494                     u287_21:
  3516  0494  2C9B               	goto	i1l8858
  3517  0495                     u287_20:
  3518                           	line	12
  3519                           	
  3520  0495                     i1l8856:	
  3521                           ;Interrupt.c: 11: {
  3522                           ;Interrupt.c: 12: TMR2_int();
  3523  0495  120A  118A  2544   	fcall	_TMR2_int
              120A  118A         
  3524  049A  2C9B               	goto	i1l8858
  3525                           	line	13
  3526                           	
  3527  049B                     i1l2019:	
  3528                           	line	14
  3529                           	
  3530  049B                     i1l8858:	
  3531                           ;Interrupt.c: 13: }
  3532                           ;Interrupt.c: 14: if(TMR1IF)
  3533  049B  1283               	bcf	status, 5	;RP0=0, select bank0
  3534  049C  1303               	bcf	status, 6	;RP1=0, select bank0
  3535  049D  1C0C               	btfss	(96/8),(96)&7
  3536  049E  2CA0               	goto	u288_21
  3537  049F  2CA1               	goto	u288_20
  3538  04A0                     u288_21:
  3539  04A0  2CA7               	goto	i1l2021
  3540  04A1                     u288_20:
  3541                           	line	16
  3542                           	
  3543  04A1                     i1l8860:	
  3544                           ;Interrupt.c: 15: {
  3545                           ;Interrupt.c: 16: TMR1_int();
  3546  04A1  120A  118A  2330   	fcall	_TMR1_int
              120A  118A         
  3547  04A6  2CA7               	goto	i1l2021
  3548                           	line	17
  3549                           	
  3550  04A7                     i1l2020:	
  3551                           	line	23
  3552                           	
  3553  04A7                     i1l2021:	
  3554  04A7  0875               	movf	(??_com+3),w
  3555  04A8  1283               	bcf	status, 5	;RP0=0, select bank0
  3556  04A9  1303               	bcf	status, 6	;RP1=0, select bank0
  3557  04AA  00FF               	movwf	btemp+1
  3558  04AB  0874               	movf	(??_com+2),w
  3559  04AC  008A               	movwf	pclath
  3560  04AD  0873               	movf	(??_com+1),w
  3561  04AE  0084               	movwf	fsr0
  3562  04AF  0E72               	swapf	(??_com+0)^0FFFFFF80h,w
  3563  04B0  0083               	movwf	status
  3564  04B1  0EFE               	swapf	saved_w,f
  3565  04B2  0E7E               	swapf	saved_w,w
  3566  04B3  0009               	retfie
  3567                           	opt stack 0
  3568                           GLOBAL	__end_of_com
  3569  04B4                     	__end_of_com:
  3570 ;; =============== function _com ends ============
  3571                           
  3572                           	signat	_com,88
  3573                           	global	_TMR1_int
  3574                           psect	text722,local,class=CODE,delta=2
  3575                           global __ptext722
  3576  0330                     __ptext722:
  3577                           
  3578 ;; *************** function _TMR1_int *****************
  3579 ;; Defined at:
  3580 ;;		line 50 in file "Interrupt.c"
  3581 ;; Parameters:    Size  Location     Type
  3582 ;;		None
  3583 ;; Auto vars:     Size  Location     Type
  3584 ;;  t               1    1[COMMON] unsigned char 
  3585 ;;  i               1    0        unsigned char 
  3586 ;; Return value:  Size  Location     Type
  3587 ;;		None               void
  3588 ;; Registers used:
  3589 ;;		wreg, status,2, status,0
  3590 ;; Tracked objects:
  3591 ;;		On entry : 0/0
  3592 ;;		On exit  : 0/0
  3593 ;;		Unchanged: 0/0
  3594 ;; Data sizes:     COMMON   BANK0   BANK1   BANK3   BANK2
  3595 ;;      Params:         0       0       0       0       0
  3596 ;;      Locals:         1       0       0       0       0
  3597 ;;      Temps:          1       0       0       0       0
  3598 ;;      Totals:         2       0       0       0       0
  3599 ;;Total ram usage:        2 bytes
  3600 ;; Hardware stack levels used:    1
  3601 ;; This function calls:
  3602 ;;		Nothing
  3603 ;; This function is called by:
  3604 ;;		_com
  3605 ;; This function uses a non-reentrant model
  3606 ;;
  3607                           psect	text722
  3608                           	file	"Interrupt.c"
  3609                           	line	50
  3610                           	global	__size_of_TMR1_int
  3611  00C5                     	__size_of_TMR1_int	equ	__end_of_TMR1_int-_TMR1_int
  3612                           	
  3613  0330                     _TMR1_int:	
  3614                           	opt	stack 3
  3615                           ; Regs used in _TMR1_int: [wreg+status,2+status,0]
  3616                           	line	52
  3617                           	
  3618  0330                     i1l8888:	
  3619                           ;Interrupt.c: 51: unsigned char t,i;
  3620                           ;Interrupt.c: 52: t = TMR1IF;
  3621  0330  3000               	movlw	0
  3622  0331  1283               	bcf	status, 5	;RP0=0, select bank0
  3623  0332  1303               	bcf	status, 6	;RP1=0, select bank0
  3624  0333  180C               	btfsc	(96/8),(96)&7
  3625  0334  3001               	movlw	1
  3626  0335  00F0               	movwf	(??_TMR1_int+0)+0
  3627  0336  0870               	movf	(??_TMR1_int+0)+0,w
  3628  0337  00F1               	movwf	(TMR1_int@t)
  3629                           	line	53
  3630                           	
  3631  0338                     i1l8890:	
  3632                           ;Interrupt.c: 53: TMR1IF =0;
  3633  0338  100C               	bcf	(96/8),(96)&7
  3634                           	line	54
  3635                           ;Interrupt.c: 54: TMR1=15536;
  3636  0339  30B0               	movlw	low(03CB0h)
  3637  033A  008E               	movwf	(14)	;volatile
  3638  033B  303C               	movlw	high(03CB0h)
  3639  033C  008F               	movwf	((14))+1	;volatile
  3640                           	line	80
  3641                           	
  3642  033D                     i1l8892:	
  3643                           ;Interrupt.c: 80: if((PORTAbits.RA1 == 0) && (Not_two == 1) && (Forbid_input == 0))
  3644  033D  1885               	btfsc	(5),1	;volatile
  3645  033E  2B40               	goto	u291_21
  3646  033F  2B41               	goto	u291_20
  3647  0340                     u291_21:
  3648  0340  2B71               	goto	i1l8914
  3649  0341                     u291_20:
  3650                           	
  3651  0341                     i1l8894:	
  3652  0341  0879               	movf	(_Not_two),w
  3653  0342  3A01               	xorlw	01h
  3654  0343  1D03               	skipz
  3655  0344  2B46               	goto	u292_21
  3656  0345  2B47               	goto	u292_20
  3657  0346                     u292_21:
  3658  0346  2B71               	goto	i1l8914
  3659  0347                     u292_20:
  3660                           	
  3661  0347                     i1l8896:	
  3662  0347  08B3               	movf	(_Forbid_input),f
  3663  0348  1D03               	skipz
  3664  0349  2B4B               	goto	u293_21
  3665  034A  2B4C               	goto	u293_20
  3666  034B                     u293_21:
  3667  034B  2B71               	goto	i1l8914
  3668  034C                     u293_20:
  3669                           	line	82
  3670                           	
  3671  034C                     i1l8898:	
  3672                           ;Interrupt.c: 81: {
  3673                           ;Interrupt.c: 82: if(PORTBbits.RB1 == 1) Key_Up = 0;
  3674  034C  1C86               	btfss	(6),1	;volatile
  3675  034D  2B4F               	goto	u294_21
  3676  034E  2B50               	goto	u294_20
  3677  034F                     u294_21:
  3678  034F  2B51               	goto	i1l2025
  3679  0350                     u294_20:
  3680                           	
  3681  0350                     i1l8900:	
  3682  0350  01B6               	clrf	(_Key_Up)
  3683                           	
  3684  0351                     i1l2025:	
  3685                           	line	83
  3686                           ;Interrupt.c: 83: if((PORTBbits.RB1 == 0) && (Key_Up == 0))
  3687  0351  1886               	btfsc	(6),1	;volatile
  3688  0352  2B54               	goto	u295_21
  3689  0353  2B55               	goto	u295_20
  3690  0354                     u295_21:
  3691  0354  2B6E               	goto	i1l2026
  3692  0355                     u295_20:
  3693                           	
  3694  0355                     i1l8902:	
  3695  0355  08B6               	movf	(_Key_Up),f
  3696  0356  1D03               	skipz
  3697  0357  2B59               	goto	u296_21
  3698  0358  2B5A               	goto	u296_20
  3699  0359                     u296_21:
  3700  0359  2B6E               	goto	i1l2026
  3701  035A                     u296_20:
  3702                           	line	85
  3703                           	
  3704  035A                     i1l8904:	
  3705                           ;Interrupt.c: 84: {
  3706                           ;Interrupt.c: 85: Key_Run_times++;
  3707  035A  3001               	movlw	(01h)
  3708  035B  00F0               	movwf	(??_TMR1_int+0)+0
  3709  035C  0870               	movf	(??_TMR1_int+0)+0,w
  3710  035D  07F8               	addwf	(_Key_Run_times),f
  3711                           	line	86
  3712                           	
  3713  035E                     i1l8906:	
  3714                           ;Interrupt.c: 86: if(Key_Run_times == 40)
  3715  035E  0878               	movf	(_Key_Run_times),w
  3716  035F  3A28               	xorlw	028h
  3717  0360  1D03               	skipz
  3718  0361  2B63               	goto	u297_21
  3719  0362  2B64               	goto	u297_20
  3720  0363                     u297_21:
  3721  0363  2B71               	goto	i1l8914
  3722  0364                     u297_20:
  3723                           	line	88
  3724                           	
  3725  0364                     i1l8908:	
  3726                           ;Interrupt.c: 87: {
  3727                           ;Interrupt.c: 88: Key_Run++;
  3728  0364  3001               	movlw	(01h)
  3729  0365  00F0               	movwf	(??_TMR1_int+0)+0
  3730  0366  0870               	movf	(??_TMR1_int+0)+0,w
  3731  0367  07B5               	addwf	(_Key_Run),f
  3732                           	line	89
  3733                           	
  3734  0368                     i1l8910:	
  3735                           ;Interrupt.c: 89: Key_Run_times = 0;
  3736  0368  01F8               	clrf	(_Key_Run_times)
  3737                           	line	90
  3738                           	
  3739  0369                     i1l8912:	
  3740                           ;Interrupt.c: 90: Key_Up = 1;
  3741  0369  01B6               	clrf	(_Key_Up)
  3742  036A  1403               	bsf	status,0
  3743  036B  0DB6               	rlf	(_Key_Up),f
  3744  036C  2B71               	goto	i1l8914
  3745                           	line	91
  3746                           	
  3747  036D                     i1l2027:	
  3748                           	line	92
  3749                           ;Interrupt.c: 91: }
  3750                           ;Interrupt.c: 92: } else Key_Run_times = 0;
  3751  036D  2B71               	goto	i1l8914
  3752                           	
  3753  036E                     i1l2026:	
  3754  036E  01F8               	clrf	(_Key_Run_times)
  3755  036F  2B71               	goto	i1l8914
  3756                           	
  3757  0370                     i1l2028:	
  3758  0370  2B71               	goto	i1l8914
  3759                           	line	93
  3760                           	
  3761  0371                     i1l2024:	
  3762                           	line	95
  3763                           	
  3764  0371                     i1l8914:	
  3765                           ;Interrupt.c: 93: }
  3766                           ;Interrupt.c: 95: if(Work_Flag == 0)
  3767  0371  08FA               	movf	(_Work_Flag),f
  3768  0372  1D03               	skipz
  3769  0373  2B75               	goto	u298_21
  3770  0374  2B76               	goto	u298_20
  3771  0375                     u298_21:
  3772  0375  2B9B               	goto	i1l8932
  3773  0376                     u298_20:
  3774                           	line	97
  3775                           	
  3776  0376                     i1l8916:	
  3777                           ;Interrupt.c: 96: {
  3778                           ;Interrupt.c: 97: if(PORTCbits.RC1 == 1) Onekey_Key_Up = 0;
  3779  0376  1C87               	btfss	(7),1	;volatile
  3780  0377  2B79               	goto	u299_21
  3781  0378  2B7A               	goto	u299_20
  3782  0379                     u299_21:
  3783  0379  2B7B               	goto	i1l2030
  3784  037A                     u299_20:
  3785                           	
  3786  037A                     i1l8918:	
  3787  037A  01B9               	clrf	(_Onekey_Key_Up)
  3788                           	
  3789  037B                     i1l2030:	
  3790                           	line	98
  3791                           ;Interrupt.c: 98: if((PORTCbits.RC1 == 0) && (Onekey_Key_Up == 0))
  3792  037B  1887               	btfsc	(7),1	;volatile
  3793  037C  2B7E               	goto	u300_21
  3794  037D  2B7F               	goto	u300_20
  3795  037E                     u300_21:
  3796  037E  2B98               	goto	i1l2031
  3797  037F                     u300_20:
  3798                           	
  3799  037F                     i1l8920:	
  3800  037F  08B9               	movf	(_Onekey_Key_Up),f
  3801  0380  1D03               	skipz
  3802  0381  2B83               	goto	u301_21
  3803  0382  2B84               	goto	u301_20
  3804  0383                     u301_21:
  3805  0383  2B98               	goto	i1l2031
  3806  0384                     u301_20:
  3807                           	line	100
  3808                           	
  3809  0384                     i1l8922:	
  3810                           ;Interrupt.c: 99: {
  3811                           ;Interrupt.c: 100: Onekey_times++;
  3812  0384  3001               	movlw	(01h)
  3813  0385  00F0               	movwf	(??_TMR1_int+0)+0
  3814  0386  0870               	movf	(??_TMR1_int+0)+0,w
  3815  0387  07BA               	addwf	(_Onekey_times),f
  3816                           	line	101
  3817                           	
  3818  0388                     i1l8924:	
  3819                           ;Interrupt.c: 101: if(Onekey_times == 40)
  3820  0388  083A               	movf	(_Onekey_times),w
  3821  0389  3A28               	xorlw	028h
  3822  038A  1D03               	skipz
  3823  038B  2B8D               	goto	u302_21
  3824  038C  2B8E               	goto	u302_20
  3825  038D                     u302_21:
  3826  038D  2B9B               	goto	i1l8932
  3827  038E                     u302_20:
  3828                           	line	103
  3829                           	
  3830  038E                     i1l8926:	
  3831                           ;Interrupt.c: 102: {
  3832                           ;Interrupt.c: 103: Onekey_Flag++;
  3833  038E  3001               	movlw	(01h)
  3834  038F  00F0               	movwf	(??_TMR1_int+0)+0
  3835  0390  0870               	movf	(??_TMR1_int+0)+0,w
  3836  0391  07B8               	addwf	(_Onekey_Flag),f
  3837                           	line	104
  3838                           	
  3839  0392                     i1l8928:	
  3840                           ;Interrupt.c: 104: Onekey_times =0;
  3841  0392  01BA               	clrf	(_Onekey_times)
  3842                           	line	105
  3843                           	
  3844  0393                     i1l8930:	
  3845                           ;Interrupt.c: 105: Onekey_Key_Up = 1;
  3846  0393  01B9               	clrf	(_Onekey_Key_Up)
  3847  0394  1403               	bsf	status,0
  3848  0395  0DB9               	rlf	(_Onekey_Key_Up),f
  3849  0396  2B9B               	goto	i1l8932
  3850                           	line	106
  3851                           	
  3852  0397                     i1l2032:	
  3853                           	line	107
  3854                           ;Interrupt.c: 106: }
  3855                           ;Interrupt.c: 107: } else Onekey_times = 0;
  3856  0397  2B9B               	goto	i1l8932
  3857                           	
  3858  0398                     i1l2031:	
  3859  0398  01BA               	clrf	(_Onekey_times)
  3860  0399  2B9B               	goto	i1l8932
  3861                           	
  3862  039A                     i1l2033:	
  3863  039A  2B9B               	goto	i1l8932
  3864                           	line	108
  3865                           	
  3866  039B                     i1l2029:	
  3867                           	line	110
  3868                           	
  3869  039B                     i1l8932:	
  3870                           ;Interrupt.c: 108: }
  3871                           ;Interrupt.c: 110: if(Open_Cover_Flag == 1)
  3872  039B  083B               	movf	(_Open_Cover_Flag),w
  3873  039C  3A01               	xorlw	01h
  3874  039D  1D03               	skipz
  3875  039E  2BA0               	goto	u303_21
  3876  039F  2BA1               	goto	u303_20
  3877  03A0                     u303_21:
  3878  03A0  2BA7               	goto	i1l2034
  3879  03A1                     u303_20:
  3880                           	line	112
  3881                           	
  3882  03A1                     i1l8934:	
  3883                           ;Interrupt.c: 111: {
  3884                           ;Interrupt.c: 112: Open_Cover_times++;
  3885  03A1  3001               	movlw	low(01h)
  3886  03A2  07AC               	addwf	(_Open_Cover_times),f
  3887  03A3  1803               	skipnc
  3888  03A4  0AAD               	incf	(_Open_Cover_times+1),f
  3889  03A5  3000               	movlw	high(01h)
  3890  03A6  07AD               	addwf	(_Open_Cover_times+1),f
  3891                           	line	113
  3892                           	
  3893  03A7                     i1l2034:	
  3894                           	line	115
  3895                           ;Interrupt.c: 113: }
  3896                           ;Interrupt.c: 115: if(Count_Flag == 1)
  3897  03A7  0876               	movf	(_Count_Flag),w
  3898  03A8  3A01               	xorlw	01h
  3899  03A9  1D03               	skipz
  3900  03AA  2BAC               	goto	u304_21
  3901  03AB  2BAD               	goto	u304_20
  3902  03AC                     u304_21:
  3903  03AC  2BEF               	goto	i1l8950
  3904  03AD                     u304_20:
  3905                           	line	117
  3906                           	
  3907  03AD                     i1l8936:	
  3908                           ;Interrupt.c: 116: {
  3909                           ;Interrupt.c: 117: Flag_working_time++;
  3910  03AD  3001               	movlw	low(01h)
  3911  03AE  07AA               	addwf	(_Flag_working_time),f
  3912  03AF  1803               	skipnc
  3913  03B0  0AAB               	incf	(_Flag_working_time+1),f
  3914  03B1  3000               	movlw	high(01h)
  3915  03B2  07AB               	addwf	(_Flag_working_time+1),f
  3916                           	line	118
  3917                           ;Interrupt.c: 118: if((Flag_working_time >= 6000) )
  3918  03B3  3017               	movlw	high(01770h)
  3919  03B4  022B               	subwf	(_Flag_working_time+1),w
  3920  03B5  3070               	movlw	low(01770h)
  3921  03B6  1903               	skipnz
  3922  03B7  022A               	subwf	(_Flag_working_time),w
  3923  03B8  1C03               	skipc
  3924  03B9  2BBB               	goto	u305_21
  3925  03BA  2BBC               	goto	u305_20
  3926  03BB                     u305_21:
  3927  03BB  2BC5               	goto	i1l8942
  3928  03BC                     u305_20:
  3929                           	line	120
  3930                           	
  3931  03BC                     i1l8938:	
  3932                           ;Interrupt.c: 119: {
  3933                           ;Interrupt.c: 120: Start_Flag = 1;
  3934  03BC  01BC               	clrf	(_Start_Flag)
  3935  03BD  1403               	bsf	status,0
  3936  03BE  0DBC               	rlf	(_Start_Flag),f
  3937                           	line	121
  3938                           ;Interrupt.c: 121: Stop_Flag = 1;
  3939  03BF  01BE               	clrf	(_Stop_Flag)
  3940  03C0  1403               	bsf	status,0
  3941  03C1  0DBE               	rlf	(_Stop_Flag),f
  3942                           	line	122
  3943                           	
  3944  03C2                     i1l8940:	
  3945                           ;Interrupt.c: 122: Flag_working_time = 0;
  3946  03C2  01AA               	clrf	(_Flag_working_time)
  3947  03C3  01AB               	clrf	(_Flag_working_time+1)
  3948  03C4  2BC5               	goto	i1l8942
  3949                           	line	123
  3950                           	
  3951  03C5                     i1l2036:	
  3952                           	line	124
  3953                           	
  3954  03C5                     i1l8942:	
  3955                           ;Interrupt.c: 123: }
  3956                           ;Interrupt.c: 124: if(Flag_working_time > 400)
  3957  03C5  3001               	movlw	high(0191h)
  3958  03C6  022B               	subwf	(_Flag_working_time+1),w
  3959  03C7  3091               	movlw	low(0191h)
  3960  03C8  1903               	skipnz
  3961  03C9  022A               	subwf	(_Flag_working_time),w
  3962  03CA  1C03               	skipc
  3963  03CB  2BCD               	goto	u306_21
  3964  03CC  2BCE               	goto	u306_20
  3965  03CD                     u306_21:
  3966  03CD  2BEC               	goto	i1l2037
  3967  03CE                     u306_20:
  3968                           	line	126
  3969                           	
  3970  03CE                     i1l8944:	
  3971                           ;Interrupt.c: 125: {
  3972                           ;Interrupt.c: 126: Speed_LED_times++;
  3973  03CE  3001               	movlw	low(01h)
  3974  03CF  07B0               	addwf	(_Speed_LED_times),f
  3975  03D0  1803               	skipnc
  3976  03D1  0AB1               	incf	(_Speed_LED_times+1),f
  3977  03D2  3000               	movlw	high(01h)
  3978  03D3  07B1               	addwf	(_Speed_LED_times+1),f
  3979                           	line	127
  3980                           ;Interrupt.c: 127: if(Speed_LED_times == 20)
  3981  03D4  3014               	movlw	014h
  3982  03D5  0630               	xorwf	(_Speed_LED_times),w
  3983  03D6  0431               	iorwf	(_Speed_LED_times+1),w
  3984  03D7  1D03               	skipz
  3985  03D8  2BDA               	goto	u307_21
  3986  03D9  2BDB               	goto	u307_20
  3987  03DA                     u307_21:
  3988  03DA  2BED               	goto	i1l2039
  3989  03DB                     u307_20:
  3990                           	line	129
  3991                           	
  3992  03DB                     i1l8946:	
  3993                           ;Interrupt.c: 128: {
  3994                           ;Interrupt.c: 129: PORTBbits.RB0 = ~ PORTBbits.RB0;
  3995  03DB  1003               	clrc
  3996  03DC  1C06               	btfss	(6),0	;volatile
  3997  03DD  1403               	setc
  3998  03DE  1803               	btfsc	status,0
  3999  03DF  2BE1               	goto	u308_21
  4000  03E0  2BE5               	goto	u308_20
  4001                           	
  4002  03E1                     u308_21:
  4003  03E1  1283               	bcf	status, 5	;RP0=0, select bank0
  4004  03E2  1303               	bcf	status, 6	;RP1=0, select bank0
  4005  03E3  1406               	bsf	(6),0	;volatile
  4006  03E4  2BE8               	goto	u309_24
  4007  03E5                     u308_20:
  4008  03E5  1283               	bcf	status, 5	;RP0=0, select bank0
  4009  03E6  1303               	bcf	status, 6	;RP1=0, select bank0
  4010  03E7  1006               	bcf	(6),0	;volatile
  4011  03E8                     u309_24:
  4012                           	line	130
  4013                           	
  4014  03E8                     i1l8948:	
  4015                           ;Interrupt.c: 130: Speed_LED_times = 0;
  4016  03E8  01B0               	clrf	(_Speed_LED_times)
  4017  03E9  01B1               	clrf	(_Speed_LED_times+1)
  4018  03EA  2BED               	goto	i1l2039
  4019                           	line	131
  4020                           	
  4021  03EB                     i1l2038:	
  4022                           	line	132
  4023                           ;Interrupt.c: 131: }
  4024                           ;Interrupt.c: 132: }else PORTBbits.RB0 = 1;asm ("NOP");
  4025  03EB  2BED               	goto	i1l2039
  4026                           	
  4027  03EC                     i1l2037:	
  4028  03EC  1406               	bsf	(6),0	;volatile
  4029                           	
  4030  03ED                     i1l2039:	
  4031                           # 132 "Interrupt.c"
  4032  03ED  0000               NOP ;#
  4033                           psect	text722
  4034                           	line	133
  4035                           ;Interrupt.c: 133: } else Flag_working_time = 0;
  4036  03EE  2BF4               	goto	i1l2041
  4037                           	
  4038  03EF                     i1l2035:	
  4039                           	
  4040  03EF                     i1l8950:	
  4041  03EF  1283               	bcf	status, 5	;RP0=0, select bank0
  4042  03F0  1303               	bcf	status, 6	;RP1=0, select bank0
  4043  03F1  01AA               	clrf	(_Flag_working_time)
  4044  03F2  01AB               	clrf	(_Flag_working_time+1)
  4045  03F3  2BF4               	goto	i1l2041
  4046                           	
  4047  03F4                     i1l2040:	
  4048                           	line	134
  4049                           	
  4050  03F4                     i1l2041:	
  4051  03F4  0008               	return
  4052                           	opt stack 0
  4053                           GLOBAL	__end_of_TMR1_int
  4054  03F5                     	__end_of_TMR1_int:
  4055 ;; =============== function _TMR1_int ends ============
  4056                           
  4057                           	signat	_TMR1_int,88
  4058                           	global	_TMR2_int
  4059                           psect	text723,local,class=CODE,delta=2
  4060                           global __ptext723
  4061  0544                     __ptext723:
  4062                           
  4063 ;; *************** function _TMR2_int *****************
  4064 ;; Defined at:
  4065 ;;		line 136 in file "Interrupt.c"
  4066 ;; Parameters:    Size  Location     Type
  4067 ;;		None
  4068 ;; Auto vars:     Size  Location     Type
  4069 ;;		None
  4070 ;; Return value:  Size  Location     Type
  4071 ;;		None               void
  4072 ;; Registers used:
  4073 ;;		wreg, status,2
  4074 ;; Tracked objects:
  4075 ;;		On entry : 0/0
  4076 ;;		On exit  : 0/0
  4077 ;;		Unchanged: 0/0
  4078 ;; Data sizes:     COMMON   BANK0   BANK1   BANK3   BANK2
  4079 ;;      Params:         0       0       0       0       0
  4080 ;;      Locals:         0       0       0       0       0
  4081 ;;      Temps:          0       0       0       0       0
  4082 ;;      Totals:         0       0       0       0       0
  4083 ;;Total ram usage:        0 bytes
  4084 ;; Hardware stack levels used:    1
  4085 ;; This function calls:
  4086 ;;		Nothing
  4087 ;; This function is called by:
  4088 ;;		_com
  4089 ;; This function uses a non-reentrant model
  4090 ;;
  4091                           psect	text723
  4092                           	file	"Interrupt.c"
  4093                           	line	136
  4094                           	global	__size_of_TMR2_int
  4095  0019                     	__size_of_TMR2_int	equ	__end_of_TMR2_int-_TMR2_int
  4096                           	
  4097  0544                     _TMR2_int:	
  4098                           	opt	stack 3
  4099                           ; Regs used in _TMR2_int: [wreg+status,2]
  4100                           	line	137
  4101                           	
  4102  0544                     i1l8878:	
  4103                           ;Interrupt.c: 137: TMR2IF=0;
  4104  0544  1283               	bcf	status, 5	;RP0=0, select bank0
  4105  0545  1303               	bcf	status, 6	;RP1=0, select bank0
  4106  0546  108C               	bcf	(97/8),(97)&7
  4107                           	line	138
  4108                           	
  4109  0547                     i1l8880:	
  4110                           ;Interrupt.c: 138: TMR2=0;
  4111  0547  0191               	clrf	(17)	;volatile
  4112                           	line	139
  4113                           	
  4114  0548                     i1l8882:	
  4115                           ;Interrupt.c: 139: FG_Period_time++;
  4116  0548  3001               	movlw	low(01h)
  4117  0549  07A4               	addwf	(_FG_Period_time),f
  4118  054A  1803               	skipnc
  4119  054B  0AA5               	incf	(_FG_Period_time+1),f
  4120  054C  3000               	movlw	high(01h)
  4121  054D  07A5               	addwf	(_FG_Period_time+1),f
  4122                           	line	140
  4123                           	
  4124  054E                     i1l8884:	
  4125                           ;Interrupt.c: 140: if(FG_Period_time >=300) FG_Period_time = 300;
  4126  054E  3001               	movlw	high(012Ch)
  4127  054F  0225               	subwf	(_FG_Period_time+1),w
  4128  0550  302C               	movlw	low(012Ch)
  4129  0551  1903               	skipnz
  4130  0552  0224               	subwf	(_FG_Period_time),w
  4131  0553  1C03               	skipc
  4132  0554  2D56               	goto	u290_21
  4133  0555  2D57               	goto	u290_20
  4134  0556                     u290_21:
  4135  0556  2D5C               	goto	i1l2045
  4136  0557                     u290_20:
  4137                           	
  4138  0557                     i1l8886:	
  4139  0557  302C               	movlw	low(012Ch)
  4140  0558  00A4               	movwf	(_FG_Period_time)
  4141  0559  3001               	movlw	high(012Ch)
  4142  055A  00A5               	movwf	((_FG_Period_time))+1
  4143  055B  2D5C               	goto	i1l2045
  4144                           	
  4145  055C                     i1l2044:	
  4146                           	line	141
  4147                           	
  4148  055C                     i1l2045:	
  4149  055C  0008               	return
  4150                           	opt stack 0
  4151                           GLOBAL	__end_of_TMR2_int
  4152  055D                     	__end_of_TMR2_int:
  4153 ;; =============== function _TMR2_int ends ============
  4154                           
  4155                           	signat	_TMR2_int,88
  4156                           	global	_RBCN_int
  4157                           psect	text724,local,class=CODE,delta=2
  4158                           global __ptext724
  4159  0522                     __ptext724:
  4160                           
  4161 ;; *************** function _RBCN_int *****************
  4162 ;; Defined at:
  4163 ;;		line 143 in file "Interrupt.c"
  4164 ;; Parameters:    Size  Location     Type
  4165 ;;		None
  4166 ;; Auto vars:     Size  Location     Type
  4167 ;;  Sameple         1    1[COMMON] unsigned char 
  4168 ;; Return value:  Size  Location     Type
  4169 ;;		None               void
  4170 ;; Registers used:
  4171 ;;		wreg, status,2, status,0
  4172 ;; Tracked objects:
  4173 ;;		On entry : 0/0
  4174 ;;		On exit  : 0/0
  4175 ;;		Unchanged: 0/0
  4176 ;; Data sizes:     COMMON   BANK0   BANK1   BANK3   BANK2
  4177 ;;      Params:         0       0       0       0       0
  4178 ;;      Locals:         1       0       0       0       0
  4179 ;;      Temps:          1       0       0       0       0
  4180 ;;      Totals:         2       0       0       0       0
  4181 ;;Total ram usage:        2 bytes
  4182 ;; Hardware stack levels used:    1
  4183 ;; This function calls:
  4184 ;;		Nothing
  4185 ;; This function is called by:
  4186 ;;		_com
  4187 ;; This function uses a non-reentrant model
  4188 ;;
  4189                           psect	text724
  4190                           	file	"Interrupt.c"
  4191                           	line	143
  4192                           	global	__size_of_RBCN_int
  4193  0022                     	__size_of_RBCN_int	equ	__end_of_RBCN_int-_RBCN_int
  4194                           	
  4195  0522                     _RBCN_int:	
  4196                           	opt	stack 3
  4197                           ; Regs used in _RBCN_int: [wreg+status,2+status,0]
  4198                           	line	145
  4199                           	
  4200  0522                     i1l8862:	
  4201                           ;Interrupt.c: 144: unsigned char Sameple;
  4202                           ;Interrupt.c: 145: Sameple = PORTB;
  4203  0522  1283               	bcf	status, 5	;RP0=0, select bank0
  4204  0523  1303               	bcf	status, 6	;RP1=0, select bank0
  4205  0524  0806               	movf	(6),w	;volatile
  4206  0525  00F0               	movwf	(??_RBCN_int+0)+0
  4207  0526  0870               	movf	(??_RBCN_int+0)+0,w
  4208  0527  00F1               	movwf	(RBCN_int@Sameple)
  4209                           	line	146
  4210                           	
  4211  0528                     i1l8864:	
  4212                           ;Interrupt.c: 146: RBIF=0;
  4213  0528  100B               	bcf	(88/8),(88)&7
  4214                           	line	147
  4215                           	
  4216  0529                     i1l8866:	
  4217                           ;Interrupt.c: 147: FG_CN_Count++;
  4218  0529  3001               	movlw	(01h)
  4219  052A  00F0               	movwf	(??_RBCN_int+0)+0
  4220  052B  0870               	movf	(??_RBCN_int+0)+0,w
  4221  052C  07F7               	addwf	(_FG_CN_Count),f
  4222                           	line	148
  4223                           	
  4224  052D                     i1l8868:	
  4225                           ;Interrupt.c: 148: if(FG_CN_Count==3)
  4226  052D  0877               	movf	(_FG_CN_Count),w
  4227  052E  3A03               	xorlw	03h
  4228  052F  1D03               	skipz
  4229  0530  2D32               	goto	u289_21
  4230  0531  2D33               	goto	u289_20
  4231  0532                     u289_21:
  4232  0532  2D41               	goto	i1l2048
  4233  0533                     u289_20:
  4234                           	line	150
  4235                           	
  4236  0533                     i1l8870:	
  4237                           ;Interrupt.c: 149: {
  4238                           ;Interrupt.c: 150: FG_CN_Count=0;
  4239  0533  01F7               	clrf	(_FG_CN_Count)
  4240                           	line	151
  4241                           ;Interrupt.c: 151: TMR2ON=0;
  4242  0534  1112               	bcf	(146/8),(146)&7
  4243                           	line	152
  4244                           	
  4245  0535                     i1l8872:	
  4246                           ;Interrupt.c: 152: Flag_FG_Period=1;
  4247  0535  01CD               	clrf	(_Flag_FG_Period)
  4248  0536  1403               	bsf	status,0
  4249  0537  0DCD               	rlf	(_Flag_FG_Period),f
  4250                           	line	153
  4251                           	
  4252  0538                     i1l8874:	
  4253                           ;Interrupt.c: 153: Flag_FG_Period_time=FG_Period_time;
  4254  0538  0825               	movf	(_FG_Period_time+1),w
  4255  0539  01A7               	clrf	(_Flag_FG_Period_time+1)
  4256  053A  07A7               	addwf	(_Flag_FG_Period_time+1)
  4257  053B  0824               	movf	(_FG_Period_time),w
  4258  053C  01A6               	clrf	(_Flag_FG_Period_time)
  4259  053D  07A6               	addwf	(_Flag_FG_Period_time)
  4260                           
  4261                           	line	154
  4262                           	
  4263  053E                     i1l8876:	
  4264                           ;Interrupt.c: 154: FG_Period_time=0;
  4265  053E  01A4               	clrf	(_FG_Period_time)
  4266  053F  01A5               	clrf	(_FG_Period_time+1)
  4267                           	line	155
  4268                           ;Interrupt.c: 155: }
  4269  0540  2D43               	goto	i1l2050
  4270                           	line	156
  4271                           	
  4272  0541                     i1l2048:	
  4273                           	line	158
  4274                           ;Interrupt.c: 156: else
  4275                           ;Interrupt.c: 157: {
  4276                           ;Interrupt.c: 158: TMR2ON=1;
  4277  0541  1512               	bsf	(146/8),(146)&7
  4278  0542  2D43               	goto	i1l2050
  4279                           	line	159
  4280                           	
  4281  0543                     i1l2049:	
  4282                           	line	161
  4283                           	
  4284  0543                     i1l2050:	
  4285  0543  0008               	return
  4286                           	opt stack 0
  4287                           GLOBAL	__end_of_RBCN_int
  4288  0544                     	__end_of_RBCN_int:
  4289 ;; =============== function _RBCN_int ends ============
  4290                           
  4291                           	signat	_RBCN_int,88
  4292                           psect	text725,local,class=CODE,delta=2
  4293                           global __ptext725
  4294  0000                     __ptext725:
  4295                           	global	btemp
  4296  007E                     	btemp set 07Eh
  4297                           
  4298                           	DABS	1,126,2	;btemp
  4299                           	global	wtemp0
  4300  007E                     	wtemp0 set btemp


HI-TECH Software PICC Macro Assembler V9.82 build 9453 
Symbol Table                                                                                   Wed Nov 20 13:35:01 2019

                            _GO 00F9                              _RD 0C60                              _WR 0C61  
                            fsr 0004                             l970 0573                             l982 0599  
                           l967 05CB                             l991 0521                             l976 05A9  
                           l985 05B7                             _GIE 005F                             l988 05C6  
                           _PR2 0092                             _PEN 048A                             _SEN 0488  
                           _kai 0042                             _com 0485                             fsr0 0004  
                           indf 0000                   _Key_Run_times 0078                            l3070 0033  
                          l3071 003E                            l3080 00EB                            l3072 003D  
                          l3081 0119                            l3073 0059                            l3090 014E  
                          l3082 0118                            l3074 0088                            l3091 014E  
                          l3075 014C                            l3083 0106                            l3076 011A  
                          l3084 0117                            l3085 014B                            l3077 00D5  
                          l3069 0023                            l5102 0479                            l3094 04FD  
                          l3086 014A                            l3078 009A                            l5103 0456  
                          l3087 0138                            l3079 00DA                            ?_com 0070  
                          l5104 0463                            l3088 0149                            l5105 0473  
                          l3089 014D                            l5106 0484                            l4090 03F6  
                          l5107 0484                            l4091 03FD                            l4092 0427  
                          l4093 044F                            l4094 0450                            l4086 024F  
                          l5080 02A6                            l5081 02CE                            l5073 0270  
                          l4089 03F7                            l5090 030D                            l5082 02B7  
                          l5074 025A                            l5091 0323                            l5083 02CE  
                          l5075 0270                            l5092 032A                            l5084 02D5  
                          l5076 0277                            l5093 032F                            l5085 02FD  
                          l5077 029F                            l5086 02E6                            l5078 0288  
                          l5087 02FD                            l5079 029F                            l5096 057E  
                          l5088 0304                            l5097 0575                            l5089 0323  
                          l5098 0587                            l5099 0587                            _ADIE 0466  
                          _ADIF 0066                            l9300 055D                            l9310 0570  
                          l9302 0561                            l9304 0567                            l9312 059A  
                          l9320 0588                            l9400 057E                            l9306 0569  
                          l9314 059E                            l9330 0592                            l9322 058B  
                          l9402 04FE                            l9410 0253                            l9308 056C  
                          l9316 05A4                            l9332 0595                            l9324 058C  
                          l9340 05B2                            l9404 051C                            l9420 026F  
                          l9412 0255                            l9500 04FB                            l9318 05A7  
                          l9334 0598                            l9326 058D                            l9342 05B3  
                          l9350 05C5                            l9406 051D                            l9430 0288  
                          l9422 0277                            l9414 0256                            l9502 04FC  
                          l9510 0408                            l9328 058E                            l9344 05B6  
                          l9336 05AA                            l9360 0463                            l9352 0451  
                          l9408 0520                            l9440 02AB                            l9432 0290  
                          l9424 027B                            l9416 025A                            l9512 0410  
                          l9520 0427                            l9504 03F5                            l9600 0066  
                          l9338 05AE                            l9346 05C0                            l9362 0473  
                          l9354 0456                            l9450 02D5                            l9442 02AD  
                          l9434 029E                            l9426 027C                            l9418 0261  
                          l9530 044A                            l9522 0430                            l9514 0414  
                          l9506 03F7                            l9610 007A                            l9602 0068  
                          l9348 05C4                            l9356 0458                            l9460 02EE  
                          l9452 02D9                            l9444 02B7                            l9436 02A6  
                          l9428 027E                            l9524 0438                            l9532 044F  
                          l9516 0418                            l9508 03FF                            l9540 017F  
                          l9620 0083                            l9612 007B                            l9604 0073  
                          _ADON 00F8                            l9358 0462                            l9470 030D  
                          l9462 02FC                            l9454 02DA                            l9446 02BF  
                          l9438 02AA                            l9526 043C                            l9518 0422  
                          l9550 01D0                            l9542 018B                            l9534 0151  
                          l9630 0099                            l9622 0084                            l9614 007E  
                          l9606 0076                            l9472 0314                            l9464 0304  
                          l9456 02DC                            l9448 02CD                            l9480 04D9  
                          l9528 0440                            l9560 022C                            l9552 01E7  
                          l9544 01A2                            l9536 015D                            l9640 00C1  
                          l9632 009A                            l9616 007F                            l9608 0077  
                          l9624 0088                            l9298 05C7                            l9474 0322  
                          l9466 0308                            l9458 02E6                            l9490 04E8  
                          l9482 04E0                            l9562 0237                            l9554 01F2  
                          l9546 01AD                            l9538 0168                            l9650 00EB  
                          l9634 00A0                            l9642 00D5                            l9626 008C  
                          l9618 0082                            l9570 001A                            l9396 0574  
                          l9476 032A                            l9468 0309                            l9492 04E9  
                          l9484 04E4                            l9564 024B                            l9556 0209  
                          l9548 01C4                            l9660 0107                            l9652 00F3  
                          l9644 00DA                            l9636 00AA                            l9628 0092  
                          l9580 0028                            l9572 001D                            l9398 0575  
                          l9478 032E                            l9494 04F4                            l9486 04E5  
                          l9566 024E                            l9558 0215                            l9670 0132  
                          l9662 0111                            l9654 00FB                            l9646 00DF  
                          l9638 00B5                            l9590 0046                            l9582 002E  
                          l9574 001E                            l9496 04F7                            l9488 04E7  
                          l9672 0138                            l9656 0100                            l9648 00E5  
                          l9664 011A                            l9592 004B                            l9584 0033  
                          l9576 0021                            l9568 0015                            l9498 04F8  
                          l9674 0139                            l9666 0122                            l9658 0106  
                          l9594 0055                            l9586 003A                            l9578 0023  
                          l9676 0143                            l9668 012D                            l9596 0059  
                          l9588 003E                            l9598 0061                            _T0IE 005D  
                          _IOCB 0096                            u3500 0472                            u3501 0471  
                          u3510 0483                            u3511 0482                            u3600 02FB  
                          u3601 02FA                            u3530 0586                            u3610 0303  
                          u3515 047F                            u3531 0585                            u3611 0302  
                          u3620 0321                            u3540 026E                            u3700 0046  
                          u3621 0320                            u3605 02F7                            u3541 026D  
                          u3701 0045                            u3630 0329                            u3550 0276  
                          u3710 004B                            u3631 0328                            u3551 0275  
                          u3711 004A                            u3560 029D                            u3640 03FD  
                          u3800 00F3                            u3720 0061                            u3625 031D  
                          u3561 029C                            u3545 026A                            u3801 00F2  
                          u3721 0060                            u3490 0461                            u3570 02A5  
                          u3650 0408                            u3810 00FB                            u3730 0066  
                          u3491 0460                            u3571 02A4                            u3651 0407  
                          u3811 00FA                            u3731 0065                            _PEIE 005E  
                          u3580 02CC                            u3660 0430                            u3820 0111  
                          u3740 008C                            u3581 02CB                            u3565 0299  
                          u3661 042F                            u3821 0110                            u3741 008B  
                          u3590 02D4                            u3830 0122                            u3750 0092  
                          u3670 0028                            u3591 02D3                            u3831 0121  
                          u3751 0091                            u3671 0027                            _RBIE 005B  
                          u3840 012D                            u3760 0098                            u3680 002E  
                          _RBIF 0058                            u3585 02C8                            u3841 012C  
                          u3825 010D                            u3761 0097                            u3681 002D  
                          u3850 0143                            u3770 00D9                            u3690 003A  
                          u3851 0142                            u3691 0039                            u3780 00DF  
                          u3781 00DE                            u3790 00E5                            u3855 013F  
                          u3791 00E4                            _TMR0 0001                            _TMR1 000E  
                          _TMR2 0011                            _WREN 0C62                            _VOLT 004B  
                          _Once 0037                            _main 0015                   ??_InitDevices 0044  
                          btemp 007E              _REALVOLTAGE_BAT_DC 002E                            start 0012  
                         ??_com 0072                __end_of_IIC_init 05AA                           ?_main 0070  
                         _EEADR 010D                           _CARRY 0018                __end_of_RBCN_int 0544  
                         _ANSEL 0188                           _T1CON 0010                           _T2CON 0012  
         _Motor_adjusting_speed 03F5                           _PORTA 0005                           _PORTB 0006  
                         _PORTC 0007                           _TRISA 0085                           _TRISB 0086  
                         _TRISC 0087                           _SSPIF 0063                           _Delay 0574  
                         _adsum 0041                __end_of_TMR1_int 03F5                __end_of_TMR2_int 055D  
                __pbitbssCOMMON 03D8                           pclath 000A                      _Count_Flag 0076  
                         status 0003                           wtemp0 007E                      _InitTimer1 0588  
                    _InitTimer2 05AA                    __end_of_main 0151             __end_of_InitDevices 0522  
                        ??_main 004A                          ?_Delay 0043                __end_of_PortInit 0574  
                        _ADCON0 001F                          _ADCON1 009F                          _ADRESH 001E  
                        _ADRESL 009E                          _EEDATA 010C                          _EECON1 018C  
                        _EECON2 018D                          _ANSELH 0189                          i1l2020 04A7  
                        i1l2021 04A7                          i1l2030 037B                          i1l2031 0398  
                        i1l2040 03F4                          i1l2032 0397                          i1l2024 0371  
                        i1l2041 03F4                          i1l2033 039A                          i1l2025 0351  
                        i1l2050 0543                          i1l2034 03A7                          i1l2026 036E  
                        i1l2018 048F                          i1l2035 03EF                          i1l2027 036D  
                        i1l2019 049B                          i1l2044 055C                          i1l2036 03C5  
                        i1l2028 0370                          i1l2045 055C                          i1l2037 03EC  
                        i1l2029 039B                          i1l2038 03EB                          i1l2039 03ED  
                        i1l2048 0541                          i1l2049 0543                          u300_20 037F  
                        u300_21 037E                          u301_20 0384                          u301_21 0383  
                        Delay@n 0043                          u302_20 038E                          u302_21 038D  
                        u303_20 03A1                          u303_21 03A0                          u304_20 03AD  
                        u304_21 03AC                          i1l8900 0350                          i1l8910 0368  
                        i1l8902 0355                          u305_20 03BC                          i1l8920 037F  
                        i1l8912 0369                          i1l8904 035A                          u305_21 03BB  
                        i1l8930 0393                          i1l8922 0384                          i1l8906 035E  
                        i1l8914 0371                          i1l8850 0485                          i1l8940 03C2  
                        i1l8924 0388                          i1l8916 0376                          i1l8932 039B  
                        i1l8908 0364                          i1l8860 04A1                          i1l8852 0489  
                        i1l8870 0533                          i1l8862 0522                          i1l8942 03C5  
                        i1l8950 03EF                          i1l8934 03A1                          i1l8926 038E  
                        i1l8918 037A                          i1l8854 048F                          i1l8872 0535  
                        i1l8864 0528                          i1l8880 0547                          i1l8944 03CE  
                        u306_20 03CE                          i1l8936 03AD                          i1l8928 0392  
                        i1l8856 0495                          u306_21 03CD                          i1l8874 0538  
                        i1l8866 0529                          i1l8882 0548                          i1l8946 03DB  
                        i1l8938 03BC                          i1l8890 0338                          i1l8858 049B  
                        i1l8876 053E                          i1l8868 052D                          i1l8884 054E  
                        i1l8948 03E8                          i1l8892 033D                          i1l8886 0557  
                        i1l8878 0544                          i1l8894 0341                          u307_20 03DB  
                        i1l8896 0347                          i1l8888 0330                          u307_21 03DA  
                        i1l8898 034C                          u308_20 03E5                          u308_21 03E1  
                        u309_24 03E8                          u290_20 0557                          u290_21 0556  
                        u291_20 0341                          u291_21 0340                          u292_20 0347  
                        u292_21 0346                          u293_20 034C                          u293_21 034B  
                        u294_20 0350                          u286_20 0489                          u294_21 034F  
                        u286_21 0488                          u295_20 0355                          u287_20 0495  
                        u295_21 0354                          u287_21 0494                          u296_20 035A  
                        u288_20 04A1                          u296_21 0359                          u288_21 04A0  
                        u289_20 0533                          u297_20 0364                          u289_21 0532  
                        u297_21 0363                          u298_20 0376                          _OSCCON 008F  
                        u298_21 0375                          u299_20 037A                          u299_21 0379  
                        _TMR1IE 0460                          _TMR1IF 0060                          _TMR1CS 0081  
                        _TMR2IE 0461                          _TMR2IF 0061                          _TMR1ON 0080  
                        _TMR2ON 0092                          _SSPADD 0093                          _TRISC3 043B  
                        _TRISC4 043C                          _SSPCON 0014                          _SSPBUF 0013  
                        _VOLT_H 003F                          _VOLT_L 0040                __end_of_delaynms 0485  
                        _InitCn 05C0                          _Key_Up 0036                      _MotorClose 0151  
            __size_of_The_Close 0025          ?_Motor_adjusting_speed 0070                          clrloop 05B9  
                        saved_w 007E                      _Start_Flag 003C                       ?_IIC_init 0070  
                   _InitDevices 04FE                       ?_RBCN_int 0070                   __end_of_Delay 0588  
                   ?_InitTimer1 0070                     ?_InitTimer2 0070                  __pcstackCOMMON 0070  
                  __pidataBANK0 05CC                       ?_TMR1_int 0070                       ?_TMR2_int 0070  
                       ??_Delay 0045               __end_of_The_Close 04FE                      __pbssBANK0 0020  
              ReadADC@ADC_VALUE 0020                      ??_IIC_init 0043                      ??_RBCN_int 0070  
                       ?_InitCn 0070                     ?_MotorClose 0070                      __pmaintext 0015  
                     ?_PortInit 0070                      __pintentry 0004                      ??_TMR1_int 0070  
                    ??_TMR2_int 0070                  _ADC_RESULT_BAT 0032                     _Onekey_Flag 0038  
                       _GO_DONE 00F9                       ?_delaynms 0043                       TMR1_int@t 0071  
                _FG_Period_time 0024                         _SSPCON2 0091             __size_of_InitTimer1 0012  
           __size_of_InitTimer2 000E                         _SSPSTAT 0094                write_IIC@wdate_H 0046  
              write_IIC@wdate_L 0045              __size_of_write_IIC 00E0                         _Key_Run 0035  
               RBCN_int@Sameple 0071                 __size_of_InitCn 0007              __size_of_systemOSC 0005  
                       _Not_two 0079                      ??_PortInit 0043                _Open_Cover_times 002C  
          _Flag_adjusting_speed 0028                   _BAT_LED_times 0022               _Start_KeyRun_Flag 003D  
                     _T1CONbits 0010                    __size_of_com 002F                   _Onekey_Key_Up 0039  
                    ??_delaynms 0045             __size_of_MotorClose 00FF            end_of_initialization 04D5  
                     _RELAY_BAT 03D9         ??_Motor_adjusting_speed 0049                       _PORTAbits 0005  
                     _PORTBbits 0006                       _PORTCbits 0007               __end_of_write_IIC 0330  
                  _Forbid_input 0033               __end_of_systemOSC 05CC                 _Speed_LED_times 0030  
                  ?_InitDevices 0070               __size_of_IIC_init 0010                    ??_InitTimer1 0043  
                  ??_InitTimer2 0043                  __end_of_InitCn 05C7               __size_of_RBCN_int 0022  
             __size_of_TMR1_int 00C5               __size_of_TMR2_int 0019             start_initialization 04B4  
                   __end_of_com 04B4                    _Initial_Flag 0034              __end_of_InitTimer1 059A  
            __end_of_InitTimer2 05B8                       _The_Close 04D9                        ??_InitCn 0043  
                  ??_MotorClose 0049               _Flag_working_time 002A                     __pdataBANK0 004B  
             __size_of_PortInit 0017                       _Stop_Flag 003E                     __pbssCOMMON 0076  
                 __pcstackBANK0 0043                       _Work_Flag 007A              __end_of_MotorClose 0250  
             __size_of_delaynms 0034                      ?_The_Close 0070                       __ptext710 04D9  
                     __ptext711 0250                       __ptext720 05C7                       __ptext712 04FE  
                     __ptext721 0485                       __ptext713 0574                       __ptext722 0330  
                     __ptext714 0451                       __ptext723 0544                       __ptext715 05C0  
                     __ptext724 0522                       __ptext716 05AA                       __ptext708 0151  
                     __ptext725 0000                       __ptext717 0588                       __ptext709 03F5  
                     __ptext718 059A                       __ptext719 055D                 _Open_Cover_Flag 003B  
                __size_of_Delay 0014               interrupt_function 0004                        _IIC_init 059A  
                     delaynms@i 0045                       delaynms@j 0047                       delaynms@n 0043  
                   _FG_CN_Count 0077                    _Onekey_times 003A                        _RBCN_int 0522  
                      _RELAY_AC 03D8            __size_of_InitDevices 0024                        _TMR1_int 0330  
                      _TMR2_int 0544  __size_of_Motor_adjusting_speed 005C   __end_of_Motor_adjusting_speed 0451  
                     _write_IIC 0250                       _systemOSC 05C7                     ??_The_Close 0049  
                      _PortInit 055D                        _delaynms 0451                      ?_write_IIC 0045  
                    ?_systemOSC 0070                   __size_of_main 013C                        clear_ram 05B8  
                    write_IIC@t 0047                        intlevel1 0000                      _OPTION_REG 0081  
           _Flag_FG_Period_time 0026                     ??_write_IIC 0046                     ??_systemOSC 0043  
                _Flag_FG_Period 004D  
