

HI-TECH Software PIC LITE Macro Assembler V9.82 build 9453 
                                                                                               Fri Nov 22 09:09:40 2019

HI-TECH Software Omniscient Code Generator (Lite mode) build 9453
     1  0000                     opt subtitle "HI-TECH Software Omniscient Code Generator (Lite mode) build 9453"
     2                           
     3                           opt pagewidth 120
     4                           
     5                           	opt lm
     6                           
     7                           	processor	16F886
     8                           clrc	macro
     9                           	bcf	3,0
    10  0000                     	endm
    11                           clrz	macro
    12                           	bcf	3,2
    13  0000                     	endm
    14                           setc	macro
    15                           	bsf	3,0
    16  0000                     	endm
    17                           setz	macro
    18                           	bsf	3,2
    19  0000                     	endm
    20                           skipc	macro
    21                           	btfss	3,0
    22  0000                     	endm
    23                           skipz	macro
    24                           	btfss	3,2
    25  0000                     	endm
    26                           skipnc	macro
    27                           	btfsc	3,0
    28  0000                     	endm
    29                           skipnz	macro
    30                           	btfsc	3,2
    31  0000                     	endm
    32  0000                     indf	equ	0
    33  0000                     indf0	equ	0
    34  0002                     pc	equ	2
    35  0002                     pcl	equ	2
    36  0003                     status	equ	3
    37  0004                     fsr	equ	4
    38  0004                     fsr0	equ	4
    39  0001                     c	equ	1
    40  0000                     z	equ	0
    41  000A                     pclath	equ	10
    42                           # 13 "main.h"
    43                           	psect config,class=CONFIG,delta=2 ;#
    44                           # 13 "main.h"
    45  2007  EFF5               	dw 0xFFFD & 0xFFF7 & 0xFFFF & 0xFFFF & 0xFFFF & 0xFFFF & 0xFFFF & 0xFFFF & 0xFFFF & 0xE
                                 FFF ;#
    46                           # 14 "main.h"
    47                           	psect config,class=CONFIG,delta=2 ;#
    48                           # 14 "main.h"
    49  2008  FFFF               	dw 0xFFFF & 0xFFFF ;#
    50                           	FNCALL	_main,_InitDevices
    51                           	FNCALL	_main,_write_IIC
    52                           	FNCALL	_main,_ReadADC
    53                           	FNCALL	_main,___lwdiv
    54                           	FNCALL	_main,_delaynms
    55                           	FNCALL	_main,_Motor_adjusting_speed
    56                           	FNCALL	_main,_MotorClose
    57                           	FNCALL	_main,_The_Close
    58                           	FNCALL	_MotorClose,_write_IIC
    59                           	FNCALL	_MotorClose,_delaynms
    60                           	FNCALL	_Motor_adjusting_speed,_write_IIC
    61                           	FNCALL	_The_Close,_delaynms
    62                           	FNCALL	_write_IIC,_Delay
    63                           	FNCALL	_InitDevices,_systemOSC
    64                           	FNCALL	_InitDevices,_PortInit
    65                           	FNCALL	_InitDevices,_InitTimer0
    66                           	FNCALL	_InitDevices,_InitTimer1
    67                           	FNCALL	_InitDevices,_IIC_init
    68                           	FNCALL	_InitDevices,_InitialiseADC
    69                           	FNCALL	_InitDevices,_InitTimer2
    70                           	FNCALL	_InitDevices,_InitCn
    71                           	FNROOT	_main
    72                           	FNCALL	_com,_RBCN_int
    73                           	FNCALL	_com,_TMR2_int
    74                           	FNCALL	_com,_TMR1_int
    75                           	FNCALL	intlevel1,_com
    76                           	global	intlevel1
    77                           	FNROOT	intlevel1
    78                           	global	_VOLT
    79                           	global	_Flag_FG_Period
    80                           psect	idataBANK0,class=CODE,space=0,delta=2
    81                           global __pidataBANK0
    82  078D                     __pidataBANK0:
    83                           	file	"work.h"
    84                           	line	20
    85                           
    86                           ;initializer for _VOLT
    87  078D  347E               	retlw	07Eh
    88  078E  3404               	retlw	04h
    89                           
    90                           	file	"Interrupt.h"
    91                           	line	6
    92                           
    93                           ;initializer for _Flag_FG_Period
    94  078F  3401               	retlw	01h
    95                           	global	ReadADC@ADC_VALUE
    96                           	global	_ADC_Val
    97                           	global	_BAT_LED_times
    98                           	global	_FG_Period_time
    99                           	global	_Flag_FG_Period_time
   100                           	global	_Flag_adjusting_speed
   101                           	global	_Flag_working_time
   102                           	global	_Open_Cover_times
   103                           	global	_REALVOLTAGE_BAT_DC
   104                           	global	_Speed_LED_times
   105                           	global	_ADC_RESULT_BAT
   106                           	global	_Forbid_input
   107                           	global	_Initial_Flag
   108                           	global	_Key_Run
   109                           	global	_Key_Up
   110                           	global	_Once
   111                           	global	_Onekey_Flag
   112                           	global	_Onekey_Key_Up
   113                           	global	_Onekey_times
   114                           	global	_Open_Cover_Flag
   115                           	global	_Start_Flag
   116                           	global	_Start_KeyRun_Flag
   117                           	global	_Stop_Flag
   118                           	global	_VOLT_H
   119                           	global	_VOLT_L
   120                           	global	_adsum
   121                           	global	_kai
   122                           	global	_Count_Flag
   123                           	global	_FG_CN_Count
   124                           	global	_Key_Run_times
   125                           	global	_Not_two
   126                           	global	_Work_Flag
   127                           	global	_RELAY_AC
   128                           	global	_RELAY_BAT
   129                           	global	_TMR1
   130  000E                     _TMR1	set	14
   131                           	global	_ADCON0
   132  001F                     _ADCON0	set	31
   133                           	global	_ADRESH
   134  001E                     _ADRESH	set	30
   135                           	global	_PORTA
   136  0005                     _PORTA	set	5
   137                           	global	_PORTAbits
   138  0005                     _PORTAbits	set	5
   139                           	global	_PORTB
   140  0006                     _PORTB	set	6
   141                           	global	_PORTBbits
   142  0006                     _PORTBbits	set	6
   143                           	global	_PORTC
   144  0007                     _PORTC	set	7
   145                           	global	_PORTCbits
   146  0007                     _PORTCbits	set	7
   147                           	global	_SSPBUF
   148  0013                     _SSPBUF	set	19
   149                           	global	_SSPCON
   150  0014                     _SSPCON	set	20
   151                           	global	_T1CON
   152  0010                     _T1CON	set	16
   153                           	global	_T1CONbits
   154  0010                     _T1CONbits	set	16
   155                           	global	_T2CON
   156  0012                     _T2CON	set	18
   157                           	global	_TMR0
   158  0001                     _TMR0	set	1
   159                           	global	_TMR2
   160  0011                     _TMR2	set	17
   161                           	global	_ADIF
   162  0066                     _ADIF	set	102
   163                           	global	_ADON
   164  00F8                     _ADON	set	248
   165                           	global	_CARRY
   166  0018                     _CARRY	set	24
   167                           	global	_GIE
   168  005F                     _GIE	set	95
   169                           	global	_GO
   170  00F9                     _GO	set	249
   171                           	global	_GO_DONE
   172  00F9                     _GO_DONE	set	249
   173                           	global	_PEIE
   174  005E                     _PEIE	set	94
   175                           	global	_RBIE
   176  005B                     _RBIE	set	91
   177                           	global	_RBIF
   178  0058                     _RBIF	set	88
   179                           	global	_SSPIF
   180  0063                     _SSPIF	set	99
   181                           	global	_T0IE
   182  005D                     _T0IE	set	93
   183                           	global	_TMR1CS
   184  0081                     _TMR1CS	set	129
   185                           	global	_TMR1IF
   186  0060                     _TMR1IF	set	96
   187                           	global	_TMR1ON
   188  0080                     _TMR1ON	set	128
   189                           	global	_TMR2IF
   190  0061                     _TMR2IF	set	97
   191                           	global	_TMR2ON
   192  0092                     _TMR2ON	set	146
   193                           	global	_ADCON1
   194  009F                     _ADCON1	set	159
   195                           	global	_ADRESL
   196  009E                     _ADRESL	set	158
   197                           	global	_IOCB
   198  0096                     _IOCB	set	150
   199                           	global	_OPTION_REG
   200  0081                     _OPTION_REG	set	129
   201                           	global	_OSCCON
   202  008F                     _OSCCON	set	143
   203                           	global	_PR2
   204  0092                     _PR2	set	146
   205                           	global	_SSPADD
   206  0093                     _SSPADD	set	147
   207                           	global	_SSPCON2
   208  0091                     _SSPCON2	set	145
   209                           	global	_SSPSTAT
   210  0094                     _SSPSTAT	set	148
   211                           	global	_TRISA
   212  0085                     _TRISA	set	133
   213                           	global	_TRISB
   214  0086                     _TRISB	set	134
   215                           	global	_TRISC
   216  0087                     _TRISC	set	135
   217                           	global	_ADIE
   218  0466                     _ADIE	set	1126
   219                           	global	_PEN
   220  048A                     _PEN	set	1162
   221                           	global	_SEN
   222  0488                     _SEN	set	1160
   223                           	global	_TMR1IE
   224  0460                     _TMR1IE	set	1120
   225                           	global	_TMR2IE
   226  0461                     _TMR2IE	set	1121
   227                           	global	_TRISC3
   228  043B                     _TRISC3	set	1083
   229                           	global	_TRISC4
   230  043C                     _TRISC4	set	1084
   231                           	global	_EEADR
   232  010D                     _EEADR	set	269
   233                           	global	_EEDATA
   234  010C                     _EEDATA	set	268
   235                           	global	_WDTCON
   236  0105                     _WDTCON	set	261
   237                           	global	_WDTCONbits
   238  0105                     _WDTCONbits	set	261
   239                           	global	_ANSEL
   240  0188                     _ANSEL	set	392
   241                           	global	_ANSELH
   242  0189                     _ANSELH	set	393
   243                           	global	_EECON1
   244  018C                     _EECON1	set	396
   245                           	global	_EECON2
   246  018D                     _EECON2	set	397
   247                           	global	_RD
   248  0C60                     _RD	set	3168
   249                           	global	_WR
   250  0C61                     _WR	set	3169
   251                           	global	_WREN
   252  0C62                     _WREN	set	3170
   253                           	file	"C:\Users\1\AppData\Local\Temp\s264."
   254                           	line	#
   255                           psect cinit,class=CODE,delta=2
   256                           global start_initialization
   257  06A0                     start_initialization:
   258                           
   259                           psect	bitbssCOMMON,class=COMMON,bit,space=1
   260                           global __pbitbssCOMMON
   261  03D8                     __pbitbssCOMMON:
   262  03D8                     _RELAY_AC:
   263  03D8                            ds      1
   264                           
   265  03D9                     _RELAY_BAT:
   266  03D9                            ds      1
   267                           
   268                           psect	bssCOMMON,class=COMMON,space=1
   269                           global __pbssCOMMON
   270  0076                     __pbssCOMMON:
   271  0076                     _Count_Flag:
   272  0076                            ds      1
   273                           
   274  0077                     _FG_CN_Count:
   275  0077                            ds      1
   276                           
   277  0078                     _Key_Run_times:
   278  0078                            ds      1
   279                           
   280  0079                     _Not_two:
   281  0079                            ds      1
   282                           
   283  007A                     _Work_Flag:
   284  007A                            ds      1
   285                           
   286                           psect	bssBANK0,class=BANK0,space=1
   287                           global __pbssBANK0
   288  0020                     __pbssBANK0:
   289  0020                     ReadADC@ADC_VALUE:
   290  0020                            ds      2
   291                           
   292  0022                     _ADC_Val:
   293  0022                            ds      2
   294                           
   295  0024                     _BAT_LED_times:
   296  0024                            ds      2
   297                           
   298  0026                     _FG_Period_time:
   299  0026                            ds      2
   300                           
   301  0028                     _Flag_FG_Period_time:
   302  0028                            ds      2
   303                           
   304  002A                     _Flag_adjusting_speed:
   305  002A                            ds      2
   306                           
   307  002C                     _Flag_working_time:
   308  002C                            ds      2
   309                           
   310  002E                     _Open_Cover_times:
   311  002E                            ds      2
   312                           
   313  0030                     _REALVOLTAGE_BAT_DC:
   314  0030                            ds      2
   315                           
   316  0032                     _Speed_LED_times:
   317  0032                            ds      2
   318                           
   319  0034                     _ADC_RESULT_BAT:
   320  0034                            ds      1
   321                           
   322  0035                     _Forbid_input:
   323  0035                            ds      1
   324                           
   325  0036                     _Initial_Flag:
   326  0036                            ds      1
   327                           
   328  0037                     _Key_Run:
   329  0037                            ds      1
   330                           
   331  0038                     _Key_Up:
   332  0038                            ds      1
   333                           
   334  0039                     _Once:
   335  0039                            ds      1
   336                           
   337  003A                     _Onekey_Flag:
   338  003A                            ds      1
   339                           
   340  003B                     _Onekey_Key_Up:
   341  003B                            ds      1
   342                           
   343  003C                     _Onekey_times:
   344  003C                            ds      1
   345                           
   346  003D                     _Open_Cover_Flag:
   347  003D                            ds      1
   348                           
   349  003E                     _Start_Flag:
   350  003E                            ds      1
   351                           
   352  003F                     _Start_KeyRun_Flag:
   353  003F                            ds      1
   354                           
   355  0040                     _Stop_Flag:
   356  0040                            ds      1
   357                           
   358  0041                     _VOLT_H:
   359  0041                            ds      1
   360                           
   361  0042                     _VOLT_L:
   362  0042                            ds      1
   363                           
   364  0043                     _adsum:
   365  0043                            ds      1
   366                           
   367  0044                     _kai:
   368  0044                            ds      1
   369                           
   370                           psect	dataBANK0,class=BANK0,space=1
   371                           global __pdataBANK0
   372  004F                     __pdataBANK0:
   373                           	file	"work.h"
   374                           	line	20
   375  004F                     _VOLT:
   376  004F                            ds      2
   377                           
   378                           psect	dataBANK0
   379                           	file	"Interrupt.h"
   380                           	line	6
   381  0051                     _Flag_FG_Period:
   382  0051                            ds      1
   383                           
   384                           psect clrtext,class=CODE,delta=2
   385                           global clear_ram
   386                           ;	Called with FSR containing the base address, and
   387                           ;	W with the last address+1
   388  0779                     clear_ram:
   389  0779  0064               	clrwdt			;clear the watchdog before getting into this loop
   390  077A                     clrloop:
   391  077A  0180               	clrf	indf		;clear RAM location pointed to by FSR
   392  077B  0A84               	incf	fsr,f		;increment pointer
   393  077C  0604               	xorwf	fsr,w		;XOR with final address
   394  077D  1903               	btfsc	status,2	;have we reached the end yet?
   395  077E  3400               	retlw	0		;all done for this memory range, return
   396  077F  0604               	xorwf	fsr,w		;XOR again to restore value
   397  0780  2F7A               	goto	clrloop		;do the next byte
   398                           
   399                           ; Clear objects allocated to BITCOMMON
   400                           psect cinit,class=CODE,delta=2
   401  06A0  01FB               	clrf	((__pbitbssCOMMON/8)+0)&07Fh
   402                           ; Clear objects allocated to COMMON
   403                           psect cinit,class=CODE,delta=2
   404  06A1  01F6               	clrf	((__pbssCOMMON)+0)&07Fh
   405  06A2  01F7               	clrf	((__pbssCOMMON)+1)&07Fh
   406  06A3  01F8               	clrf	((__pbssCOMMON)+2)&07Fh
   407  06A4  01F9               	clrf	((__pbssCOMMON)+3)&07Fh
   408  06A5  01FA               	clrf	((__pbssCOMMON)+4)&07Fh
   409                           ; Clear objects allocated to BANK0
   410                           psect cinit,class=CODE,delta=2
   411  06A6  1383               	bcf	status, 7	;select IRP bank0
   412  06A7  3020               	movlw	low(__pbssBANK0)
   413  06A8  0084               	movwf	fsr
   414  06A9  3045               	movlw	low((__pbssBANK0)+025h)
   415  06AA  120A  118A  2779   	fcall	clear_ram
              120A  118A         
   416                           ; Initialize objects allocated to BANK0
   417                           	global __pidataBANK0
   418                           psect cinit,class=CODE,delta=2
   419  06AF  120A  118A  278D   	fcall	__pidataBANK0+0		;fetch initializer
              120A  118A         
   420  06B4  00CF               	movwf	__pdataBANK0+0&07fh		
   421  06B5  120A  118A  278E   	fcall	__pidataBANK0+1		;fetch initializer
              120A  118A         
   422  06BA  00D0               	movwf	__pdataBANK0+1&07fh		
   423  06BB  120A  118A  278F   	fcall	__pidataBANK0+2		;fetch initializer
              120A  118A         
   424  06C0  00D1               	movwf	__pdataBANK0+2&07fh		
   425                           psect cinit,class=CODE,delta=2
   426                           global end_of_initialization
   427                           
   428                           ;End of C runtime variable initialization code
   429                           
   430  06C1                     end_of_initialization:
   431  06C1  0183               clrf status
   432  06C2  120A  118A  2815   ljmp _main	;jump to C main() function
   433                           psect	cstackCOMMON,class=COMMON,space=1
   434                           global __pcstackCOMMON
   435  0070                     __pcstackCOMMON:
   436                           	global	?_RBCN_int
   437  0070                     ?_RBCN_int:	; 0 bytes @ 0x0
   438                           	global	??_RBCN_int
   439  0070                     ??_RBCN_int:	; 0 bytes @ 0x0
   440                           	global	?_TMR2_int
   441  0070                     ?_TMR2_int:	; 0 bytes @ 0x0
   442                           	global	??_TMR2_int
   443  0070                     ??_TMR2_int:	; 0 bytes @ 0x0
   444                           	global	?_TMR1_int
   445  0070                     ?_TMR1_int:	; 0 bytes @ 0x0
   446                           	global	??_TMR1_int
   447  0070                     ??_TMR1_int:	; 0 bytes @ 0x0
   448                           	global	?_Motor_adjusting_speed
   449  0070                     ?_Motor_adjusting_speed:	; 0 bytes @ 0x0
   450                           	global	?_MotorClose
   451  0070                     ?_MotorClose:	; 0 bytes @ 0x0
   452                           	global	?_The_Close
   453  0070                     ?_The_Close:	; 0 bytes @ 0x0
   454                           	global	?_systemOSC
   455  0070                     ?_systemOSC:	; 0 bytes @ 0x0
   456                           	global	?_PortInit
   457  0070                     ?_PortInit:	; 0 bytes @ 0x0
   458                           	global	?_InitialiseADC
   459  0070                     ?_InitialiseADC:	; 0 bytes @ 0x0
   460                           	global	?_IIC_init
   461  0070                     ?_IIC_init:	; 0 bytes @ 0x0
   462                           	global	?_InitTimer0
   463  0070                     ?_InitTimer0:	; 0 bytes @ 0x0
   464                           	global	?_InitTimer1
   465  0070                     ?_InitTimer1:	; 0 bytes @ 0x0
   466                           	global	?_InitTimer2
   467  0070                     ?_InitTimer2:	; 0 bytes @ 0x0
   468                           	global	?_InitCn
   469  0070                     ?_InitCn:	; 0 bytes @ 0x0
   470                           	global	?_InitDevices
   471  0070                     ?_InitDevices:	; 0 bytes @ 0x0
   472                           	global	?_com
   473  0070                     ?_com:	; 0 bytes @ 0x0
   474                           	global	?_main
   475  0070                     ?_main:	; 0 bytes @ 0x0
   476  0070                     	ds	1
   477                           	global	TMR1_int@t
   478  0071                     TMR1_int@t:	; 1 bytes @ 0x1
   479                           	global	RBCN_int@Sameple
   480  0071                     RBCN_int@Sameple:	; 1 bytes @ 0x1
   481  0071                     	ds	1
   482                           	global	??_com
   483  0072                     ??_com:	; 0 bytes @ 0x2
   484  0072                     	ds	4
   485                           psect	cstackBANK0,class=BANK0,space=1
   486                           global __pcstackBANK0
   487  0045                     __pcstackBANK0:
   488                           	global	?_delaynms
   489  0045                     ?_delaynms:	; 0 bytes @ 0x0
   490                           	global	?_Delay
   491  0045                     ?_Delay:	; 0 bytes @ 0x0
   492                           	global	??_systemOSC
   493  0045                     ??_systemOSC:	; 0 bytes @ 0x0
   494                           	global	??_PortInit
   495  0045                     ??_PortInit:	; 0 bytes @ 0x0
   496                           	global	??_InitialiseADC
   497  0045                     ??_InitialiseADC:	; 0 bytes @ 0x0
   498                           	global	??_IIC_init
   499  0045                     ??_IIC_init:	; 0 bytes @ 0x0
   500                           	global	??_InitTimer0
   501  0045                     ??_InitTimer0:	; 0 bytes @ 0x0
   502                           	global	??_InitTimer1
   503  0045                     ??_InitTimer1:	; 0 bytes @ 0x0
   504                           	global	??_InitTimer2
   505  0045                     ??_InitTimer2:	; 0 bytes @ 0x0
   506                           	global	??_InitCn
   507  0045                     ??_InitCn:	; 0 bytes @ 0x0
   508                           	global	??_InitDevices
   509  0045                     ??_InitDevices:	; 0 bytes @ 0x0
   510                           	global	?_ReadADC
   511  0045                     ?_ReadADC:	; 2 bytes @ 0x0
   512                           	global	?___lwdiv
   513  0045                     ?___lwdiv:	; 2 bytes @ 0x0
   514                           	global	Delay@n
   515  0045                     Delay@n:	; 2 bytes @ 0x0
   516                           	global	delaynms@n
   517  0045                     delaynms@n:	; 2 bytes @ 0x0
   518                           	global	___lwdiv@divisor
   519  0045                     ___lwdiv@divisor:	; 2 bytes @ 0x0
   520  0045                     	ds	2
   521                           	global	?_write_IIC
   522  0047                     ?_write_IIC:	; 0 bytes @ 0x2
   523                           	global	??_ReadADC
   524  0047                     ??_ReadADC:	; 0 bytes @ 0x2
   525                           	global	??_delaynms
   526  0047                     ??_delaynms:	; 0 bytes @ 0x2
   527                           	global	??_Delay
   528  0047                     ??_Delay:	; 0 bytes @ 0x2
   529                           	global	write_IIC@wdate_L
   530  0047                     write_IIC@wdate_L:	; 1 bytes @ 0x2
   531                           	global	delaynms@i
   532  0047                     delaynms@i:	; 2 bytes @ 0x2
   533                           	global	___lwdiv@dividend
   534  0047                     ___lwdiv@dividend:	; 2 bytes @ 0x2
   535  0047                     	ds	1
   536                           	global	??_write_IIC
   537  0048                     ??_write_IIC:	; 0 bytes @ 0x3
   538                           	global	write_IIC@wdate_H
   539  0048                     write_IIC@wdate_H:	; 1 bytes @ 0x3
   540  0048                     	ds	1
   541                           	global	??___lwdiv
   542  0049                     ??___lwdiv:	; 0 bytes @ 0x4
   543                           	global	ReadADC@ADC_Channel
   544  0049                     ReadADC@ADC_Channel:	; 1 bytes @ 0x4
   545                           	global	write_IIC@t
   546  0049                     write_IIC@t:	; 2 bytes @ 0x4
   547                           	global	delaynms@j
   548  0049                     delaynms@j:	; 2 bytes @ 0x4
   549  0049                     	ds	1
   550                           	global	___lwdiv@counter
   551  004A                     ___lwdiv@counter:	; 1 bytes @ 0x5
   552  004A                     	ds	1
   553                           	global	??_Motor_adjusting_speed
   554  004B                     ??_Motor_adjusting_speed:	; 0 bytes @ 0x6
   555                           	global	??_MotorClose
   556  004B                     ??_MotorClose:	; 0 bytes @ 0x6
   557                           	global	??_The_Close
   558  004B                     ??_The_Close:	; 0 bytes @ 0x6
   559                           	global	___lwdiv@quotient
   560  004B                     ___lwdiv@quotient:	; 2 bytes @ 0x6
   561  004B                     	ds	2
   562                           	global	??_main
   563  004D                     ??_main:	; 0 bytes @ 0x8
   564  004D                     	ds	1
   565                           	global	main@i
   566  004E                     main@i:	; 1 bytes @ 0x9
   567  004E                     	ds	1
   568 ;;Data sizes: Strings 0, constant 0, data 3, bss 42, persistent 0 stack 0
   569 ;;Auto spaces:   Size  Autos    Used
   570 ;; COMMON          14      6      12
   571 ;; BANK0           80     10      50
   572 ;; BANK1           80      0       0
   573 ;; BANK3           96      0       0
   574 ;; BANK2           96      0       0
   575                           
   576 ;;
   577 ;; Pointer list with targets:
   578                           
   579 ;; ?_ReadADC	unsigned int  size(1) Largest target is 0
   580 ;;
   581 ;; ?___lwdiv	unsigned int  size(1) Largest target is 0
   582 ;;
   583                           
   584                           
   585 ;;
   586 ;; Critical Paths under _main in COMMON
   587 ;;
   588 ;;   None.
   589 ;;
   590 ;; Critical Paths under _com in COMMON
   591 ;;
   592 ;;   _com->_RBCN_int
   593 ;;   _com->_TMR1_int
   594 ;;
   595 ;; Critical Paths under _main in BANK0
   596 ;;
   597 ;;   _main->___lwdiv
   598 ;;   _MotorClose->_write_IIC
   599 ;;   _MotorClose->_delaynms
   600 ;;   _Motor_adjusting_speed->_write_IIC
   601 ;;   _The_Close->_delaynms
   602 ;;   _write_IIC->_Delay
   603 ;;
   604 ;; Critical Paths under _com in BANK0
   605 ;;
   606 ;;   None.
   607 ;;
   608 ;; Critical Paths under _main in BANK1
   609 ;;
   610 ;;   None.
   611 ;;
   612 ;; Critical Paths under _com in BANK1
   613 ;;
   614 ;;   None.
   615 ;;
   616 ;; Critical Paths under _main in BANK3
   617 ;;
   618 ;;   None.
   619 ;;
   620 ;; Critical Paths under _com in BANK3
   621 ;;
   622 ;;   None.
   623 ;;
   624 ;; Critical Paths under _main in BANK2
   625 ;;
   626 ;;   None.
   627 ;;
   628 ;; Critical Paths under _com in BANK2
   629 ;;
   630 ;;   None.
   631                           
   632 ;;
   633 ;;Main: autosize = 0, tempsize = 1, incstack = 0, save=0
   634 ;;
   635                           
   636 ;;
   637 ;;Call Graph Tables:
   638 ;;
   639 ;; ---------------------------------------------------------------------------------
   640 ;; (Depth) Function   	        Calls       Base Space   Used Autos Params    Refs
   641 ;; ---------------------------------------------------------------------------------
   642 ;; (0) _main                                                 2     2      0    1603
   643 ;;                                              8 BANK0      2     2      0
   644 ;;                        _InitDevices
   645 ;;                          _write_IIC
   646 ;;                            _ReadADC
   647 ;;                            ___lwdiv
   648 ;;                           _delaynms
   649 ;;              _Motor_adjusting_speed
   650 ;;                         _MotorClose
   651 ;;                          _The_Close
   652 ;; ---------------------------------------------------------------------------------
   653 ;; (1) _MotorClose                                           1     1      0     420
   654 ;;                                              6 BANK0      1     1      0
   655 ;;                          _write_IIC
   656 ;;                           _delaynms
   657 ;; ---------------------------------------------------------------------------------
   658 ;; (1) _Motor_adjusting_speed                                1     1      0     284
   659 ;;                                              6 BANK0      1     1      0
   660 ;;                          _write_IIC
   661 ;; ---------------------------------------------------------------------------------
   662 ;; (1) _The_Close                                            0     0      0     136
   663 ;;                           _delaynms
   664 ;; ---------------------------------------------------------------------------------
   665 ;; (2) _write_IIC                                            4     3      1     284
   666 ;;                                              2 BANK0      4     3      1
   667 ;;                              _Delay
   668 ;; ---------------------------------------------------------------------------------
   669 ;; (1) _InitDevices                                          0     0      0       0
   670 ;;                          _systemOSC
   671 ;;                           _PortInit
   672 ;;                         _InitTimer0
   673 ;;                         _InitTimer1
   674 ;;                           _IIC_init
   675 ;;                      _InitialiseADC
   676 ;;                         _InitTimer2
   677 ;;                             _InitCn
   678 ;; ---------------------------------------------------------------------------------
   679 ;; (1) ___lwdiv                                              8     4      4     241
   680 ;;                                              0 BANK0      8     4      4
   681 ;; ---------------------------------------------------------------------------------
   682 ;; (3) _Delay                                                2     0      2      34
   683 ;;                                              0 BANK0      2     0      2
   684 ;; ---------------------------------------------------------------------------------
   685 ;; (2) _delaynms                                             6     4      2     136
   686 ;;                                              0 BANK0      6     4      2
   687 ;; ---------------------------------------------------------------------------------
   688 ;; (1) _ReadADC                                              6     4      2      34
   689 ;;                                              0 BANK0      5     3      2
   690 ;; ---------------------------------------------------------------------------------
   691 ;; (2) _InitCn                                               0     0      0       0
   692 ;; ---------------------------------------------------------------------------------
   693 ;; (2) _InitTimer2                                           0     0      0       0
   694 ;; ---------------------------------------------------------------------------------
   695 ;; (2) _InitTimer1                                           0     0      0       0
   696 ;; ---------------------------------------------------------------------------------
   697 ;; (2) _InitTimer0                                           0     0      0       0
   698 ;; ---------------------------------------------------------------------------------
   699 ;; (2) _IIC_init                                             0     0      0       0
   700 ;; ---------------------------------------------------------------------------------
   701 ;; (2) _InitialiseADC                                        0     0      0       0
   702 ;; ---------------------------------------------------------------------------------
   703 ;; (2) _PortInit                                             0     0      0       0
   704 ;; ---------------------------------------------------------------------------------
   705 ;; (2) _systemOSC                                            0     0      0       0
   706 ;; ---------------------------------------------------------------------------------
   707 ;; Estimated maximum stack depth 3
   708 ;; ---------------------------------------------------------------------------------
   709 ;; (Depth) Function   	        Calls       Base Space   Used Autos Params    Refs
   710 ;; ---------------------------------------------------------------------------------
   711 ;; (4) _com                                                  4     4      0       2
   712 ;;                                              2 COMMON     4     4      0
   713 ;;                           _RBCN_int
   714 ;;                           _TMR2_int
   715 ;;                           _TMR1_int
   716 ;; ---------------------------------------------------------------------------------
   717 ;; (5) _TMR1_int                                             3     3      0       1
   718 ;;                                              0 COMMON     2     2      0
   719 ;; ---------------------------------------------------------------------------------
   720 ;; (5) _TMR2_int                                             0     0      0       0
   721 ;; ---------------------------------------------------------------------------------
   722 ;; (5) _RBCN_int                                             2     2      0       1
   723 ;;                                              0 COMMON     2     2      0
   724 ;; ---------------------------------------------------------------------------------
   725 ;; Estimated maximum stack depth 5
   726 ;; ---------------------------------------------------------------------------------
   727                           
   728 ;; Call Graph Graphs:
   729                           
   730 ;; _main (ROOT)
   731 ;;   _InitDevices
   732 ;;     _systemOSC
   733 ;;     _PortInit
   734 ;;     _InitTimer0
   735 ;;     _InitTimer1
   736 ;;     _IIC_init
   737 ;;     _InitialiseADC
   738 ;;     _InitTimer2
   739 ;;     _InitCn
   740 ;;   _write_IIC
   741 ;;     _Delay
   742 ;;   _ReadADC
   743 ;;   ___lwdiv
   744 ;;   _delaynms
   745 ;;   _Motor_adjusting_speed
   746 ;;     _write_IIC
   747 ;;       _Delay
   748 ;;   _MotorClose
   749 ;;     _write_IIC
   750 ;;       _Delay
   751 ;;     _delaynms
   752 ;;   _The_Close
   753 ;;     _delaynms
   754 ;;
   755 ;; _com (ROOT)
   756 ;;   _RBCN_int
   757 ;;   _TMR2_int
   758 ;;   _TMR1_int
   759 ;;
   760                           
   761 ;; Address spaces:
   762                           
   763 ;;Name               Size   Autos  Total    Cost      Usage
   764 ;;BANK3               60      0       0       9        0.0%
   765 ;;BITBANK3            60      0       0       8        0.0%
   766 ;;SFR3                 0      0       0       4        0.0%
   767 ;;BITSFR3              0      0       0       4        0.0%
   768 ;;BANK2               60      0       0      11        0.0%
   769 ;;BITBANK2            60      0       0      10        0.0%
   770 ;;SFR2                 0      0       0       5        0.0%
   771 ;;BITSFR2              0      0       0       5        0.0%
   772 ;;SFR1                 0      0       0       2        0.0%
   773 ;;BITSFR1              0      0       0       2        0.0%
   774 ;;BANK1               50      0       0       7        0.0%
   775 ;;BITBANK1            50      0       0       6        0.0%
   776 ;;CODE                 0      0       0       0        0.0%
   777 ;;DATA                 0      0      45      12        0.0%
   778 ;;ABS                  0      0      3E       3        0.0%
   779 ;;NULL                 0      0       0       0        0.0%
   780 ;;STACK                0      0       7       2        0.0%
   781 ;;BANK0               50      A      32       5       62.5%
   782 ;;BITBANK0            50      0       0       4        0.0%
   783 ;;SFR0                 0      0       0       1        0.0%
   784 ;;BITSFR0              0      0       0       1        0.0%
   785 ;;COMMON               E      6       C       1       85.7%
   786 ;;BITCOMMON            E      0       1       0        7.1%
   787 ;;EEDATA             100      0       0       0        0.0%
   788                           
   789                           	global	_main
   790                           psect	maintext,global,class=CODE,delta=2
   791                           global __pmaintext
   792  0015                     __pmaintext:
   793                           
   794 ;; *************** function _main *****************
   795 ;; Defined at:
   796 ;;		line 28 in file "main.c"
   797 ;; Parameters:    Size  Location     Type
   798 ;;		None
   799 ;; Auto vars:     Size  Location     Type
   800 ;;  i               1    9[BANK0 ] unsigned char 
   801 ;; Return value:  Size  Location     Type
   802 ;;		None               void
   803 ;; Registers used:
   804 ;;		wreg, status,2, status,0, btemp+1, pclath, cstack
   805 ;; Tracked objects:
   806 ;;		On entry : 17F/0
   807 ;;		On exit  : 0/0
   808 ;;		Unchanged: 0/0
   809 ;; Data sizes:     COMMON   BANK0   BANK1   BANK3   BANK2
   810 ;;      Params:         0       0       0       0       0
   811 ;;      Locals:         0       1       0       0       0
   812 ;;      Temps:          0       1       0       0       0
   813 ;;      Totals:         0       2       0       0       0
   814 ;;Total ram usage:        2 bytes
   815 ;; Hardware stack levels required when called:    5
   816 ;; This function calls:
   817 ;;		_InitDevices
   818 ;;		_write_IIC
   819 ;;		_ReadADC
   820 ;;		___lwdiv
   821 ;;		_delaynms
   822 ;;		_Motor_adjusting_speed
   823 ;;		_MotorClose
   824 ;;		_The_Close
   825 ;; This function is called by:
   826 ;;		Startup code after reset
   827 ;; This function uses a non-reentrant model
   828 ;;
   829                           psect	maintext
   830                           	file	"main.c"
   831                           	line	28
   832                           	global	__size_of_main
   833  0224                     	__size_of_main	equ	__end_of_main-_main
   834                           	
   835  0015                     _main:	
   836                           	opt	stack 3
   837                           ; Regs used in _main: [wreg+status,2+status,0+btemp+1+pclath+cstack]
   838                           	line	30
   839                           	
   840  0015                     l9919:	
   841                           ;main.c: 29: unsigned char i;
   842                           ;main.c: 30: InitDevices();
   843  0015  120A  118A  2617   	fcall	_InitDevices
              120A  118A         
   844                           	line	31
   845                           	
   846  001A                     l9921:	
   847                           ;main.c: 31: write_IIC(0x00,0x00 );
   848  001A  1283               	bcf	status, 5	;RP0=0, select bank0
   849  001B  1303               	bcf	status, 6	;RP1=0, select bank0
   850  001C  01C7               	clrf	(?_write_IIC)
   851  001D  3000               	movlw	(0)
   852  001E  120A  118A  2343   	fcall	_write_IIC
              120A  118A         
   853  0023  2824               	goto	l9923
   854                           	line	32
   855                           ;main.c: 32: while(1)
   856                           	
   857  0024                     l3073:	
   858                           	line	35
   859                           	
   860  0024                     l9923:	
   861                           ;main.c: 33: {
   862                           ;main.c: 35: if(PORTAbits.RA5 == 1) {PORTBbits.RB2 = 1;asm ("NOP");}
   863  0024  1283               	bcf	status, 5	;RP0=0, select bank0
   864  0025  1303               	bcf	status, 6	;RP1=0, select bank0
   865  0026  1E85               	btfss	(5),5	;volatile
   866  0027  2829               	goto	u4091
   867  0028  282A               	goto	u4090
   868  0029                     u4091:
   869  0029  282D               	goto	l3074
   870  002A                     u4090:
   871                           	
   872  002A                     l9925:	
   873  002A  1506               	bsf	(6),2	;volatile
   874                           # 35 "main.c"
   875  002B  0000               NOP ;#
   876                           psect	maintext
   877  002C  2830               	goto	l9927
   878                           	line	36
   879                           	
   880  002D                     l3074:	
   881                           ;main.c: 36: else {PORTBbits.RB2 = 0;asm ("NOP");}
   882  002D  1106               	bcf	(6),2	;volatile
   883                           # 36 "main.c"
   884  002E  0000               NOP ;#
   885                           psect	maintext
   886  002F  2830               	goto	l9927
   887                           	
   888  0030                     l3075:	
   889                           	line	38
   890                           	
   891  0030                     l9927:	
   892                           ;main.c: 38: if((Count_Flag == 0) && (Work_Flag == 1)) {PORTBbits.RB0 = 1;asm ("NOP");}
   893  0030  08F6               	movf	(_Count_Flag),f
   894  0031  1D03               	skipz
   895  0032  2834               	goto	u4101
   896  0033  2835               	goto	u4100
   897  0034                     u4101:
   898  0034  2840               	goto	l9933
   899  0035                     u4100:
   900                           	
   901  0035                     l9929:	
   902  0035  087A               	movf	(_Work_Flag),w
   903  0036  3A01               	xorlw	01h
   904  0037  1D03               	skipz
   905  0038  283A               	goto	u4111
   906  0039  283B               	goto	u4110
   907  003A                     u4111:
   908  003A  2840               	goto	l9933
   909  003B                     u4110:
   910                           	
   911  003B                     l9931:	
   912  003B  1283               	bcf	status, 5	;RP0=0, select bank0
   913  003C  1303               	bcf	status, 6	;RP1=0, select bank0
   914  003D  1406               	bsf	(6),0	;volatile
   915                           # 38 "main.c"
   916  003E  0000               NOP ;#
   917                           psect	maintext
   918  003F  284A               	goto	l3077
   919                           	line	39
   920                           	
   921  0040                     l3076:	
   922                           	
   923  0040                     l9933:	
   924                           ;main.c: 39: else if(Key_Run == 0 ) {PORTBbits.RB0 = 0;asm ("NOP");}
   925  0040  1283               	bcf	status, 5	;RP0=0, select bank0
   926  0041  1303               	bcf	status, 6	;RP1=0, select bank0
   927  0042  08B7               	movf	(_Key_Run),f
   928  0043  1D03               	skipz
   929  0044  2846               	goto	u4121
   930  0045  2847               	goto	u4120
   931  0046                     u4121:
   932  0046  284A               	goto	l3077
   933  0047                     u4120:
   934                           	
   935  0047                     l9935:	
   936  0047  1006               	bcf	(6),0	;volatile
   937                           # 39 "main.c"
   938  0048  0000               NOP ;#
   939                           psect	maintext
   940  0049  284A               	goto	l3077
   941                           	
   942  004A                     l3078:	
   943                           	line	41
   944                           	
   945  004A                     l3077:	
   946                           ;main.c: 41: for(i=0;i<100;i++)
   947  004A  1283               	bcf	status, 5	;RP0=0, select bank0
   948  004B  1303               	bcf	status, 6	;RP1=0, select bank0
   949  004C  01CE               	clrf	(main@i)
   950                           	
   951  004D                     l9937:	
   952  004D  3064               	movlw	(064h)
   953  004E  024E               	subwf	(main@i),w
   954  004F  1C03               	skipc
   955  0050  2852               	goto	u4131
   956  0051  2853               	goto	u4130
   957  0052                     u4131:
   958  0052  2855               	goto	l9941
   959  0053                     u4130:
   960  0053  286E               	goto	l9947
   961                           	
   962  0054                     l9939:	
   963  0054  286E               	goto	l9947
   964                           	line	42
   965                           	
   966  0055                     l3079:	
   967                           	line	43
   968                           	
   969  0055                     l9941:	
   970                           ;main.c: 42: {
   971                           ;main.c: 43: ADC_Val += ReadADC(3);
   972  0055  3003               	movlw	(03h)
   973  0056  120A  118A  259E   	fcall	_ReadADC
              120A  118A         
   974  005B  1283               	bcf	status, 5	;RP0=0, select bank0
   975  005C  1303               	bcf	status, 6	;RP1=0, select bank0
   976  005D  0845               	movf	(0+(?_ReadADC)),w
   977  005E  07A2               	addwf	(_ADC_Val),f
   978  005F  1803               	skipnc
   979  0060  0AA3               	incf	(_ADC_Val+1),f
   980  0061  0846               	movf	(1+(?_ReadADC)),w
   981  0062  07A3               	addwf	(_ADC_Val+1),f
   982                           	line	41
   983                           	
   984  0063                     l9943:	
   985  0063  3001               	movlw	(01h)
   986  0064  00CD               	movwf	(??_main+0)+0
   987  0065  084D               	movf	(??_main+0)+0,w
   988  0066  07CE               	addwf	(main@i),f
   989                           	
   990  0067                     l9945:	
   991  0067  3064               	movlw	(064h)
   992  0068  024E               	subwf	(main@i),w
   993  0069  1C03               	skipc
   994  006A  286C               	goto	u4141
   995  006B  286D               	goto	u4140
   996  006C                     u4141:
   997  006C  2855               	goto	l9941
   998  006D                     u4140:
   999  006D  286E               	goto	l9947
  1000                           	
  1001  006E                     l3080:	
  1002                           	line	45
  1003                           	
  1004  006E                     l9947:	
  1005                           ;main.c: 44: }
  1006                           ;main.c: 45: ADC_Val /=100;
  1007  006E  3064               	movlw	low(064h)
  1008  006F  00C5               	movwf	(?___lwdiv)
  1009  0070  3000               	movlw	high(064h)
  1010  0071  00C6               	movwf	((?___lwdiv))+1
  1011  0072  0823               	movf	(_ADC_Val+1),w
  1012  0073  01C8               	clrf	1+(?___lwdiv)+02h
  1013  0074  07C8               	addwf	1+(?___lwdiv)+02h
  1014  0075  0822               	movf	(_ADC_Val),w
  1015  0076  01C7               	clrf	0+(?___lwdiv)+02h
  1016  0077  07C7               	addwf	0+(?___lwdiv)+02h
  1017                           
  1018  0078  120A  118A  254E   	fcall	___lwdiv
              120A  118A         
  1019  007D  1283               	bcf	status, 5	;RP0=0, select bank0
  1020  007E  1303               	bcf	status, 6	;RP1=0, select bank0
  1021  007F  0846               	movf	(1+(?___lwdiv)),w
  1022  0080  01A3               	clrf	(_ADC_Val+1)
  1023  0081  07A3               	addwf	(_ADC_Val+1)
  1024  0082  0845               	movf	(0+(?___lwdiv)),w
  1025  0083  01A2               	clrf	(_ADC_Val)
  1026  0084  07A2               	addwf	(_ADC_Val)
  1027                           
  1028                           	line	46
  1029                           	
  1030  0085                     l9949:	
  1031                           ;main.c: 46: if(PORTAbits.RA5 == 1)
  1032  0085  1E85               	btfss	(5),5	;volatile
  1033  0086  2888               	goto	u4151
  1034  0087  2889               	goto	u4150
  1035  0088                     u4151:
  1036  0088  28A5               	goto	l9959
  1037  0089                     u4150:
  1038                           	line	48
  1039                           	
  1040  0089                     l9951:	
  1041                           ;main.c: 47: {
  1042                           ;main.c: 48: if(ADC_Val < 590) {PORTBbits.RB3 = 1;asm ("NOP");}
  1043  0089  3002               	movlw	high(024Eh)
  1044  008A  0223               	subwf	(_ADC_Val+1),w
  1045  008B  304E               	movlw	low(024Eh)
  1046  008C  1903               	skipnz
  1047  008D  0222               	subwf	(_ADC_Val),w
  1048  008E  1803               	skipnc
  1049  008F  2891               	goto	u4161
  1050  0090  2892               	goto	u4160
  1051  0091                     u4161:
  1052  0091  2895               	goto	l9955
  1053  0092                     u4160:
  1054                           	
  1055  0092                     l9953:	
  1056  0092  1586               	bsf	(6),3	;volatile
  1057                           # 48 "main.c"
  1058  0093  0000               NOP ;#
  1059                           psect	maintext
  1060  0094  28F5               	goto	l9979
  1061                           	line	49
  1062                           	
  1063  0095                     l3082:	
  1064                           	
  1065  0095                     l9955:	
  1066                           ;main.c: 49: else if(ADC_Val > 595) {PORTBbits.RB3 = 0;asm ("NOP");}
  1067  0095  3002               	movlw	high(0254h)
  1068  0096  1283               	bcf	status, 5	;RP0=0, select bank0
  1069  0097  1303               	bcf	status, 6	;RP1=0, select bank0
  1070  0098  0223               	subwf	(_ADC_Val+1),w
  1071  0099  3054               	movlw	low(0254h)
  1072  009A  1903               	skipnz
  1073  009B  0222               	subwf	(_ADC_Val),w
  1074  009C  1C03               	skipc
  1075  009D  289F               	goto	u4171
  1076  009E  28A0               	goto	u4170
  1077  009F                     u4171:
  1078  009F  28F5               	goto	l9979
  1079  00A0                     u4170:
  1080                           	
  1081  00A0                     l9957:	
  1082  00A0  1186               	bcf	(6),3	;volatile
  1083                           # 49 "main.c"
  1084  00A1  0000               NOP ;#
  1085                           psect	maintext
  1086  00A2  28F5               	goto	l9979
  1087                           	
  1088  00A3                     l3084:	
  1089  00A3  28F5               	goto	l9979
  1090                           	line	50
  1091                           	
  1092  00A4                     l3083:	
  1093                           ;main.c: 50: }
  1094  00A4  28F5               	goto	l9979
  1095                           	line	51
  1096                           	
  1097  00A5                     l3081:	
  1098                           	line	53
  1099                           	
  1100  00A5                     l9959:	
  1101                           ;main.c: 51: else
  1102                           ;main.c: 52: {
  1103                           ;main.c: 53: if(ADC_Val< 510)
  1104  00A5  3001               	movlw	high(01FEh)
  1105  00A6  1283               	bcf	status, 5	;RP0=0, select bank0
  1106  00A7  1303               	bcf	status, 6	;RP1=0, select bank0
  1107  00A8  0223               	subwf	(_ADC_Val+1),w
  1108  00A9  30FE               	movlw	low(01FEh)
  1109  00AA  1903               	skipnz
  1110  00AB  0222               	subwf	(_ADC_Val),w
  1111  00AC  1803               	skipnc
  1112  00AD  28AF               	goto	u4181
  1113  00AE  28B0               	goto	u4180
  1114  00AF                     u4181:
  1115  00AF  28CD               	goto	l9969
  1116  00B0                     u4180:
  1117                           	line	55
  1118                           	
  1119  00B0                     l9961:	
  1120                           ;main.c: 54: {
  1121                           ;main.c: 55: PORTBbits.RB3 = 1;asm ("NOP");
  1122  00B0  1586               	bsf	(6),3	;volatile
  1123                           # 55 "main.c"
  1124  00B1  0000               NOP ;#
  1125                           psect	maintext
  1126                           	line	56
  1127                           	
  1128  00B2                     l9963:	
  1129                           ;main.c: 56: delaynms(50);
  1130  00B2  3032               	movlw	low(032h)
  1131  00B3  1283               	bcf	status, 5	;RP0=0, select bank0
  1132  00B4  1303               	bcf	status, 6	;RP1=0, select bank0
  1133  00B5  00C5               	movwf	(?_delaynms)
  1134  00B6  3000               	movlw	high(032h)
  1135  00B7  00C6               	movwf	((?_delaynms))+1
  1136  00B8  120A  118A  25E3   	fcall	_delaynms
              120A  118A         
  1137                           	line	57
  1138                           	
  1139  00BD                     l9965:	
  1140                           ;main.c: 57: PORTBbits.RB3 = 0;asm ("NOP");
  1141  00BD  1283               	bcf	status, 5	;RP0=0, select bank0
  1142  00BE  1303               	bcf	status, 6	;RP1=0, select bank0
  1143  00BF  1186               	bcf	(6),3	;volatile
  1144                           	
  1145  00C0                     l9967:	
  1146                           # 57 "main.c"
  1147  00C0  0000               NOP ;#
  1148                           psect	maintext
  1149                           	line	58
  1150                           ;main.c: 58: delaynms(50);
  1151  00C1  3032               	movlw	low(032h)
  1152  00C2  1283               	bcf	status, 5	;RP0=0, select bank0
  1153  00C3  1303               	bcf	status, 6	;RP1=0, select bank0
  1154  00C4  00C5               	movwf	(?_delaynms)
  1155  00C5  3000               	movlw	high(032h)
  1156  00C6  00C6               	movwf	((?_delaynms))+1
  1157  00C7  120A  118A  25E3   	fcall	_delaynms
              120A  118A         
  1158                           	line	59
  1159                           ;main.c: 59: }
  1160  00CC  28F5               	goto	l9979
  1161                           	line	60
  1162                           	
  1163  00CD                     l3086:	
  1164                           	
  1165  00CD                     l9969:	
  1166                           ;main.c: 60: else if((ADC_Val >= 510) && (ADC_Val <595)) {PORTBbits.RB3 = 1;asm ("NOP");
                                 }
  1167  00CD  3001               	movlw	high(01FEh)
  1168  00CE  1283               	bcf	status, 5	;RP0=0, select bank0
  1169  00CF  1303               	bcf	status, 6	;RP1=0, select bank0
  1170  00D0  0223               	subwf	(_ADC_Val+1),w
  1171  00D1  30FE               	movlw	low(01FEh)
  1172  00D2  1903               	skipnz
  1173  00D3  0222               	subwf	(_ADC_Val),w
  1174  00D4  1C03               	skipc
  1175  00D5  28D7               	goto	u4191
  1176  00D6  28D8               	goto	u4190
  1177  00D7                     u4191:
  1178  00D7  28E4               	goto	l9975
  1179  00D8                     u4190:
  1180                           	
  1181  00D8                     l9971:	
  1182  00D8  3002               	movlw	high(0253h)
  1183  00D9  0223               	subwf	(_ADC_Val+1),w
  1184  00DA  3053               	movlw	low(0253h)
  1185  00DB  1903               	skipnz
  1186  00DC  0222               	subwf	(_ADC_Val),w
  1187  00DD  1803               	skipnc
  1188  00DE  28E0               	goto	u4201
  1189  00DF  28E1               	goto	u4200
  1190  00E0                     u4201:
  1191  00E0  28E4               	goto	l9975
  1192  00E1                     u4200:
  1193                           	
  1194  00E1                     l9973:	
  1195  00E1  1586               	bsf	(6),3	;volatile
  1196                           # 60 "main.c"
  1197  00E2  0000               NOP ;#
  1198                           psect	maintext
  1199  00E3  28F5               	goto	l9979
  1200                           	line	61
  1201                           	
  1202  00E4                     l3088:	
  1203                           	
  1204  00E4                     l9975:	
  1205                           ;main.c: 61: else if(ADC_Val >= 595) {PORTBbits.RB3 = 0;asm ("NOP");}
  1206  00E4  3002               	movlw	high(0253h)
  1207  00E5  1283               	bcf	status, 5	;RP0=0, select bank0
  1208  00E6  1303               	bcf	status, 6	;RP1=0, select bank0
  1209  00E7  0223               	subwf	(_ADC_Val+1),w
  1210  00E8  3053               	movlw	low(0253h)
  1211  00E9  1903               	skipnz
  1212  00EA  0222               	subwf	(_ADC_Val),w
  1213  00EB  1C03               	skipc
  1214  00EC  28EE               	goto	u4211
  1215  00ED  28EF               	goto	u4210
  1216  00EE                     u4211:
  1217  00EE  28F5               	goto	l9979
  1218  00EF                     u4210:
  1219                           	
  1220  00EF                     l9977:	
  1221  00EF  1186               	bcf	(6),3	;volatile
  1222                           # 61 "main.c"
  1223  00F0  0000               NOP ;#
  1224                           psect	maintext
  1225  00F1  28F5               	goto	l9979
  1226                           	
  1227  00F2                     l3090:	
  1228  00F2  28F5               	goto	l9979
  1229                           	line	62
  1230                           	
  1231  00F3                     l3089:	
  1232  00F3  28F5               	goto	l9979
  1233                           	
  1234  00F4                     l3087:	
  1235  00F4  28F5               	goto	l9979
  1236                           	
  1237  00F5                     l3085:	
  1238                           	line	65
  1239                           	
  1240  00F5                     l9979:	
  1241                           ;main.c: 62: }
  1242                           ;main.c: 65: if((Onekey_Flag == 1) &&(Work_Flag == 0))
  1243  00F5  1283               	bcf	status, 5	;RP0=0, select bank0
  1244  00F6  1303               	bcf	status, 6	;RP1=0, select bank0
  1245  00F7  083A               	movf	(_Onekey_Flag),w
  1246  00F8  3A01               	xorlw	01h
  1247  00F9  1D03               	skipz
  1248  00FA  28FC               	goto	u4221
  1249  00FB  28FD               	goto	u4220
  1250  00FC                     u4221:
  1251  00FC  2910               	goto	l9987
  1252  00FD                     u4220:
  1253                           	
  1254  00FD                     l9981:	
  1255  00FD  08FA               	movf	(_Work_Flag),f
  1256  00FE  1D03               	skipz
  1257  00FF  2901               	goto	u4231
  1258  0100  2902               	goto	u4230
  1259  0101                     u4231:
  1260  0101  2910               	goto	l9987
  1261  0102                     u4230:
  1262                           	line	67
  1263                           	
  1264  0102                     l9983:	
  1265                           ;main.c: 66: {
  1266                           ;main.c: 67: PORTCbits.RC0= 1;asm ("NOP");
  1267  0102  1407               	bsf	(7),0	;volatile
  1268                           # 67 "main.c"
  1269  0103  0000               NOP ;#
  1270                           psect	maintext
  1271                           	line	68
  1272                           ;main.c: 68: PORTAbits.RA4= 1;asm ("NOP");
  1273  0104  1283               	bcf	status, 5	;RP0=0, select bank0
  1274  0105  1303               	bcf	status, 6	;RP1=0, select bank0
  1275  0106  1605               	bsf	(5),4	;volatile
  1276                           # 68 "main.c"
  1277  0107  0000               NOP ;#
  1278                           psect	maintext
  1279                           	line	69
  1280                           ;main.c: 69: PORTBbits.RB5 = 1;asm ("NOP");
  1281  0108  1283               	bcf	status, 5	;RP0=0, select bank0
  1282  0109  1303               	bcf	status, 6	;RP1=0, select bank0
  1283  010A  1686               	bsf	(6),5	;volatile
  1284                           # 69 "main.c"
  1285  010B  0000               NOP ;#
  1286                           psect	maintext
  1287                           	line	70
  1288                           	
  1289  010C                     l9985:	
  1290                           ;main.c: 70: Not_two = 1;
  1291  010C  01F9               	clrf	(_Not_two)
  1292  010D  1403               	bsf	status,0
  1293  010E  0DF9               	rlf	(_Not_two),f
  1294  010F  2910               	goto	l9987
  1295                           	line	71
  1296                           	
  1297  0110                     l3091:	
  1298                           	line	72
  1299                           	
  1300  0110                     l9987:	
  1301                           ;main.c: 71: }
  1302                           ;main.c: 72: if((Onekey_Flag == 2) && (Work_Flag == 0))
  1303  0110  1283               	bcf	status, 5	;RP0=0, select bank0
  1304  0111  1303               	bcf	status, 6	;RP1=0, select bank0
  1305  0112  083A               	movf	(_Onekey_Flag),w
  1306  0113  3A02               	xorlw	02h
  1307  0114  1D03               	skipz
  1308  0115  2917               	goto	u4241
  1309  0116  2918               	goto	u4240
  1310  0117                     u4241:
  1311  0117  293F               	goto	l10015
  1312  0118                     u4240:
  1313                           	
  1314  0118                     l9989:	
  1315  0118  08FA               	movf	(_Work_Flag),f
  1316  0119  1D03               	skipz
  1317  011A  291C               	goto	u4251
  1318  011B  291D               	goto	u4250
  1319  011C                     u4251:
  1320  011C  293F               	goto	l10015
  1321  011D                     u4250:
  1322                           	line	74
  1323                           	
  1324  011D                     l9991:	
  1325                           ;main.c: 73: {
  1326                           ;main.c: 74: PORTAbits.RA2 = 1;asm ("NOP");
  1327  011D  1505               	bsf	(5),2	;volatile
  1328                           # 74 "main.c"
  1329  011E  0000               NOP ;#
  1330                           psect	maintext
  1331                           	line	75
  1332                           	
  1333  011F                     l9993:	
  1334                           ;main.c: 75: delaynms(10);
  1335  011F  300A               	movlw	low(0Ah)
  1336  0120  1283               	bcf	status, 5	;RP0=0, select bank0
  1337  0121  1303               	bcf	status, 6	;RP1=0, select bank0
  1338  0122  00C5               	movwf	(?_delaynms)
  1339  0123  3000               	movlw	high(0Ah)
  1340  0124  00C6               	movwf	((?_delaynms))+1
  1341  0125  120A  118A  25E3   	fcall	_delaynms
              120A  118A         
  1342                           	line	76
  1343                           	
  1344  012A                     l9995:	
  1345                           ;main.c: 76: PORTAbits.RA2 = 0;asm ("NOP");
  1346  012A  1283               	bcf	status, 5	;RP0=0, select bank0
  1347  012B  1303               	bcf	status, 6	;RP1=0, select bank0
  1348  012C  1105               	bcf	(5),2	;volatile
  1349                           	
  1350  012D                     l9997:	
  1351                           # 76 "main.c"
  1352  012D  0000               NOP ;#
  1353                           psect	maintext
  1354                           	line	77
  1355                           	
  1356  012E                     l9999:	
  1357                           ;main.c: 77: PORTCbits.RC0 = 0;asm ("NOP");
  1358  012E  1283               	bcf	status, 5	;RP0=0, select bank0
  1359  012F  1303               	bcf	status, 6	;RP1=0, select bank0
  1360  0130  1007               	bcf	(7),0	;volatile
  1361                           	
  1362  0131                     l10001:	
  1363                           # 77 "main.c"
  1364  0131  0000               NOP ;#
  1365                           psect	maintext
  1366                           	line	78
  1367                           	
  1368  0132                     l10003:	
  1369                           ;main.c: 78: PORTAbits.RA4 = 0;asm ("NOP");
  1370  0132  1283               	bcf	status, 5	;RP0=0, select bank0
  1371  0133  1303               	bcf	status, 6	;RP1=0, select bank0
  1372  0134  1205               	bcf	(5),4	;volatile
  1373                           	
  1374  0135                     l10005:	
  1375                           # 78 "main.c"
  1376  0135  0000               NOP ;#
  1377                           psect	maintext
  1378                           	line	79
  1379                           	
  1380  0136                     l10007:	
  1381                           ;main.c: 79: PORTBbits.RB5 = 0;asm ("NOP");
  1382  0136  1283               	bcf	status, 5	;RP0=0, select bank0
  1383  0137  1303               	bcf	status, 6	;RP1=0, select bank0
  1384  0138  1286               	bcf	(6),5	;volatile
  1385                           	
  1386  0139                     l10009:	
  1387                           # 79 "main.c"
  1388  0139  0000               NOP ;#
  1389                           psect	maintext
  1390                           	line	80
  1391                           	
  1392  013A                     l10011:	
  1393                           ;main.c: 80: Not_two = 0;
  1394  013A  01F9               	clrf	(_Not_two)
  1395                           	line	81
  1396                           	
  1397  013B                     l10013:	
  1398                           ;main.c: 81: Onekey_Flag = 0;
  1399  013B  1283               	bcf	status, 5	;RP0=0, select bank0
  1400  013C  1303               	bcf	status, 6	;RP1=0, select bank0
  1401  013D  01BA               	clrf	(_Onekey_Flag)
  1402  013E  293F               	goto	l10015
  1403                           	line	82
  1404                           	
  1405  013F                     l3092:	
  1406                           	line	84
  1407                           	
  1408  013F                     l10015:	
  1409                           ;main.c: 82: }
  1410                           ;main.c: 84: if((PORTAbits.RA1 == 0) && (Not_two == 1))
  1411  013F  1885               	btfsc	(5),1	;volatile
  1412  0140  2942               	goto	u4261
  1413  0141  2943               	goto	u4260
  1414  0142                     u4261:
  1415  0142  2A0F               	goto	l3093
  1416  0143                     u4260:
  1417                           	
  1418  0143                     l10017:	
  1419  0143  0879               	movf	(_Not_two),w
  1420  0144  3A01               	xorlw	01h
  1421  0145  1D03               	skipz
  1422  0146  2948               	goto	u4271
  1423  0147  2949               	goto	u4270
  1424  0148                     u4271:
  1425  0148  2A0F               	goto	l3093
  1426  0149                     u4270:
  1427                           	line	86
  1428                           	
  1429  0149                     l10019:	
  1430                           ;main.c: 85: {
  1431                           ;main.c: 86: if(Key_Run == 1)
  1432  0149  0837               	movf	(_Key_Run),w
  1433  014A  3A01               	xorlw	01h
  1434  014B  1D03               	skipz
  1435  014C  294E               	goto	u4281
  1436  014D  294F               	goto	u4280
  1437  014E                     u4281:
  1438  014E  29DB               	goto	l10059
  1439  014F                     u4280:
  1440                           	line	88
  1441                           	
  1442  014F                     l10021:	
  1443                           ;main.c: 87: {
  1444                           ;main.c: 88: WDTCONbits.SWDTEN = 1;
  1445  014F  1283               	bcf	status, 5	;RP0=0, select bank2
  1446  0150  1703               	bsf	status, 6	;RP1=1, select bank2
  1447  0151  1405               	bsf	(261)^0100h,0	;volatile
  1448                           	line	89
  1449                           # 89 "main.c"
  1450  0152  0064               clrwdt ;#
  1451                           psect	maintext
  1452                           	line	90
  1453                           ;main.c: 90: while(Initial_Flag == 0)
  1454  0153  2991               	goto	l10033
  1455                           	
  1456  0154                     l3096:	
  1457                           	line	92
  1458                           	
  1459  0154                     l10023:	
  1460                           ;main.c: 91: {
  1461                           ;main.c: 92: Work_Flag = 1;
  1462  0154  01FA               	clrf	(_Work_Flag)
  1463  0155  1403               	bsf	status,0
  1464  0156  0DFA               	rlf	(_Work_Flag),f
  1465                           	line	93
  1466                           ;main.c: 93: Count_Flag = 1;
  1467  0157  01F6               	clrf	(_Count_Flag)
  1468  0158  1403               	bsf	status,0
  1469  0159  0DF6               	rlf	(_Count_Flag),f
  1470                           	line	94
  1471                           	
  1472  015A                     l10025:	
  1473                           ;main.c: 94: write_IIC(0x03,0x33 );
  1474  015A  3033               	movlw	(033h)
  1475  015B  1283               	bcf	status, 5	;RP0=0, select bank0
  1476  015C  1303               	bcf	status, 6	;RP1=0, select bank0
  1477  015D  00CD               	movwf	(??_main+0)+0
  1478  015E  084D               	movf	(??_main+0)+0,w
  1479  015F  00C7               	movwf	(?_write_IIC)
  1480  0160  3003               	movlw	(03h)
  1481  0161  120A  118A  2343   	fcall	_write_IIC
              120A  118A         
  1482                           	line	95
  1483                           	
  1484  0166                     l10027:	
  1485                           ;main.c: 95: delaynms(1);
  1486  0166  3001               	movlw	low(01h)
  1487  0167  1283               	bcf	status, 5	;RP0=0, select bank0
  1488  0168  1303               	bcf	status, 6	;RP1=0, select bank0
  1489  0169  00C5               	movwf	(?_delaynms)
  1490  016A  3000               	movlw	high(01h)
  1491  016B  00C6               	movwf	((?_delaynms))+1
  1492  016C  120A  118A  25E3   	fcall	_delaynms
              120A  118A         
  1493                           	line	96
  1494                           	
  1495  0171                     l10029:	
  1496                           ;main.c: 96: write_IIC(0x04,0x4c );
  1497  0171  304C               	movlw	(04Ch)
  1498  0172  1283               	bcf	status, 5	;RP0=0, select bank0
  1499  0173  1303               	bcf	status, 6	;RP1=0, select bank0
  1500  0174  00CD               	movwf	(??_main+0)+0
  1501  0175  084D               	movf	(??_main+0)+0,w
  1502  0176  00C7               	movwf	(?_write_IIC)
  1503  0177  3004               	movlw	(04h)
  1504  0178  120A  118A  2343   	fcall	_write_IIC
              120A  118A         
  1505                           	line	97
  1506                           	
  1507  017D                     l10031:	
  1508                           ;main.c: 97: delaynms(1);
  1509  017D  3001               	movlw	low(01h)
  1510  017E  1283               	bcf	status, 5	;RP0=0, select bank0
  1511  017F  1303               	bcf	status, 6	;RP1=0, select bank0
  1512  0180  00C5               	movwf	(?_delaynms)
  1513  0181  3000               	movlw	high(01h)
  1514  0182  00C6               	movwf	((?_delaynms))+1
  1515  0183  120A  118A  25E3   	fcall	_delaynms
              120A  118A         
  1516                           	line	98
  1517                           ;main.c: 98: Initial_Flag = 1;
  1518  0188  1283               	bcf	status, 5	;RP0=0, select bank0
  1519  0189  1303               	bcf	status, 6	;RP1=0, select bank0
  1520  018A  01B6               	clrf	(_Initial_Flag)
  1521  018B  1403               	bsf	status,0
  1522  018C  0DB6               	rlf	(_Initial_Flag),f
  1523                           	line	99
  1524                           ;main.c: 99: kai = 1;
  1525  018D  01C4               	clrf	(_kai)
  1526  018E  1403               	bsf	status,0
  1527  018F  0DC4               	rlf	(_kai),f
  1528                           	line	100
  1529                           ;main.c: 100: break;
  1530  0190  2998               	goto	l10035
  1531                           	line	101
  1532                           	
  1533  0191                     l3095:	
  1534                           	line	90
  1535                           	
  1536  0191                     l10033:	
  1537  0191  1283               	bcf	status, 5	;RP0=0, select bank0
  1538  0192  1303               	bcf	status, 6	;RP1=0, select bank0
  1539  0193  0836               	movf	(_Initial_Flag),w
  1540  0194  1D03               	skipz
  1541  0195  2997               	goto	u4290
  1542  0196  2954               	goto	l10023
  1543  0197                     u4290:
  1544  0197  2998               	goto	l10035
  1545                           	
  1546  0198                     l3097:	
  1547                           	line	102
  1548                           	
  1549  0198                     l10035:	
  1550                           ;main.c: 101: }
  1551                           ;main.c: 102: if((Start_Flag == 0)&&(kai == 1))
  1552  0198  08BE               	movf	(_Start_Flag),f
  1553  0199  1D03               	skipz
  1554  019A  299C               	goto	u4301
  1555  019B  299D               	goto	u4300
  1556  019C                     u4301:
  1557  019C  29AA               	goto	l10043
  1558  019D                     u4300:
  1559                           	
  1560  019D                     l10037:	
  1561  019D  0844               	movf	(_kai),w
  1562  019E  3A01               	xorlw	01h
  1563  019F  1D03               	skipz
  1564  01A0  29A2               	goto	u4311
  1565  01A1  29A3               	goto	u4310
  1566  01A2                     u4311:
  1567  01A2  29AA               	goto	l10043
  1568  01A3                     u4310:
  1569                           	line	104
  1570                           	
  1571  01A3                     l10039:	
  1572                           # 104 "main.c"
  1573  01A3  0064               clrwdt ;#
  1574                           psect	maintext
  1575                           	line	105
  1576                           	
  1577  01A4                     l10041:	
  1578                           ;main.c: 105: Motor_adjusting_speed();
  1579  01A4  120A  118A  24F2   	fcall	_Motor_adjusting_speed
              120A  118A         
  1580                           	line	106
  1581                           ;main.c: 106: }
  1582  01A9  2824               	goto	l9923
  1583                           	line	107
  1584                           	
  1585  01AA                     l3098:	
  1586                           	
  1587  01AA                     l10043:	
  1588                           ;main.c: 107: else if(Stop_Flag == 1)
  1589  01AA  1283               	bcf	status, 5	;RP0=0, select bank0
  1590  01AB  1303               	bcf	status, 6	;RP1=0, select bank0
  1591  01AC  0840               	movf	(_Stop_Flag),w
  1592  01AD  3A01               	xorlw	01h
  1593  01AE  1D03               	skipz
  1594  01AF  29B1               	goto	u4321
  1595  01B0  29B2               	goto	u4320
  1596  01B1                     u4321:
  1597  01B1  2824               	goto	l9923
  1598  01B2                     u4320:
  1599                           	line	109
  1600                           	
  1601  01B2                     l10045:	
  1602                           ;main.c: 108: {
  1603                           ;main.c: 109: Open_Cover_Flag = 1;
  1604  01B2  01BD               	clrf	(_Open_Cover_Flag)
  1605  01B3  1403               	bsf	status,0
  1606  01B4  0DBD               	rlf	(_Open_Cover_Flag),f
  1607                           	line	110
  1608                           ;main.c: 110: if(Once == 0)
  1609  01B5  08B9               	movf	(_Once),f
  1610  01B6  1D03               	skipz
  1611  01B7  29B9               	goto	u4331
  1612  01B8  29BA               	goto	u4330
  1613  01B9                     u4331:
  1614  01B9  29C8               	goto	l10053
  1615  01BA                     u4330:
  1616                           	line	112
  1617                           	
  1618  01BA                     l10047:	
  1619                           ;main.c: 111: {
  1620                           ;main.c: 112: MotorClose();
  1621  01BA  120A  118A  2239   	fcall	_MotorClose
              120A  118A         
  1622                           	line	113
  1623                           	
  1624  01BF                     l10049:	
  1625                           ;main.c: 113: Once = 1;
  1626  01BF  1283               	bcf	status, 5	;RP0=0, select bank0
  1627  01C0  1303               	bcf	status, 6	;RP1=0, select bank0
  1628  01C1  01B9               	clrf	(_Once)
  1629  01C2  1403               	bsf	status,0
  1630  01C3  0DB9               	rlf	(_Once),f
  1631                           	line	114
  1632                           	
  1633  01C4                     l10051:	
  1634                           ;main.c: 114: Forbid_input = 1;
  1635  01C4  01B5               	clrf	(_Forbid_input)
  1636  01C5  1403               	bsf	status,0
  1637  01C6  0DB5               	rlf	(_Forbid_input),f
  1638  01C7  29C8               	goto	l10053
  1639                           	line	115
  1640                           	
  1641  01C8                     l3101:	
  1642                           	line	116
  1643                           	
  1644  01C8                     l10053:	
  1645                           ;main.c: 115: }
  1646                           ;main.c: 116: Count_Flag=0;
  1647  01C8  01F6               	clrf	(_Count_Flag)
  1648                           	line	117
  1649                           	
  1650  01C9                     l10055:	
  1651                           ;main.c: 117: if(Open_Cover_times >= 2700)
  1652  01C9  300A               	movlw	high(0A8Ch)
  1653  01CA  022F               	subwf	(_Open_Cover_times+1),w
  1654  01CB  308C               	movlw	low(0A8Ch)
  1655  01CC  1903               	skipnz
  1656  01CD  022E               	subwf	(_Open_Cover_times),w
  1657  01CE  1C03               	skipc
  1658  01CF  29D1               	goto	u4341
  1659  01D0  29D2               	goto	u4340
  1660  01D1                     u4341:
  1661  01D1  2824               	goto	l9923
  1662  01D2                     u4340:
  1663                           	line	119
  1664                           	
  1665  01D2                     l10057:	
  1666                           ;main.c: 118: {
  1667                           ;main.c: 119: The_Close();
  1668  01D2  120A  118A  2678   	fcall	_The_Close
              120A  118A         
  1669  01D7  2824               	goto	l9923
  1670                           	line	120
  1671                           	
  1672  01D8                     l3102:	
  1673  01D8  2824               	goto	l9923
  1674                           	line	121
  1675                           	
  1676  01D9                     l3100:	
  1677  01D9  2824               	goto	l9923
  1678                           	line	122
  1679                           	
  1680  01DA                     l3099:	
  1681                           ;main.c: 120: }
  1682                           ;main.c: 121: }
  1683                           ;main.c: 122: }
  1684  01DA  2824               	goto	l9923
  1685                           	line	123
  1686                           	
  1687  01DB                     l3094:	
  1688                           	
  1689  01DB                     l10059:	
  1690                           ;main.c: 123: else if(Key_Run == 2)
  1691  01DB  1283               	bcf	status, 5	;RP0=0, select bank0
  1692  01DC  1303               	bcf	status, 6	;RP1=0, select bank0
  1693  01DD  0837               	movf	(_Key_Run),w
  1694  01DE  3A02               	xorlw	02h
  1695  01DF  1D03               	skipz
  1696  01E0  29E2               	goto	u4351
  1697  01E1  29E3               	goto	u4350
  1698  01E2                     u4351:
  1699  01E2  2824               	goto	l9923
  1700  01E3                     u4350:
  1701                           	line	125
  1702                           	
  1703  01E3                     l10061:	
  1704                           # 125 "main.c"
  1705  01E3  0064               clrwdt ;#
  1706                           psect	maintext
  1707                           	line	126
  1708                           	
  1709  01E4                     l10063:	
  1710                           ;main.c: 126: Open_Cover_Flag = 1;
  1711  01E4  1283               	bcf	status, 5	;RP0=0, select bank0
  1712  01E5  1303               	bcf	status, 6	;RP1=0, select bank0
  1713  01E6  01BD               	clrf	(_Open_Cover_Flag)
  1714  01E7  1403               	bsf	status,0
  1715  01E8  0DBD               	rlf	(_Open_Cover_Flag),f
  1716                           	line	127
  1717                           ;main.c: 127: Forbid_input = 1;
  1718  01E9  01B5               	clrf	(_Forbid_input)
  1719  01EA  1403               	bsf	status,0
  1720  01EB  0DB5               	rlf	(_Forbid_input),f
  1721                           	line	128
  1722                           ;main.c: 128: if(Once == 0)
  1723  01EC  08B9               	movf	(_Once),f
  1724  01ED  1D03               	skipz
  1725  01EE  29F0               	goto	u4361
  1726  01EF  29F1               	goto	u4360
  1727  01F0                     u4361:
  1728  01F0  29FC               	goto	l10069
  1729  01F1                     u4360:
  1730                           	line	130
  1731                           	
  1732  01F1                     l10065:	
  1733                           ;main.c: 129: {
  1734                           ;main.c: 130: MotorClose();
  1735  01F1  120A  118A  2239   	fcall	_MotorClose
              120A  118A         
  1736                           	line	131
  1737                           	
  1738  01F6                     l10067:	
  1739                           ;main.c: 131: Once = 1;
  1740  01F6  1283               	bcf	status, 5	;RP0=0, select bank0
  1741  01F7  1303               	bcf	status, 6	;RP1=0, select bank0
  1742  01F8  01B9               	clrf	(_Once)
  1743  01F9  1403               	bsf	status,0
  1744  01FA  0DB9               	rlf	(_Once),f
  1745  01FB  29FC               	goto	l10069
  1746                           	line	132
  1747                           	
  1748  01FC                     l3105:	
  1749                           	line	133
  1750                           	
  1751  01FC                     l10069:	
  1752                           ;main.c: 132: }
  1753                           ;main.c: 133: Count_Flag=0;
  1754  01FC  01F6               	clrf	(_Count_Flag)
  1755                           	line	134
  1756                           	
  1757  01FD                     l10071:	
  1758                           ;main.c: 134: if(Open_Cover_times >= 2700)
  1759  01FD  300A               	movlw	high(0A8Ch)
  1760  01FE  022F               	subwf	(_Open_Cover_times+1),w
  1761  01FF  308C               	movlw	low(0A8Ch)
  1762  0200  1903               	skipnz
  1763  0201  022E               	subwf	(_Open_Cover_times),w
  1764  0202  1C03               	skipc
  1765  0203  2A05               	goto	u4371
  1766  0204  2A06               	goto	u4370
  1767  0205                     u4371:
  1768  0205  2824               	goto	l9923
  1769  0206                     u4370:
  1770                           	line	136
  1771                           	
  1772  0206                     l10073:	
  1773                           ;main.c: 135: {
  1774                           ;main.c: 136: The_Close();
  1775  0206  120A  118A  2678   	fcall	_The_Close
              120A  118A         
  1776  020B  2824               	goto	l9923
  1777                           	line	137
  1778                           	
  1779  020C                     l3106:	
  1780  020C  2824               	goto	l9923
  1781                           	line	138
  1782                           	
  1783  020D                     l3104:	
  1784  020D  2824               	goto	l9923
  1785                           	line	139
  1786                           	
  1787  020E                     l3103:	
  1788                           ;main.c: 137: }
  1789                           ;main.c: 138: }
  1790                           ;main.c: 139: }
  1791  020E  2824               	goto	l9923
  1792                           	line	140
  1793                           	
  1794  020F                     l3093:	
  1795                           ;main.c: 140: else if (PORTAbits.RA1 != 0) write_IIC(0x00,0x00 );
  1796  020F  1C85               	btfss	(5),1	;volatile
  1797  0210  2A12               	goto	u4381
  1798  0211  2A13               	goto	u4380
  1799  0212                     u4381:
  1800  0212  2A1B               	goto	l3108
  1801  0213                     u4380:
  1802                           	
  1803  0213                     l10075:	
  1804  0213  01C7               	clrf	(?_write_IIC)
  1805  0214  3000               	movlw	(0)
  1806  0215  120A  118A  2343   	fcall	_write_IIC
              120A  118A         
  1807  021A  2824               	goto	l9923
  1808                           	line	141
  1809                           	
  1810  021B                     l3108:	
  1811                           ;main.c: 141: else if((PORTAbits.RA1 != 0) && (Initial_Flag == 1))
  1812  021B  1C85               	btfss	(5),1	;volatile
  1813  021C  2A1E               	goto	u4391
  1814  021D  2A1F               	goto	u4390
  1815  021E                     u4391:
  1816  021E  2824               	goto	l9923
  1817  021F                     u4390:
  1818                           	
  1819  021F                     l10077:	
  1820  021F  0836               	movf	(_Initial_Flag),w
  1821  0220  3A01               	xorlw	01h
  1822  0221  1D03               	skipz
  1823  0222  2A24               	goto	u4401
  1824  0223  2A25               	goto	u4400
  1825  0224                     u4401:
  1826  0224  2824               	goto	l9923
  1827  0225                     u4400:
  1828  0225  2A26               	goto	l10079
  1829                           	line	143
  1830                           ;main.c: 142: {
  1831                           ;main.c: 143: while(1)
  1832                           	
  1833  0226                     l3111:	
  1834                           	line	145
  1835                           	
  1836  0226                     l10079:	
  1837                           ;main.c: 144: {
  1838                           ;main.c: 145: write_IIC(0x00,0x00 ); ;
  1839  0226  1283               	bcf	status, 5	;RP0=0, select bank0
  1840  0227  1303               	bcf	status, 6	;RP1=0, select bank0
  1841  0228  01C7               	clrf	(?_write_IIC)
  1842  0229  3000               	movlw	(0)
  1843  022A  120A  118A  2343   	fcall	_write_IIC
              120A  118A         
  1844  022F  2A26               	goto	l10079
  1845                           	line	146
  1846                           	
  1847  0230                     l3112:	
  1848                           	line	143
  1849  0230  2A26               	goto	l10079
  1850                           	
  1851  0231                     l3113:	
  1852  0231  2824               	goto	l9923
  1853                           	line	147
  1854                           	
  1855  0232                     l3110:	
  1856  0232  2824               	goto	l9923
  1857                           	line	148
  1858                           	
  1859  0233                     l3109:	
  1860  0233  2824               	goto	l9923
  1861                           	
  1862  0234                     l3107:	
  1863  0234  2824               	goto	l9923
  1864                           	
  1865  0235                     l3114:	
  1866                           	line	32
  1867  0235  2824               	goto	l9923
  1868                           	
  1869  0236                     l3115:	
  1870                           	line	149
  1871                           	
  1872  0236                     l3116:	
  1873                           	global	start
  1874  0236  120A  118A  2812   	ljmp	start
  1875                           	opt stack 0
  1876                           GLOBAL	__end_of_main
  1877  0239                     	__end_of_main:
  1878 ;; =============== function _main ends ============
  1879                           
  1880                           	signat	_main,88
  1881                           	global	_MotorClose
  1882                           psect	text825,local,class=CODE,delta=2
  1883                           global __ptext825
  1884  0239                     __ptext825:
  1885                           
  1886 ;; *************** function _MotorClose *****************
  1887 ;; Defined at:
  1888 ;;		line 40 in file "work.c"
  1889 ;; Parameters:    Size  Location     Type
  1890 ;;		None
  1891 ;; Auto vars:     Size  Location     Type
  1892 ;;		None
  1893 ;; Return value:  Size  Location     Type
  1894 ;;		None               void
  1895 ;; Registers used:
  1896 ;;		wreg, status,2, status,0, btemp+1, pclath, cstack
  1897 ;; Tracked objects:
  1898 ;;		On entry : 0/0
  1899 ;;		On exit  : 0/0
  1900 ;;		Unchanged: 0/0
  1901 ;; Data sizes:     COMMON   BANK0   BANK1   BANK3   BANK2
  1902 ;;      Params:         0       0       0       0       0
  1903 ;;      Locals:         0       0       0       0       0
  1904 ;;      Temps:          0       1       0       0       0
  1905 ;;      Totals:         0       1       0       0       0
  1906 ;;Total ram usage:        1 bytes
  1907 ;; Hardware stack levels used:    1
  1908 ;; Hardware stack levels required when called:    4
  1909 ;; This function calls:
  1910 ;;		_write_IIC
  1911 ;;		_delaynms
  1912 ;; This function is called by:
  1913 ;;		_main
  1914 ;;		_Motor_working_time
  1915 ;; This function uses a non-reentrant model
  1916 ;;
  1917                           psect	text825
  1918                           	file	"work.c"
  1919                           	line	40
  1920                           	global	__size_of_MotorClose
  1921  010A                     	__size_of_MotorClose	equ	__end_of_MotorClose-_MotorClose
  1922                           	
  1923  0239                     _MotorClose:	
  1924                           	opt	stack 3
  1925                           ; Regs used in _MotorClose: [wreg+status,2+status,0+btemp+1+pclath+cstack]
  1926                           	line	41
  1927                           	
  1928  0239                     l9863:	
  1929                           ;work.c: 41: write_IIC(0x08 ,0xfc );
  1930  0239  30FC               	movlw	(0FCh)
  1931  023A  1283               	bcf	status, 5	;RP0=0, select bank0
  1932  023B  1303               	bcf	status, 6	;RP1=0, select bank0
  1933  023C  00CB               	movwf	(??_MotorClose+0)+0
  1934  023D  084B               	movf	(??_MotorClose+0)+0,w
  1935  023E  00C7               	movwf	(?_write_IIC)
  1936  023F  3008               	movlw	(08h)
  1937  0240  120A  118A  2343   	fcall	_write_IIC
              120A  118A         
  1938                           	line	42
  1939                           	
  1940  0245                     l9865:	
  1941                           ;work.c: 42: delaynms(10);
  1942  0245  300A               	movlw	low(0Ah)
  1943  0246  1283               	bcf	status, 5	;RP0=0, select bank0
  1944  0247  1303               	bcf	status, 6	;RP1=0, select bank0
  1945  0248  00C5               	movwf	(?_delaynms)
  1946  0249  3000               	movlw	high(0Ah)
  1947  024A  00C6               	movwf	((?_delaynms))+1
  1948  024B  120A  118A  25E3   	fcall	_delaynms
              120A  118A         
  1949                           	line	43
  1950                           	
  1951  0250                     l9867:	
  1952                           # 43 "work.c"
  1953  0250  0064               clrwdt ;#
  1954                           psect	text825
  1955                           	line	44
  1956                           	
  1957  0251                     l9869:	
  1958                           ;work.c: 44: write_IIC(0x07 ,0x9E );
  1959  0251  309E               	movlw	(09Eh)
  1960  0252  1283               	bcf	status, 5	;RP0=0, select bank0
  1961  0253  1303               	bcf	status, 6	;RP1=0, select bank0
  1962  0254  00CB               	movwf	(??_MotorClose+0)+0
  1963  0255  084B               	movf	(??_MotorClose+0)+0,w
  1964  0256  00C7               	movwf	(?_write_IIC)
  1965  0257  3007               	movlw	(07h)
  1966  0258  120A  118A  2343   	fcall	_write_IIC
              120A  118A         
  1967                           	line	45
  1968                           ;work.c: 45: delaynms(10);
  1969  025D  300A               	movlw	low(0Ah)
  1970  025E  1283               	bcf	status, 5	;RP0=0, select bank0
  1971  025F  1303               	bcf	status, 6	;RP1=0, select bank0
  1972  0260  00C5               	movwf	(?_delaynms)
  1973  0261  3000               	movlw	high(0Ah)
  1974  0262  00C6               	movwf	((?_delaynms))+1
  1975  0263  120A  118A  25E3   	fcall	_delaynms
              120A  118A         
  1976                           	line	46
  1977                           	
  1978  0268                     l9871:	
  1979                           # 46 "work.c"
  1980  0268  0064               clrwdt ;#
  1981                           psect	text825
  1982                           	line	49
  1983                           	
  1984  0269                     l9873:	
  1985                           ;work.c: 49: write_IIC(0x06 ,0x66 );
  1986  0269  3066               	movlw	(066h)
  1987  026A  1283               	bcf	status, 5	;RP0=0, select bank0
  1988  026B  1303               	bcf	status, 6	;RP1=0, select bank0
  1989  026C  00CB               	movwf	(??_MotorClose+0)+0
  1990  026D  084B               	movf	(??_MotorClose+0)+0,w
  1991  026E  00C7               	movwf	(?_write_IIC)
  1992  026F  3006               	movlw	(06h)
  1993  0270  120A  118A  2343   	fcall	_write_IIC
              120A  118A         
  1994                           	line	50
  1995                           	
  1996  0275                     l9875:	
  1997                           ;work.c: 50: delaynms(10);
  1998  0275  300A               	movlw	low(0Ah)
  1999  0276  1283               	bcf	status, 5	;RP0=0, select bank0
  2000  0277  1303               	bcf	status, 6	;RP1=0, select bank0
  2001  0278  00C5               	movwf	(?_delaynms)
  2002  0279  3000               	movlw	high(0Ah)
  2003  027A  00C6               	movwf	((?_delaynms))+1
  2004  027B  120A  118A  25E3   	fcall	_delaynms
              120A  118A         
  2005                           	line	51
  2006                           	
  2007  0280                     l9877:	
  2008                           # 51 "work.c"
  2009  0280  0064               clrwdt ;#
  2010                           psect	text825
  2011                           	line	52
  2012                           ;work.c: 52: write_IIC(0x05,0x70 );
  2013  0281  3070               	movlw	(070h)
  2014  0282  1283               	bcf	status, 5	;RP0=0, select bank0
  2015  0283  1303               	bcf	status, 6	;RP1=0, select bank0
  2016  0284  00CB               	movwf	(??_MotorClose+0)+0
  2017  0285  084B               	movf	(??_MotorClose+0)+0,w
  2018  0286  00C7               	movwf	(?_write_IIC)
  2019  0287  3005               	movlw	(05h)
  2020  0288  120A  118A  2343   	fcall	_write_IIC
              120A  118A         
  2021                           	line	53
  2022                           	
  2023  028D                     l9879:	
  2024                           ;work.c: 53: delaynms(10);
  2025  028D  300A               	movlw	low(0Ah)
  2026  028E  1283               	bcf	status, 5	;RP0=0, select bank0
  2027  028F  1303               	bcf	status, 6	;RP1=0, select bank0
  2028  0290  00C5               	movwf	(?_delaynms)
  2029  0291  3000               	movlw	high(0Ah)
  2030  0292  00C6               	movwf	((?_delaynms))+1
  2031  0293  120A  118A  25E3   	fcall	_delaynms
              120A  118A         
  2032                           	line	54
  2033                           	
  2034  0298                     l9881:	
  2035                           # 54 "work.c"
  2036  0298  0064               clrwdt ;#
  2037                           psect	text825
  2038                           	line	57
  2039                           	
  2040  0299                     l9883:	
  2041                           ;work.c: 57: write_IIC(0x03,0xD6 );
  2042  0299  30D6               	movlw	(0D6h)
  2043  029A  1283               	bcf	status, 5	;RP0=0, select bank0
  2044  029B  1303               	bcf	status, 6	;RP1=0, select bank0
  2045  029C  00CB               	movwf	(??_MotorClose+0)+0
  2046  029D  084B               	movf	(??_MotorClose+0)+0,w
  2047  029E  00C7               	movwf	(?_write_IIC)
  2048  029F  3003               	movlw	(03h)
  2049  02A0  120A  118A  2343   	fcall	_write_IIC
              120A  118A         
  2050                           	line	58
  2051                           ;work.c: 58: delaynms(10);
  2052  02A5  300A               	movlw	low(0Ah)
  2053  02A6  1283               	bcf	status, 5	;RP0=0, select bank0
  2054  02A7  1303               	bcf	status, 6	;RP1=0, select bank0
  2055  02A8  00C5               	movwf	(?_delaynms)
  2056  02A9  3000               	movlw	high(0Ah)
  2057  02AA  00C6               	movwf	((?_delaynms))+1
  2058  02AB  120A  118A  25E3   	fcall	_delaynms
              120A  118A         
  2059                           	line	59
  2060                           	
  2061  02B0                     l9885:	
  2062                           # 59 "work.c"
  2063  02B0  0064               clrwdt ;#
  2064                           psect	text825
  2065                           	line	62
  2066                           	
  2067  02B1                     l9887:	
  2068                           ;work.c: 62: write_IIC(0x02,0x6B );
  2069  02B1  306B               	movlw	(06Bh)
  2070  02B2  1283               	bcf	status, 5	;RP0=0, select bank0
  2071  02B3  1303               	bcf	status, 6	;RP1=0, select bank0
  2072  02B4  00CB               	movwf	(??_MotorClose+0)+0
  2073  02B5  084B               	movf	(??_MotorClose+0)+0,w
  2074  02B6  00C7               	movwf	(?_write_IIC)
  2075  02B7  3002               	movlw	(02h)
  2076  02B8  120A  118A  2343   	fcall	_write_IIC
              120A  118A         
  2077                           	line	63
  2078                           	
  2079  02BD                     l9889:	
  2080                           ;work.c: 63: delaynms(10);
  2081  02BD  300A               	movlw	low(0Ah)
  2082  02BE  1283               	bcf	status, 5	;RP0=0, select bank0
  2083  02BF  1303               	bcf	status, 6	;RP1=0, select bank0
  2084  02C0  00C5               	movwf	(?_delaynms)
  2085  02C1  3000               	movlw	high(0Ah)
  2086  02C2  00C6               	movwf	((?_delaynms))+1
  2087  02C3  120A  118A  25E3   	fcall	_delaynms
              120A  118A         
  2088                           	line	64
  2089                           	
  2090  02C8                     l9891:	
  2091                           # 64 "work.c"
  2092  02C8  0064               clrwdt ;#
  2093                           psect	text825
  2094                           	line	65
  2095                           ;work.c: 65: write_IIC(0x01,0xA3 );
  2096  02C9  30A3               	movlw	(0A3h)
  2097  02CA  1283               	bcf	status, 5	;RP0=0, select bank0
  2098  02CB  1303               	bcf	status, 6	;RP1=0, select bank0
  2099  02CC  00CB               	movwf	(??_MotorClose+0)+0
  2100  02CD  084B               	movf	(??_MotorClose+0)+0,w
  2101  02CE  00C7               	movwf	(?_write_IIC)
  2102  02CF  3001               	movlw	(01h)
  2103  02D0  120A  118A  2343   	fcall	_write_IIC
              120A  118A         
  2104                           	line	66
  2105                           	
  2106  02D5                     l9893:	
  2107                           ;work.c: 66: delaynms(10);
  2108  02D5  300A               	movlw	low(0Ah)
  2109  02D6  1283               	bcf	status, 5	;RP0=0, select bank0
  2110  02D7  1303               	bcf	status, 6	;RP1=0, select bank0
  2111  02D8  00C5               	movwf	(?_delaynms)
  2112  02D9  3000               	movlw	high(0Ah)
  2113  02DA  00C6               	movwf	((?_delaynms))+1
  2114  02DB  120A  118A  25E3   	fcall	_delaynms
              120A  118A         
  2115                           	line	67
  2116                           	
  2117  02E0                     l9895:	
  2118                           # 67 "work.c"
  2119  02E0  0064               clrwdt ;#
  2120                           psect	text825
  2121                           	line	68
  2122                           	
  2123  02E1                     l9897:	
  2124                           ;work.c: 68: write_IIC(0x00,0x64 );
  2125  02E1  3064               	movlw	(064h)
  2126  02E2  1283               	bcf	status, 5	;RP0=0, select bank0
  2127  02E3  1303               	bcf	status, 6	;RP1=0, select bank0
  2128  02E4  00CB               	movwf	(??_MotorClose+0)+0
  2129  02E5  084B               	movf	(??_MotorClose+0)+0,w
  2130  02E6  00C7               	movwf	(?_write_IIC)
  2131  02E7  3000               	movlw	(0)
  2132  02E8  120A  118A  2343   	fcall	_write_IIC
              120A  118A         
  2133                           	line	69
  2134                           ;work.c: 69: delaynms(10);
  2135  02ED  300A               	movlw	low(0Ah)
  2136  02EE  1283               	bcf	status, 5	;RP0=0, select bank0
  2137  02EF  1303               	bcf	status, 6	;RP1=0, select bank0
  2138  02F0  00C5               	movwf	(?_delaynms)
  2139  02F1  3000               	movlw	high(0Ah)
  2140  02F2  00C6               	movwf	((?_delaynms))+1
  2141  02F3  120A  118A  25E3   	fcall	_delaynms
              120A  118A         
  2142                           	line	70
  2143                           	
  2144  02F8                     l9899:	
  2145                           # 70 "work.c"
  2146  02F8  0064               clrwdt ;#
  2147                           psect	text825
  2148                           	line	71
  2149                           	
  2150  02F9                     l9901:	
  2151                           ;work.c: 71: write_IIC(0x00,0x32 );
  2152  02F9  3032               	movlw	(032h)
  2153  02FA  1283               	bcf	status, 5	;RP0=0, select bank0
  2154  02FB  1303               	bcf	status, 6	;RP1=0, select bank0
  2155  02FC  00CB               	movwf	(??_MotorClose+0)+0
  2156  02FD  084B               	movf	(??_MotorClose+0)+0,w
  2157  02FE  00C7               	movwf	(?_write_IIC)
  2158  02FF  3000               	movlw	(0)
  2159  0300  120A  118A  2343   	fcall	_write_IIC
              120A  118A         
  2160                           	line	72
  2161                           	
  2162  0305                     l9903:	
  2163                           ;work.c: 72: delaynms(10);
  2164  0305  300A               	movlw	low(0Ah)
  2165  0306  1283               	bcf	status, 5	;RP0=0, select bank0
  2166  0307  1303               	bcf	status, 6	;RP1=0, select bank0
  2167  0308  00C5               	movwf	(?_delaynms)
  2168  0309  3000               	movlw	high(0Ah)
  2169  030A  00C6               	movwf	((?_delaynms))+1
  2170  030B  120A  118A  25E3   	fcall	_delaynms
              120A  118A         
  2171                           	line	73
  2172                           	
  2173  0310                     l9905:	
  2174                           # 73 "work.c"
  2175  0310  0064               clrwdt ;#
  2176                           psect	text825
  2177                           	line	74
  2178                           ;work.c: 74: write_IIC(0x00,0x14 );
  2179  0311  3014               	movlw	(014h)
  2180  0312  1283               	bcf	status, 5	;RP0=0, select bank0
  2181  0313  1303               	bcf	status, 6	;RP1=0, select bank0
  2182  0314  00CB               	movwf	(??_MotorClose+0)+0
  2183  0315  084B               	movf	(??_MotorClose+0)+0,w
  2184  0316  00C7               	movwf	(?_write_IIC)
  2185  0317  3000               	movlw	(0)
  2186  0318  120A  118A  2343   	fcall	_write_IIC
              120A  118A         
  2187                           	line	75
  2188                           	
  2189  031D                     l9907:	
  2190                           ;work.c: 75: delaynms(10);
  2191  031D  300A               	movlw	low(0Ah)
  2192  031E  1283               	bcf	status, 5	;RP0=0, select bank0
  2193  031F  1303               	bcf	status, 6	;RP1=0, select bank0
  2194  0320  00C5               	movwf	(?_delaynms)
  2195  0321  3000               	movlw	high(0Ah)
  2196  0322  00C6               	movwf	((?_delaynms))+1
  2197  0323  120A  118A  25E3   	fcall	_delaynms
              120A  118A         
  2198                           	line	76
  2199                           	
  2200  0328                     l9909:	
  2201                           # 76 "work.c"
  2202  0328  0064               clrwdt ;#
  2203                           psect	text825
  2204                           	line	77
  2205                           	
  2206  0329                     l9911:	
  2207                           ;work.c: 77: write_IIC(0x00,0x00 );
  2208  0329  1283               	bcf	status, 5	;RP0=0, select bank0
  2209  032A  1303               	bcf	status, 6	;RP1=0, select bank0
  2210  032B  01C7               	clrf	(?_write_IIC)
  2211  032C  3000               	movlw	(0)
  2212  032D  120A  118A  2343   	fcall	_write_IIC
              120A  118A         
  2213                           	line	78
  2214                           ;work.c: 78: delaynms(10);
  2215  0332  300A               	movlw	low(0Ah)
  2216  0333  1283               	bcf	status, 5	;RP0=0, select bank0
  2217  0334  1303               	bcf	status, 6	;RP1=0, select bank0
  2218  0335  00C5               	movwf	(?_delaynms)
  2219  0336  3000               	movlw	high(0Ah)
  2220  0337  00C6               	movwf	((?_delaynms))+1
  2221  0338  120A  118A  25E3   	fcall	_delaynms
              120A  118A         
  2222                           	line	79
  2223                           	
  2224  033D                     l9913:	
  2225                           # 79 "work.c"
  2226  033D  0064               clrwdt ;#
  2227                           psect	text825
  2228                           	line	80
  2229                           	
  2230  033E                     l9915:	
  2231                           ;work.c: 80: TMR1ON=1;
  2232  033E  1283               	bcf	status, 5	;RP0=0, select bank0
  2233  033F  1303               	bcf	status, 6	;RP1=0, select bank0
  2234  0340  1410               	bsf	(128/8),(128)&7
  2235                           	line	81
  2236                           	
  2237  0341                     l9917:	
  2238                           ;work.c: 81: GIE=1;
  2239  0341  178B               	bsf	(95/8),(95)&7
  2240                           	line	82
  2241                           	
  2242  0342                     l4111:	
  2243  0342  0008               	return
  2244                           	opt stack 0
  2245                           GLOBAL	__end_of_MotorClose
  2246  0343                     	__end_of_MotorClose:
  2247 ;; =============== function _MotorClose ends ============
  2248                           
  2249                           	signat	_MotorClose,88
  2250                           	global	_Motor_adjusting_speed
  2251                           psect	text826,local,class=CODE,delta=2
  2252                           global __ptext826
  2253  04F2                     __ptext826:
  2254                           
  2255 ;; *************** function _Motor_adjusting_speed *****************
  2256 ;; Defined at:
  2257 ;;		line 84 in file "work.c"
  2258 ;; Parameters:    Size  Location     Type
  2259 ;;		None
  2260 ;; Auto vars:     Size  Location     Type
  2261 ;;		None
  2262 ;; Return value:  Size  Location     Type
  2263 ;;		None               void
  2264 ;; Registers used:
  2265 ;;		wreg, status,2, status,0, btemp+1, pclath, cstack
  2266 ;; Tracked objects:
  2267 ;;		On entry : 0/0
  2268 ;;		On exit  : 0/0
  2269 ;;		Unchanged: 0/0
  2270 ;; Data sizes:     COMMON   BANK0   BANK1   BANK3   BANK2
  2271 ;;      Params:         0       0       0       0       0
  2272 ;;      Locals:         0       0       0       0       0
  2273 ;;      Temps:          0       1       0       0       0
  2274 ;;      Totals:         0       1       0       0       0
  2275 ;;Total ram usage:        1 bytes
  2276 ;; Hardware stack levels used:    1
  2277 ;; Hardware stack levels required when called:    4
  2278 ;; This function calls:
  2279 ;;		_write_IIC
  2280 ;; This function is called by:
  2281 ;;		_main
  2282 ;; This function uses a non-reentrant model
  2283 ;;
  2284                           psect	text826
  2285                           	file	"work.c"
  2286                           	line	84
  2287                           	global	__size_of_Motor_adjusting_speed
  2288  005C                     	__size_of_Motor_adjusting_speed	equ	__end_of_Motor_adjusting_speed-_Motor_adjusting_spe
                                 ed
  2289                           	
  2290  04F2                     _Motor_adjusting_speed:	
  2291                           	opt	stack 3
  2292                           ; Regs used in _Motor_adjusting_speed: [wreg+status,2+status,0+btemp+1+pclath+cstack]
  2293                           	line	85
  2294                           	
  2295  04F2                     l9833:	
  2296                           ;work.c: 85: while(Flag_FG_Period == 0);
  2297  04F2  2CF4               	goto	l9835
  2298                           	
  2299  04F3                     l4115:	
  2300  04F3  2CF4               	goto	l9835
  2301                           	
  2302  04F4                     l4114:	
  2303                           	
  2304  04F4                     l9835:	
  2305  04F4  1283               	bcf	status, 5	;RP0=0, select bank0
  2306  04F5  1303               	bcf	status, 6	;RP1=0, select bank0
  2307  04F6  0851               	movf	(_Flag_FG_Period),w
  2308  04F7  1D03               	skipz
  2309  04F8  2CFA               	goto	u4060
  2310  04F9  2CF4               	goto	l9835
  2311  04FA                     u4060:
  2312                           	
  2313  04FA                     l4116:	
  2314                           	line	86
  2315                           ;work.c: 86: Flag_FG_Period=0;
  2316  04FA  01D1               	clrf	(_Flag_FG_Period)
  2317                           	line	87
  2318                           ;work.c: 87: GIE=0;
  2319  04FB  138B               	bcf	(95/8),(95)&7
  2320                           	line	88
  2321                           	
  2322  04FC                     l9837:	
  2323                           ;work.c: 88: if(Flag_FG_Period_time>25)
  2324  04FC  3000               	movlw	high(01Ah)
  2325  04FD  0229               	subwf	(_Flag_FG_Period_time+1),w
  2326  04FE  301A               	movlw	low(01Ah)
  2327  04FF  1903               	skipnz
  2328  0500  0228               	subwf	(_Flag_FG_Period_time),w
  2329  0501  1C03               	skipc
  2330  0502  2D04               	goto	u4071
  2331  0503  2D05               	goto	u4070
  2332  0504                     u4071:
  2333  0504  2D24               	goto	l9849
  2334  0505                     u4070:
  2335                           	line	90
  2336                           	
  2337  0505                     l9839:	
  2338                           ;work.c: 89: {
  2339                           ;work.c: 90: VOLT=VOLT+1;
  2340  0505  084F               	movf	(_VOLT),w
  2341  0506  3E01               	addlw	low(01h)
  2342  0507  00CF               	movwf	(_VOLT)
  2343  0508  0850               	movf	(_VOLT+1),w
  2344  0509  1803               	skipnc
  2345  050A  3E01               	addlw	1
  2346  050B  3E00               	addlw	high(01h)
  2347  050C  00D0               	movwf	1+(_VOLT)
  2348                           	line	91
  2349                           	
  2350  050D                     l9841:	
  2351                           ;work.c: 91: VOLT_H=(VOLT&0xFF00)>>8;
  2352  050D  0850               	movf	(_VOLT+1),w
  2353  050E  00CB               	movwf	(??_Motor_adjusting_speed+0)+0
  2354  050F  084B               	movf	(??_Motor_adjusting_speed+0)+0,w
  2355  0510  00C1               	movwf	(_VOLT_H)
  2356                           	line	92
  2357                           	
  2358  0511                     l9843:	
  2359                           ;work.c: 92: VOLT_L=VOLT&0x00FF;
  2360  0511  084F               	movf	(_VOLT),w
  2361  0512  00CB               	movwf	(??_Motor_adjusting_speed+0)+0
  2362  0513  084B               	movf	(??_Motor_adjusting_speed+0)+0,w
  2363  0514  00C2               	movwf	(_VOLT_L)
  2364                           	line	93
  2365                           	
  2366  0515                     l9845:	
  2367                           ;work.c: 93: write_IIC(VOLT_H,VOLT_L );
  2368  0515  0842               	movf	(_VOLT_L),w
  2369  0516  00CB               	movwf	(??_Motor_adjusting_speed+0)+0
  2370  0517  084B               	movf	(??_Motor_adjusting_speed+0)+0,w
  2371  0518  00C7               	movwf	(?_write_IIC)
  2372  0519  0841               	movf	(_VOLT_H),w
  2373  051A  120A  118A  2343   	fcall	_write_IIC
              120A  118A         
  2374                           	line	94
  2375                           	
  2376  051F                     l9847:	
  2377                           ;work.c: 94: FG_Period_time=0;
  2378  051F  1283               	bcf	status, 5	;RP0=0, select bank0
  2379  0520  1303               	bcf	status, 6	;RP1=0, select bank0
  2380  0521  01A6               	clrf	(_FG_Period_time)
  2381  0522  01A7               	clrf	(_FG_Period_time+1)
  2382  0523  2D24               	goto	l9849
  2383                           	line	95
  2384                           	
  2385  0524                     l4117:	
  2386                           	line	96
  2387                           	
  2388  0524                     l9849:	
  2389                           ;work.c: 95: }
  2390                           ;work.c: 96: if(Flag_FG_Period_time<10)
  2391  0524  3000               	movlw	high(0Ah)
  2392  0525  0229               	subwf	(_Flag_FG_Period_time+1),w
  2393  0526  300A               	movlw	low(0Ah)
  2394  0527  1903               	skipnz
  2395  0528  0228               	subwf	(_Flag_FG_Period_time),w
  2396  0529  1803               	skipnc
  2397  052A  2D2C               	goto	u4081
  2398  052B  2D2D               	goto	u4080
  2399  052C                     u4081:
  2400  052C  2D4C               	goto	l9861
  2401  052D                     u4080:
  2402                           	line	98
  2403                           	
  2404  052D                     l9851:	
  2405                           ;work.c: 97: {
  2406                           ;work.c: 98: VOLT=VOLT-1;
  2407  052D  084F               	movf	(_VOLT),w
  2408  052E  3EFF               	addlw	low(0FFFFh)
  2409  052F  00CF               	movwf	(_VOLT)
  2410  0530  0850               	movf	(_VOLT+1),w
  2411  0531  1803               	skipnc
  2412  0532  3E01               	addlw	1
  2413  0533  3EFF               	addlw	high(0FFFFh)
  2414  0534  00D0               	movwf	1+(_VOLT)
  2415                           	line	99
  2416                           	
  2417  0535                     l9853:	
  2418                           ;work.c: 99: VOLT_H=(VOLT&0xFF00)>>8;
  2419  0535  0850               	movf	(_VOLT+1),w
  2420  0536  00CB               	movwf	(??_Motor_adjusting_speed+0)+0
  2421  0537  084B               	movf	(??_Motor_adjusting_speed+0)+0,w
  2422  0538  00C1               	movwf	(_VOLT_H)
  2423                           	line	100
  2424                           	
  2425  0539                     l9855:	
  2426                           ;work.c: 100: VOLT_L=VOLT&0x00FF;
  2427  0539  084F               	movf	(_VOLT),w
  2428  053A  00CB               	movwf	(??_Motor_adjusting_speed+0)+0
  2429  053B  084B               	movf	(??_Motor_adjusting_speed+0)+0,w
  2430  053C  00C2               	movwf	(_VOLT_L)
  2431                           	line	101
  2432                           	
  2433  053D                     l9857:	
  2434                           ;work.c: 101: write_IIC(VOLT_H,VOLT_L );
  2435  053D  0842               	movf	(_VOLT_L),w
  2436  053E  00CB               	movwf	(??_Motor_adjusting_speed+0)+0
  2437  053F  084B               	movf	(??_Motor_adjusting_speed+0)+0,w
  2438  0540  00C7               	movwf	(?_write_IIC)
  2439  0541  0841               	movf	(_VOLT_H),w
  2440  0542  120A  118A  2343   	fcall	_write_IIC
              120A  118A         
  2441                           	line	102
  2442                           	
  2443  0547                     l9859:	
  2444                           ;work.c: 102: FG_Period_time=0;
  2445  0547  1283               	bcf	status, 5	;RP0=0, select bank0
  2446  0548  1303               	bcf	status, 6	;RP1=0, select bank0
  2447  0549  01A6               	clrf	(_FG_Period_time)
  2448  054A  01A7               	clrf	(_FG_Period_time+1)
  2449  054B  2D4C               	goto	l9861
  2450                           	line	103
  2451                           	
  2452  054C                     l4118:	
  2453                           	line	104
  2454                           	
  2455  054C                     l9861:	
  2456                           ;work.c: 103: }
  2457                           ;work.c: 104: GIE=1;
  2458  054C  178B               	bsf	(95/8),(95)&7
  2459                           	line	105
  2460                           	
  2461  054D                     l4119:	
  2462  054D  0008               	return
  2463                           	opt stack 0
  2464                           GLOBAL	__end_of_Motor_adjusting_speed
  2465  054E                     	__end_of_Motor_adjusting_speed:
  2466 ;; =============== function _Motor_adjusting_speed ends ============
  2467                           
  2468                           	signat	_Motor_adjusting_speed,88
  2469                           	global	_The_Close
  2470                           psect	text827,local,class=CODE,delta=2
  2471                           global __ptext827
  2472  0678                     __ptext827:
  2473                           
  2474 ;; *************** function _The_Close *****************
  2475 ;; Defined at:
  2476 ;;		line 151 in file "main.c"
  2477 ;; Parameters:    Size  Location     Type
  2478 ;;		None
  2479 ;; Auto vars:     Size  Location     Type
  2480 ;;		None
  2481 ;; Return value:  Size  Location     Type
  2482 ;;		None               void
  2483 ;; Registers used:
  2484 ;;		wreg, status,2, status,0, pclath, cstack
  2485 ;; Tracked objects:
  2486 ;;		On entry : 0/0
  2487 ;;		On exit  : 0/0
  2488 ;;		Unchanged: 0/0
  2489 ;; Data sizes:     COMMON   BANK0   BANK1   BANK3   BANK2
  2490 ;;      Params:         0       0       0       0       0
  2491 ;;      Locals:         0       0       0       0       0
  2492 ;;      Temps:          0       0       0       0       0
  2493 ;;      Totals:         0       0       0       0       0
  2494 ;;Total ram usage:        0 bytes
  2495 ;; Hardware stack levels used:    1
  2496 ;; Hardware stack levels required when called:    3
  2497 ;; This function calls:
  2498 ;;		_delaynms
  2499 ;; This function is called by:
  2500 ;;		_main
  2501 ;; This function uses a non-reentrant model
  2502 ;;
  2503                           psect	text827
  2504                           	file	"main.c"
  2505                           	line	151
  2506                           	global	__size_of_The_Close
  2507  0028                     	__size_of_The_Close	equ	__end_of_The_Close-_The_Close
  2508                           	
  2509  0678                     _The_Close:	
  2510                           	opt	stack 4
  2511                           ; Regs used in _The_Close: [wreg+status,2+status,0+pclath+cstack]
  2512                           	line	152
  2513                           	
  2514  0678                     l9807:	
  2515                           ;main.c: 152: kai = 0;
  2516  0678  1283               	bcf	status, 5	;RP0=0, select bank0
  2517  0679  1303               	bcf	status, 6	;RP1=0, select bank0
  2518  067A  01C4               	clrf	(_kai)
  2519                           	line	153
  2520                           ;main.c: 153: Stop_Flag = 0;
  2521  067B  01C0               	clrf	(_Stop_Flag)
  2522                           	line	154
  2523                           ;main.c: 154: Start_Flag = 0;
  2524  067C  01BE               	clrf	(_Start_Flag)
  2525                           	line	155
  2526                           ;main.c: 155: Initial_Flag = 0;
  2527  067D  01B6               	clrf	(_Initial_Flag)
  2528                           	line	156
  2529                           ;main.c: 156: Work_Flag = 0;
  2530  067E  01FA               	clrf	(_Work_Flag)
  2531                           	line	157
  2532                           	
  2533  067F                     l9809:	
  2534                           ;main.c: 157: VOLT=1150;
  2535  067F  307E               	movlw	low(047Eh)
  2536  0680  00CF               	movwf	(_VOLT)
  2537  0681  3004               	movlw	high(047Eh)
  2538  0682  00D0               	movwf	((_VOLT))+1
  2539                           	line	158
  2540                           	
  2541  0683                     l9811:	
  2542                           ;main.c: 158: Open_Cover_Flag = 0;
  2543  0683  01BD               	clrf	(_Open_Cover_Flag)
  2544                           	line	159
  2545                           	
  2546  0684                     l9813:	
  2547                           ;main.c: 159: Open_Cover_times = 0;
  2548  0684  01AE               	clrf	(_Open_Cover_times)
  2549  0685  01AF               	clrf	(_Open_Cover_times+1)
  2550                           	line	160
  2551                           	
  2552  0686                     l9815:	
  2553                           ;main.c: 160: PORTAbits.RA2 = 1;asm ("NOP");
  2554  0686  1505               	bsf	(5),2	;volatile
  2555                           	
  2556  0687                     l9817:	
  2557                           # 160 "main.c"
  2558  0687  0000               NOP ;#
  2559                           psect	text827
  2560                           	line	161
  2561                           	
  2562  0688                     l9819:	
  2563                           ;main.c: 161: delaynms(10);
  2564  0688  300A               	movlw	low(0Ah)
  2565  0689  1283               	bcf	status, 5	;RP0=0, select bank0
  2566  068A  1303               	bcf	status, 6	;RP1=0, select bank0
  2567  068B  00C5               	movwf	(?_delaynms)
  2568  068C  3000               	movlw	high(0Ah)
  2569  068D  00C6               	movwf	((?_delaynms))+1
  2570  068E  120A  118A  25E3   	fcall	_delaynms
              120A  118A         
  2571                           	line	162
  2572                           	
  2573  0693                     l9821:	
  2574                           ;main.c: 162: PORTAbits.RA2 = 0;asm ("NOP");
  2575  0693  1283               	bcf	status, 5	;RP0=0, select bank0
  2576  0694  1303               	bcf	status, 6	;RP1=0, select bank0
  2577  0695  1105               	bcf	(5),2	;volatile
  2578                           	
  2579  0696                     l9823:	
  2580                           # 162 "main.c"
  2581  0696  0000               NOP ;#
  2582                           psect	text827
  2583                           	line	163
  2584                           	
  2585  0697                     l9825:	
  2586                           ;main.c: 163: Key_Run = 0;
  2587  0697  1283               	bcf	status, 5	;RP0=0, select bank0
  2588  0698  1303               	bcf	status, 6	;RP1=0, select bank0
  2589  0699  01B7               	clrf	(_Key_Run)
  2590                           	line	164
  2591                           	
  2592  069A                     l9827:	
  2593                           ;main.c: 164: Once = 0;
  2594  069A  01B9               	clrf	(_Once)
  2595                           	line	165
  2596                           	
  2597  069B                     l9829:	
  2598                           ;main.c: 165: Forbid_input=0;
  2599  069B  01B5               	clrf	(_Forbid_input)
  2600                           	line	166
  2601                           	
  2602  069C                     l9831:	
  2603                           ;main.c: 166: WDTCONbits.SWDTEN = 0;
  2604  069C  1283               	bcf	status, 5	;RP0=0, select bank2
  2605  069D  1703               	bsf	status, 6	;RP1=1, select bank2
  2606  069E  1005               	bcf	(261)^0100h,0	;volatile
  2607                           	line	167
  2608                           	
  2609  069F                     l3119:	
  2610  069F  0008               	return
  2611                           	opt stack 0
  2612                           GLOBAL	__end_of_The_Close
  2613  06A0                     	__end_of_The_Close:
  2614 ;; =============== function _The_Close ends ============
  2615                           
  2616                           	signat	_The_Close,88
  2617                           	global	_write_IIC
  2618                           psect	text828,local,class=CODE,delta=2
  2619                           global __ptext828
  2620  0343                     __ptext828:
  2621                           
  2622 ;; *************** function _write_IIC *****************
  2623 ;; Defined at:
  2624 ;;		line 5 in file "IIC.c"
  2625 ;; Parameters:    Size  Location     Type
  2626 ;;  wdate_H         1    wreg     unsigned char 
  2627 ;;  wdate_L         1    2[BANK0 ] unsigned char 
  2628 ;; Auto vars:     Size  Location     Type
  2629 ;;  wdate_H         1    3[BANK0 ] unsigned char 
  2630 ;;  t               2    4[BANK0 ] int 
  2631 ;; Return value:  Size  Location     Type
  2632 ;;		None               void
  2633 ;; Registers used:
  2634 ;;		wreg, status,2, status,0, btemp+1, pclath, cstack
  2635 ;; Tracked objects:
  2636 ;;		On entry : 0/0
  2637 ;;		On exit  : 0/0
  2638 ;;		Unchanged: 0/0
  2639 ;; Data sizes:     COMMON   BANK0   BANK1   BANK3   BANK2
  2640 ;;      Params:         0       1       0       0       0
  2641 ;;      Locals:         0       3       0       0       0
  2642 ;;      Temps:          0       0       0       0       0
  2643 ;;      Totals:         0       4       0       0       0
  2644 ;;Total ram usage:        4 bytes
  2645 ;; Hardware stack levels used:    1
  2646 ;; Hardware stack levels required when called:    3
  2647 ;; This function calls:
  2648 ;;		_Delay
  2649 ;; This function is called by:
  2650 ;;		_main
  2651 ;;		_MotorClose
  2652 ;;		_Motor_adjusting_speed
  2653 ;;		_MotorStart
  2654 ;; This function uses a non-reentrant model
  2655 ;;
  2656                           psect	text828
  2657                           	file	"IIC.c"
  2658                           	line	5
  2659                           	global	__size_of_write_IIC
  2660  00E0                     	__size_of_write_IIC	equ	__end_of_write_IIC-_write_IIC
  2661                           	
  2662  0343                     _write_IIC:	
  2663                           	opt	stack 3
  2664                           ; Regs used in _write_IIC: [wreg+status,2+status,0+btemp+1+pclath+cstack]
  2665                           ;write_IIC@wdate_H stored from wreg
  2666  0343  1283               	bcf	status, 5	;RP0=0, select bank0
  2667  0344  1303               	bcf	status, 6	;RP1=0, select bank0
  2668  0345  00C8               	movwf	(write_IIC@wdate_H)
  2669                           	line	6
  2670                           	
  2671  0346                     l9737:	
  2672                           ;IIC.c: 6: int t=0;
  2673  0346  01C9               	clrf	(write_IIC@t)
  2674  0347  01CA               	clrf	(write_IIC@t+1)
  2675                           	line	7
  2676                           	
  2677  0348                     l9739:	
  2678                           ;IIC.c: 7: SSPIF=0;
  2679  0348  118C               	bcf	(99/8),(99)&7
  2680                           	line	8
  2681                           	
  2682  0349                     l9741:	
  2683                           ;IIC.c: 8: SEN=1;
  2684  0349  1683               	bsf	status, 5	;RP0=1, select bank1
  2685  034A  1303               	bcf	status, 6	;RP1=0, select bank1
  2686  034B  1411               	bsf	(1160/8)^080h,(1160)&7
  2687                           	line	9
  2688                           ;IIC.c: 9: while(SSPIF==0)
  2689  034C  2B63               	goto	l5098
  2690                           	
  2691  034D                     l5099:	
  2692                           	line	11
  2693                           	
  2694  034D                     l9743:	
  2695                           ;IIC.c: 10: {
  2696                           ;IIC.c: 11: t++;
  2697  034D  3001               	movlw	low(01h)
  2698  034E  1283               	bcf	status, 5	;RP0=0, select bank0
  2699  034F  07C9               	addwf	(write_IIC@t),f
  2700  0350  1803               	skipnc
  2701  0351  0ACA               	incf	(write_IIC@t+1),f
  2702  0352  3000               	movlw	high(01h)
  2703  0353  07CA               	addwf	(write_IIC@t+1),f
  2704                           	line	12
  2705                           	
  2706  0354                     l9745:	
  2707                           ;IIC.c: 12: if(t > 1000) break;
  2708  0354  084A               	movf	(write_IIC@t+1),w
  2709  0355  3A80               	xorlw	80h
  2710  0356  00FF               	movwf	btemp+1
  2711  0357  3083               	movlw	(high(03E9h))^80h
  2712  0358  027F               	subwf	btemp+1,w
  2713  0359  1D03               	skipz
  2714  035A  2B5D               	goto	u3965
  2715  035B  30E9               	movlw	low(03E9h)
  2716  035C  0249               	subwf	(write_IIC@t),w
  2717  035D                     u3965:
  2718                           
  2719  035D  1C03               	skipc
  2720  035E  2B60               	goto	u3961
  2721  035F  2B61               	goto	u3960
  2722  0360                     u3961:
  2723  0360  2B63               	goto	l5098
  2724  0361                     u3960:
  2725  0361  2B6A               	goto	l9749
  2726                           	
  2727  0362                     l9747:	
  2728  0362  2B6A               	goto	l9749
  2729                           	
  2730  0363                     l5100:	
  2731                           	line	13
  2732                           	
  2733  0363                     l5098:	
  2734                           	line	9
  2735  0363  1283               	bcf	status, 5	;RP0=0, select bank0
  2736  0364  1303               	bcf	status, 6	;RP1=0, select bank0
  2737  0365  1D8C               	btfss	(99/8),(99)&7
  2738  0366  2B68               	goto	u3971
  2739  0367  2B69               	goto	u3970
  2740  0368                     u3971:
  2741  0368  2B4D               	goto	l9743
  2742  0369                     u3970:
  2743  0369  2B6A               	goto	l9749
  2744                           	
  2745  036A                     l5101:	
  2746                           	line	14
  2747                           	
  2748  036A                     l9749:	
  2749                           ;IIC.c: 13: }
  2750                           ;IIC.c: 14: t=0;
  2751  036A  1283               	bcf	status, 5	;RP0=0, select bank0
  2752  036B  1303               	bcf	status, 6	;RP1=0, select bank0
  2753  036C  01C9               	clrf	(write_IIC@t)
  2754  036D  01CA               	clrf	(write_IIC@t+1)
  2755                           	line	15
  2756                           	
  2757  036E                     l9751:	
  2758                           ;IIC.c: 15: SSPIF=0;
  2759  036E  118C               	bcf	(99/8),(99)&7
  2760                           	line	17
  2761                           	
  2762  036F                     l9753:	
  2763                           ;IIC.c: 17: SSPBUF=0X98;
  2764  036F  3098               	movlw	(098h)
  2765  0370  0093               	movwf	(19)	;volatile
  2766                           	line	18
  2767                           	
  2768  0371                     l9755:	
  2769                           ;IIC.c: 18: Delay(1);
  2770  0371  3001               	movlw	low(01h)
  2771  0372  00C5               	movwf	(?_Delay)
  2772  0373  3000               	movlw	high(01h)
  2773  0374  00C6               	movwf	((?_Delay))+1
  2774  0375  120A  118A  272B   	fcall	_Delay
              120A  118A         
  2775                           	line	19
  2776                           ;IIC.c: 19: while(SSPIF==0)
  2777  037A  2B92               	goto	l5102
  2778                           	
  2779  037B                     l5103:	
  2780                           	line	21
  2781                           	
  2782  037B                     l9757:	
  2783                           ;IIC.c: 20: {
  2784                           ;IIC.c: 21: t++;
  2785  037B  3001               	movlw	low(01h)
  2786  037C  1283               	bcf	status, 5	;RP0=0, select bank0
  2787  037D  1303               	bcf	status, 6	;RP1=0, select bank0
  2788  037E  07C9               	addwf	(write_IIC@t),f
  2789  037F  1803               	skipnc
  2790  0380  0ACA               	incf	(write_IIC@t+1),f
  2791  0381  3000               	movlw	high(01h)
  2792  0382  07CA               	addwf	(write_IIC@t+1),f
  2793                           	line	22
  2794                           	
  2795  0383                     l9759:	
  2796                           ;IIC.c: 22: if(t > 1000) break;
  2797  0383  084A               	movf	(write_IIC@t+1),w
  2798  0384  3A80               	xorlw	80h
  2799  0385  00FF               	movwf	btemp+1
  2800  0386  3083               	movlw	(high(03E9h))^80h
  2801  0387  027F               	subwf	btemp+1,w
  2802  0388  1D03               	skipz
  2803  0389  2B8C               	goto	u3985
  2804  038A  30E9               	movlw	low(03E9h)
  2805  038B  0249               	subwf	(write_IIC@t),w
  2806  038C                     u3985:
  2807                           
  2808  038C  1C03               	skipc
  2809  038D  2B8F               	goto	u3981
  2810  038E  2B90               	goto	u3980
  2811  038F                     u3981:
  2812  038F  2B92               	goto	l5102
  2813  0390                     u3980:
  2814  0390  2B99               	goto	l9763
  2815                           	
  2816  0391                     l9761:	
  2817  0391  2B99               	goto	l9763
  2818                           	
  2819  0392                     l5104:	
  2820                           	line	23
  2821                           	
  2822  0392                     l5102:	
  2823                           	line	19
  2824  0392  1283               	bcf	status, 5	;RP0=0, select bank0
  2825  0393  1303               	bcf	status, 6	;RP1=0, select bank0
  2826  0394  1D8C               	btfss	(99/8),(99)&7
  2827  0395  2B97               	goto	u3991
  2828  0396  2B98               	goto	u3990
  2829  0397                     u3991:
  2830  0397  2B7B               	goto	l9757
  2831  0398                     u3990:
  2832  0398  2B99               	goto	l9763
  2833                           	
  2834  0399                     l5105:	
  2835                           	line	24
  2836                           	
  2837  0399                     l9763:	
  2838                           ;IIC.c: 23: }
  2839                           ;IIC.c: 24: t=0;
  2840  0399  1283               	bcf	status, 5	;RP0=0, select bank0
  2841  039A  1303               	bcf	status, 6	;RP1=0, select bank0
  2842  039B  01C9               	clrf	(write_IIC@t)
  2843  039C  01CA               	clrf	(write_IIC@t+1)
  2844                           	line	25
  2845                           	
  2846  039D                     l9765:	
  2847                           ;IIC.c: 25: SSPIF=0;
  2848  039D  118C               	bcf	(99/8),(99)&7
  2849                           	line	27
  2850                           	
  2851  039E                     l9767:	
  2852                           ;IIC.c: 27: SSPBUF=wdate_H;
  2853  039E  0848               	movf	(write_IIC@wdate_H),w
  2854  039F  0093               	movwf	(19)	;volatile
  2855                           	line	28
  2856                           	
  2857  03A0                     l9769:	
  2858                           ;IIC.c: 28: Delay(1);
  2859  03A0  3001               	movlw	low(01h)
  2860  03A1  00C5               	movwf	(?_Delay)
  2861  03A2  3000               	movlw	high(01h)
  2862  03A3  00C6               	movwf	((?_Delay))+1
  2863  03A4  120A  118A  272B   	fcall	_Delay
              120A  118A         
  2864                           	line	29
  2865                           ;IIC.c: 29: while(SSPIF==0)
  2866  03A9  2BC1               	goto	l5106
  2867                           	
  2868  03AA                     l5107:	
  2869                           	line	31
  2870                           	
  2871  03AA                     l9771:	
  2872                           ;IIC.c: 30: {
  2873                           ;IIC.c: 31: t++;
  2874  03AA  3001               	movlw	low(01h)
  2875  03AB  1283               	bcf	status, 5	;RP0=0, select bank0
  2876  03AC  1303               	bcf	status, 6	;RP1=0, select bank0
  2877  03AD  07C9               	addwf	(write_IIC@t),f
  2878  03AE  1803               	skipnc
  2879  03AF  0ACA               	incf	(write_IIC@t+1),f
  2880  03B0  3000               	movlw	high(01h)
  2881  03B1  07CA               	addwf	(write_IIC@t+1),f
  2882                           	line	32
  2883                           	
  2884  03B2                     l9773:	
  2885                           ;IIC.c: 32: if(t > 1000) break;
  2886  03B2  084A               	movf	(write_IIC@t+1),w
  2887  03B3  3A80               	xorlw	80h
  2888  03B4  00FF               	movwf	btemp+1
  2889  03B5  3083               	movlw	(high(03E9h))^80h
  2890  03B6  027F               	subwf	btemp+1,w
  2891  03B7  1D03               	skipz
  2892  03B8  2BBB               	goto	u4005
  2893  03B9  30E9               	movlw	low(03E9h)
  2894  03BA  0249               	subwf	(write_IIC@t),w
  2895  03BB                     u4005:
  2896                           
  2897  03BB  1C03               	skipc
  2898  03BC  2BBE               	goto	u4001
  2899  03BD  2BBF               	goto	u4000
  2900  03BE                     u4001:
  2901  03BE  2BC1               	goto	l5106
  2902  03BF                     u4000:
  2903  03BF  2BC8               	goto	l9777
  2904                           	
  2905  03C0                     l9775:	
  2906  03C0  2BC8               	goto	l9777
  2907                           	
  2908  03C1                     l5108:	
  2909                           	line	33
  2910                           	
  2911  03C1                     l5106:	
  2912                           	line	29
  2913  03C1  1283               	bcf	status, 5	;RP0=0, select bank0
  2914  03C2  1303               	bcf	status, 6	;RP1=0, select bank0
  2915  03C3  1D8C               	btfss	(99/8),(99)&7
  2916  03C4  2BC6               	goto	u4011
  2917  03C5  2BC7               	goto	u4010
  2918  03C6                     u4011:
  2919  03C6  2BAA               	goto	l9771
  2920  03C7                     u4010:
  2921  03C7  2BC8               	goto	l9777
  2922                           	
  2923  03C8                     l5109:	
  2924                           	line	34
  2925                           	
  2926  03C8                     l9777:	
  2927                           ;IIC.c: 33: }
  2928                           ;IIC.c: 34: t=0;
  2929  03C8  1283               	bcf	status, 5	;RP0=0, select bank0
  2930  03C9  1303               	bcf	status, 6	;RP1=0, select bank0
  2931  03CA  01C9               	clrf	(write_IIC@t)
  2932  03CB  01CA               	clrf	(write_IIC@t+1)
  2933                           	line	35
  2934                           	
  2935  03CC                     l9779:	
  2936                           ;IIC.c: 35: SSPIF=0;
  2937  03CC  118C               	bcf	(99/8),(99)&7
  2938                           	line	37
  2939                           	
  2940  03CD                     l9781:	
  2941                           ;IIC.c: 37: SSPBUF=wdate_L;
  2942  03CD  0847               	movf	(write_IIC@wdate_L),w
  2943  03CE  0093               	movwf	(19)	;volatile
  2944                           	line	38
  2945                           	
  2946  03CF                     l9783:	
  2947                           ;IIC.c: 38: Delay(1);
  2948  03CF  3001               	movlw	low(01h)
  2949  03D0  00C5               	movwf	(?_Delay)
  2950  03D1  3000               	movlw	high(01h)
  2951  03D2  00C6               	movwf	((?_Delay))+1
  2952  03D3  120A  118A  272B   	fcall	_Delay
              120A  118A         
  2953                           	line	39
  2954                           ;IIC.c: 39: while(SSPIF==0)
  2955  03D8  2BF0               	goto	l5110
  2956                           	
  2957  03D9                     l5111:	
  2958                           	line	41
  2959                           	
  2960  03D9                     l9785:	
  2961                           ;IIC.c: 40: {
  2962                           ;IIC.c: 41: t++;
  2963  03D9  3001               	movlw	low(01h)
  2964  03DA  1283               	bcf	status, 5	;RP0=0, select bank0
  2965  03DB  1303               	bcf	status, 6	;RP1=0, select bank0
  2966  03DC  07C9               	addwf	(write_IIC@t),f
  2967  03DD  1803               	skipnc
  2968  03DE  0ACA               	incf	(write_IIC@t+1),f
  2969  03DF  3000               	movlw	high(01h)
  2970  03E0  07CA               	addwf	(write_IIC@t+1),f
  2971                           	line	42
  2972                           	
  2973  03E1                     l9787:	
  2974                           ;IIC.c: 42: if(t > 1000) break;
  2975  03E1  084A               	movf	(write_IIC@t+1),w
  2976  03E2  3A80               	xorlw	80h
  2977  03E3  00FF               	movwf	btemp+1
  2978  03E4  3083               	movlw	(high(03E9h))^80h
  2979  03E5  027F               	subwf	btemp+1,w
  2980  03E6  1D03               	skipz
  2981  03E7  2BEA               	goto	u4025
  2982  03E8  30E9               	movlw	low(03E9h)
  2983  03E9  0249               	subwf	(write_IIC@t),w
  2984  03EA                     u4025:
  2985                           
  2986  03EA  1C03               	skipc
  2987  03EB  2BED               	goto	u4021
  2988  03EC  2BEE               	goto	u4020
  2989  03ED                     u4021:
  2990  03ED  2BF0               	goto	l5110
  2991  03EE                     u4020:
  2992  03EE  2BF7               	goto	l9791
  2993                           	
  2994  03EF                     l9789:	
  2995  03EF  2BF7               	goto	l9791
  2996                           	
  2997  03F0                     l5112:	
  2998                           	line	43
  2999                           	
  3000  03F0                     l5110:	
  3001                           	line	39
  3002  03F0  1283               	bcf	status, 5	;RP0=0, select bank0
  3003  03F1  1303               	bcf	status, 6	;RP1=0, select bank0
  3004  03F2  1D8C               	btfss	(99/8),(99)&7
  3005  03F3  2BF5               	goto	u4031
  3006  03F4  2BF6               	goto	u4030
  3007  03F5                     u4031:
  3008  03F5  2BD9               	goto	l9785
  3009  03F6                     u4030:
  3010  03F6  2BF7               	goto	l9791
  3011                           	
  3012  03F7                     l5113:	
  3013                           	line	44
  3014                           	
  3015  03F7                     l9791:	
  3016                           ;IIC.c: 43: }
  3017                           ;IIC.c: 44: t=0;
  3018  03F7  1283               	bcf	status, 5	;RP0=0, select bank0
  3019  03F8  1303               	bcf	status, 6	;RP1=0, select bank0
  3020  03F9  01C9               	clrf	(write_IIC@t)
  3021  03FA  01CA               	clrf	(write_IIC@t+1)
  3022                           	line	45
  3023                           	
  3024  03FB                     l9793:	
  3025                           ;IIC.c: 45: SSPIF=0;
  3026  03FB  118C               	bcf	(99/8),(99)&7
  3027                           	line	47
  3028                           	
  3029  03FC                     l9795:	
  3030                           ;IIC.c: 47: PEN=1;
  3031  03FC  1683               	bsf	status, 5	;RP0=1, select bank1
  3032  03FD  1303               	bcf	status, 6	;RP1=0, select bank1
  3033  03FE  1511               	bsf	(1162/8)^080h,(1162)&7
  3034                           	line	48
  3035                           ;IIC.c: 48: while(SSPIF==0)
  3036  03FF  2C16               	goto	l5114
  3037                           	
  3038  0400                     l5115:	
  3039                           	line	50
  3040                           	
  3041  0400                     l9797:	
  3042                           ;IIC.c: 49: {
  3043                           ;IIC.c: 50: t++;
  3044  0400  3001               	movlw	low(01h)
  3045  0401  1283               	bcf	status, 5	;RP0=0, select bank0
  3046  0402  07C9               	addwf	(write_IIC@t),f
  3047  0403  1803               	skipnc
  3048  0404  0ACA               	incf	(write_IIC@t+1),f
  3049  0405  3000               	movlw	high(01h)
  3050  0406  07CA               	addwf	(write_IIC@t+1),f
  3051                           	line	51
  3052                           	
  3053  0407                     l9799:	
  3054                           ;IIC.c: 51: if(t > 1000) break;
  3055  0407  084A               	movf	(write_IIC@t+1),w
  3056  0408  3A80               	xorlw	80h
  3057  0409  00FF               	movwf	btemp+1
  3058  040A  3083               	movlw	(high(03E9h))^80h
  3059  040B  027F               	subwf	btemp+1,w
  3060  040C  1D03               	skipz
  3061  040D  2C10               	goto	u4045
  3062  040E  30E9               	movlw	low(03E9h)
  3063  040F  0249               	subwf	(write_IIC@t),w
  3064  0410                     u4045:
  3065                           
  3066  0410  1C03               	skipc
  3067  0411  2C13               	goto	u4041
  3068  0412  2C14               	goto	u4040
  3069  0413                     u4041:
  3070  0413  2C16               	goto	l5114
  3071  0414                     u4040:
  3072  0414  2C1D               	goto	l9803
  3073                           	
  3074  0415                     l9801:	
  3075  0415  2C1D               	goto	l9803
  3076                           	
  3077  0416                     l5116:	
  3078                           	line	52
  3079                           	
  3080  0416                     l5114:	
  3081                           	line	48
  3082  0416  1283               	bcf	status, 5	;RP0=0, select bank0
  3083  0417  1303               	bcf	status, 6	;RP1=0, select bank0
  3084  0418  1D8C               	btfss	(99/8),(99)&7
  3085  0419  2C1B               	goto	u4051
  3086  041A  2C1C               	goto	u4050
  3087  041B                     u4051:
  3088  041B  2C00               	goto	l9797
  3089  041C                     u4050:
  3090  041C  2C1D               	goto	l9803
  3091                           	
  3092  041D                     l5117:	
  3093                           	line	53
  3094                           	
  3095  041D                     l9803:	
  3096                           ;IIC.c: 52: }
  3097                           ;IIC.c: 53: t=0;
  3098  041D  1283               	bcf	status, 5	;RP0=0, select bank0
  3099  041E  1303               	bcf	status, 6	;RP1=0, select bank0
  3100  041F  01C9               	clrf	(write_IIC@t)
  3101  0420  01CA               	clrf	(write_IIC@t+1)
  3102                           	line	54
  3103                           	
  3104  0421                     l9805:	
  3105                           ;IIC.c: 54: SSPIF=0;
  3106  0421  118C               	bcf	(99/8),(99)&7
  3107                           	line	56
  3108                           	
  3109  0422                     l5118:	
  3110  0422  0008               	return
  3111                           	opt stack 0
  3112                           GLOBAL	__end_of_write_IIC
  3113  0423                     	__end_of_write_IIC:
  3114 ;; =============== function _write_IIC ends ============
  3115                           
  3116                           	signat	_write_IIC,8312
  3117                           	global	_InitDevices
  3118                           psect	text829,local,class=CODE,delta=2
  3119                           global __ptext829
  3120  0617                     __ptext829:
  3121                           
  3122 ;; *************** function _InitDevices *****************
  3123 ;; Defined at:
  3124 ;;		line 117 in file "InitDevices.c"
  3125 ;; Parameters:    Size  Location     Type
  3126 ;;		None
  3127 ;; Auto vars:     Size  Location     Type
  3128 ;;		None
  3129 ;; Return value:  Size  Location     Type
  3130 ;;		None               void
  3131 ;; Registers used:
  3132 ;;		wreg, status,2, status,0, pclath, cstack
  3133 ;; Tracked objects:
  3134 ;;		On entry : 0/0
  3135 ;;		On exit  : 0/0
  3136 ;;		Unchanged: 0/0
  3137 ;; Data sizes:     COMMON   BANK0   BANK1   BANK3   BANK2
  3138 ;;      Params:         0       0       0       0       0
  3139 ;;      Locals:         0       0       0       0       0
  3140 ;;      Temps:          0       0       0       0       0
  3141 ;;      Totals:         0       0       0       0       0
  3142 ;;Total ram usage:        0 bytes
  3143 ;; Hardware stack levels used:    1
  3144 ;; Hardware stack levels required when called:    3
  3145 ;; This function calls:
  3146 ;;		_systemOSC
  3147 ;;		_PortInit
  3148 ;;		_InitTimer0
  3149 ;;		_InitTimer1
  3150 ;;		_IIC_init
  3151 ;;		_InitialiseADC
  3152 ;;		_InitTimer2
  3153 ;;		_InitCn
  3154 ;; This function is called by:
  3155 ;;		_main
  3156 ;; This function uses a non-reentrant model
  3157 ;;
  3158                           psect	text829
  3159                           	file	"InitDevices.c"
  3160                           	line	117
  3161                           	global	__size_of_InitDevices
  3162  0032                     	__size_of_InitDevices	equ	__end_of_InitDevices-_InitDevices
  3163                           	
  3164  0617                     _InitDevices:	
  3165                           	opt	stack 4
  3166                           ; Regs used in _InitDevices: [wreg+status,2+status,0+pclath+cstack]
  3167                           	line	118
  3168                           	
  3169  0617                     l9727:	
  3170                           ;InitDevices.c: 118: systemOSC();
  3171  0617  120A  118A  2788   	fcall	_systemOSC
              120A  118A         
  3172                           	line	119
  3173                           ;InitDevices.c: 119: PortInit();
  3174  061C  120A  118A  2716   	fcall	_PortInit
              120A  118A         
  3175                           	line	120
  3176                           ;InitDevices.c: 120: InitTimer0();
  3177  0621  120A  118A  276F   	fcall	_InitTimer0
              120A  118A         
  3178                           	line	121
  3179                           ;InitDevices.c: 121: InitTimer1();
  3180  0626  120A  118A  273F   	fcall	_InitTimer1
              120A  118A         
  3181                           	line	122
  3182                           ;InitDevices.c: 122: IIC_init();
  3183  062B  120A  118A  2751   	fcall	_IIC_init
              120A  118A         
  3184                           	line	123
  3185                           ;InitDevices.c: 123: InitialiseADC();
  3186  0630  120A  118A  2700   	fcall	_InitialiseADC
              120A  118A         
  3187                           	line	124
  3188                           ;InitDevices.c: 124: InitTimer2();
  3189  0635  120A  118A  2761   	fcall	_InitTimer2
              120A  118A         
  3190                           	line	125
  3191                           ;InitDevices.c: 125: InitCn();
  3192  063A  120A  118A  2781   	fcall	_InitCn
              120A  118A         
  3193                           	line	126
  3194                           	
  3195  063F                     l9729:	
  3196                           ;InitDevices.c: 126: PEIE = 1;
  3197  063F  170B               	bsf	(94/8),(94)&7
  3198                           	line	127
  3199                           	
  3200  0640                     l9731:	
  3201                           ;InitDevices.c: 127: TMR1ON=1;
  3202  0640  1283               	bcf	status, 5	;RP0=0, select bank0
  3203  0641  1303               	bcf	status, 6	;RP1=0, select bank0
  3204  0642  1410               	bsf	(128/8),(128)&7
  3205                           	line	128
  3206                           	
  3207  0643                     l9733:	
  3208                           ;InitDevices.c: 128: GIE=1;
  3209  0643  178B               	bsf	(95/8),(95)&7
  3210                           	line	130
  3211                           	
  3212  0644                     l9735:	
  3213                           ;InitDevices.c: 130: WDTCON = 0x16;
  3214  0644  3016               	movlw	(016h)
  3215  0645  1283               	bcf	status, 5	;RP0=0, select bank2
  3216  0646  1703               	bsf	status, 6	;RP1=1, select bank2
  3217  0647  0085               	movwf	(261)^0100h	;volatile
  3218                           	line	132
  3219                           	
  3220  0648                     l991:	
  3221  0648  0008               	return
  3222                           	opt stack 0
  3223                           GLOBAL	__end_of_InitDevices
  3224  0649                     	__end_of_InitDevices:
  3225 ;; =============== function _InitDevices ends ============
  3226                           
  3227                           	signat	_InitDevices,88
  3228                           	global	___lwdiv
  3229                           psect	text830,local,class=CODE,delta=2
  3230                           global __ptext830
  3231  054E                     __ptext830:
  3232                           
  3233 ;; *************** function ___lwdiv *****************
  3234 ;; Defined at:
  3235 ;;		line 5 in file "C:\Program Files (x86)\HI-TECH Software\PICC\9.82\sources\lwdiv.c"
  3236 ;; Parameters:    Size  Location     Type
  3237 ;;  divisor         2    0[BANK0 ] unsigned int 
  3238 ;;  dividend        2    2[BANK0 ] unsigned int 
  3239 ;; Auto vars:     Size  Location     Type
  3240 ;;  quotient        2    6[BANK0 ] unsigned int 
  3241 ;;  counter         1    5[BANK0 ] unsigned char 
  3242 ;; Return value:  Size  Location     Type
  3243 ;;                  2    0[BANK0 ] unsigned int 
  3244 ;; Registers used:
  3245 ;;		wreg, status,2, status,0
  3246 ;; Tracked objects:
  3247 ;;		On entry : 0/0
  3248 ;;		On exit  : 0/0
  3249 ;;		Unchanged: 0/0
  3250 ;; Data sizes:     COMMON   BANK0   BANK1   BANK3   BANK2
  3251 ;;      Params:         0       4       0       0       0
  3252 ;;      Locals:         0       3       0       0       0
  3253 ;;      Temps:          0       1       0       0       0
  3254 ;;      Totals:         0       8       0       0       0
  3255 ;;Total ram usage:        8 bytes
  3256 ;; Hardware stack levels used:    1
  3257 ;; Hardware stack levels required when called:    2
  3258 ;; This function calls:
  3259 ;;		Nothing
  3260 ;; This function is called by:
  3261 ;;		_main
  3262 ;; This function uses a non-reentrant model
  3263 ;;
  3264                           psect	text830
  3265                           	file	"C:\Program Files (x86)\HI-TECH Software\PICC\9.82\sources\lwdiv.c"
  3266                           	line	5
  3267                           	global	__size_of___lwdiv
  3268  0050                     	__size_of___lwdiv	equ	__end_of___lwdiv-___lwdiv
  3269                           	
  3270  054E                     ___lwdiv:	
  3271                           	opt	stack 5
  3272                           ; Regs used in ___lwdiv: [wreg+status,2+status,0]
  3273                           	line	9
  3274                           	
  3275  054E                     l9701:	
  3276  054E  1283               	bcf	status, 5	;RP0=0, select bank0
  3277  054F  1303               	bcf	status, 6	;RP1=0, select bank0
  3278  0550  01CB               	clrf	(___lwdiv@quotient)
  3279  0551  01CC               	clrf	(___lwdiv@quotient+1)
  3280                           	line	10
  3281                           	
  3282  0552                     l9703:	
  3283  0552  0846               	movf	(___lwdiv@divisor+1),w
  3284  0553  0445               	iorwf	(___lwdiv@divisor),w
  3285  0554  1903               	skipnz
  3286  0555  2D57               	goto	u3891
  3287  0556  2D58               	goto	u3890
  3288  0557                     u3891:
  3289  0557  2D96               	goto	l9723
  3290  0558                     u3890:
  3291                           	line	11
  3292                           	
  3293  0558                     l9705:	
  3294  0558  01CA               	clrf	(___lwdiv@counter)
  3295  0559  1403               	bsf	status,0
  3296  055A  0DCA               	rlf	(___lwdiv@counter),f
  3297                           	line	12
  3298  055B  2D68               	goto	l9711
  3299                           	
  3300  055C                     l7063:	
  3301                           	line	13
  3302                           	
  3303  055C                     l9707:	
  3304  055C  3001               	movlw	01h
  3305                           	
  3306  055D                     u3905:
  3307  055D  1003               	clrc
  3308  055E  0DC5               	rlf	(___lwdiv@divisor),f
  3309  055F  0DC6               	rlf	(___lwdiv@divisor+1),f
  3310  0560  3EFF               	addlw	-1
  3311  0561  1D03               	skipz
  3312  0562  2D5D               	goto	u3905
  3313                           	line	14
  3314                           	
  3315  0563                     l9709:	
  3316  0563  3001               	movlw	(01h)
  3317  0564  00C9               	movwf	(??___lwdiv+0)+0
  3318  0565  0849               	movf	(??___lwdiv+0)+0,w
  3319  0566  07CA               	addwf	(___lwdiv@counter),f
  3320  0567  2D68               	goto	l9711
  3321                           	line	15
  3322                           	
  3323  0568                     l7062:	
  3324                           	line	12
  3325                           	
  3326  0568                     l9711:	
  3327  0568  1FC6               	btfss	(___lwdiv@divisor+1),(15)&7
  3328  0569  2D6B               	goto	u3911
  3329  056A  2D6C               	goto	u3910
  3330  056B                     u3911:
  3331  056B  2D5C               	goto	l9707
  3332  056C                     u3910:
  3333  056C  2D6E               	goto	l9713
  3334                           	
  3335  056D                     l7064:	
  3336  056D  2D6E               	goto	l9713
  3337                           	line	16
  3338                           	
  3339  056E                     l7065:	
  3340                           	line	17
  3341                           	
  3342  056E                     l9713:	
  3343  056E  3001               	movlw	01h
  3344                           	
  3345  056F                     u3925:
  3346  056F  1003               	clrc
  3347  0570  0DCB               	rlf	(___lwdiv@quotient),f
  3348  0571  0DCC               	rlf	(___lwdiv@quotient+1),f
  3349  0572  3EFF               	addlw	-1
  3350  0573  1D03               	skipz
  3351  0574  2D6F               	goto	u3925
  3352                           	line	18
  3353  0575  0846               	movf	(___lwdiv@divisor+1),w
  3354  0576  0248               	subwf	(___lwdiv@dividend+1),w
  3355  0577  1D03               	skipz
  3356  0578  2D7B               	goto	u3935
  3357  0579  0845               	movf	(___lwdiv@divisor),w
  3358  057A  0247               	subwf	(___lwdiv@dividend),w
  3359  057B                     u3935:
  3360  057B  1C03               	skipc
  3361  057C  2D7E               	goto	u3931
  3362  057D  2D7F               	goto	u3930
  3363  057E                     u3931:
  3364  057E  2D87               	goto	l9719
  3365  057F                     u3930:
  3366                           	line	19
  3367                           	
  3368  057F                     l9715:	
  3369  057F  0845               	movf	(___lwdiv@divisor),w
  3370  0580  02C7               	subwf	(___lwdiv@dividend),f
  3371  0581  0846               	movf	(___lwdiv@divisor+1),w
  3372  0582  1C03               	skipc
  3373  0583  03C8               	decf	(___lwdiv@dividend+1),f
  3374  0584  02C8               	subwf	(___lwdiv@dividend+1),f
  3375                           	line	20
  3376                           	
  3377  0585                     l9717:	
  3378  0585  144B               	bsf	(___lwdiv@quotient)+(0/8),(0)&7
  3379  0586  2D87               	goto	l9719
  3380                           	line	21
  3381                           	
  3382  0587                     l7066:	
  3383                           	line	22
  3384                           	
  3385  0587                     l9719:	
  3386  0587  3001               	movlw	01h
  3387                           	
  3388  0588                     u3945:
  3389  0588  1003               	clrc
  3390  0589  0CC6               	rrf	(___lwdiv@divisor+1),f
  3391  058A  0CC5               	rrf	(___lwdiv@divisor),f
  3392  058B  3EFF               	addlw	-1
  3393  058C  1D03               	skipz
  3394  058D  2D88               	goto	u3945
  3395                           	line	23
  3396                           	
  3397  058E                     l9721:	
  3398  058E  3001               	movlw	low(01h)
  3399  058F  02CA               	subwf	(___lwdiv@counter),f
  3400  0590  1D03               	btfss	status,2
  3401  0591  2D93               	goto	u3951
  3402  0592  2D94               	goto	u3950
  3403  0593                     u3951:
  3404  0593  2D6E               	goto	l9713
  3405  0594                     u3950:
  3406  0594  2D96               	goto	l9723
  3407                           	
  3408  0595                     l7067:	
  3409  0595  2D96               	goto	l9723
  3410                           	line	24
  3411                           	
  3412  0596                     l7061:	
  3413                           	line	25
  3414                           	
  3415  0596                     l9723:	
  3416  0596  084C               	movf	(___lwdiv@quotient+1),w
  3417  0597  01C6               	clrf	(?___lwdiv+1)
  3418  0598  07C6               	addwf	(?___lwdiv+1)
  3419  0599  084B               	movf	(___lwdiv@quotient),w
  3420  059A  01C5               	clrf	(?___lwdiv)
  3421  059B  07C5               	addwf	(?___lwdiv)
  3422                           
  3423  059C  2D9D               	goto	l7068
  3424                           	
  3425  059D                     l9725:	
  3426                           	line	26
  3427                           	
  3428  059D                     l7068:	
  3429  059D  0008               	return
  3430                           	opt stack 0
  3431                           GLOBAL	__end_of___lwdiv
  3432  059E                     	__end_of___lwdiv:
  3433 ;; =============== function ___lwdiv ends ============
  3434                           
  3435                           	signat	___lwdiv,8314
  3436                           	global	_Delay
  3437                           psect	text831,local,class=CODE,delta=2
  3438                           global __ptext831
  3439  072B                     __ptext831:
  3440                           
  3441 ;; *************** function _Delay *****************
  3442 ;; Defined at:
  3443 ;;		line 98 in file "IIC.c"
  3444 ;; Parameters:    Size  Location     Type
  3445 ;;  n               2    0[BANK0 ] unsigned int 
  3446 ;; Auto vars:     Size  Location     Type
  3447 ;;		None
  3448 ;; Return value:  Size  Location     Type
  3449 ;;		None               void
  3450 ;; Registers used:
  3451 ;;		wreg, status,2, status,0
  3452 ;; Tracked objects:
  3453 ;;		On entry : 0/0
  3454 ;;		On exit  : 0/0
  3455 ;;		Unchanged: 0/0
  3456 ;; Data sizes:     COMMON   BANK0   BANK1   BANK3   BANK2
  3457 ;;      Params:         0       2       0       0       0
  3458 ;;      Locals:         0       0       0       0       0
  3459 ;;      Temps:          0       0       0       0       0
  3460 ;;      Totals:         0       2       0       0       0
  3461 ;;Total ram usage:        2 bytes
  3462 ;; Hardware stack levels used:    1
  3463 ;; Hardware stack levels required when called:    2
  3464 ;; This function calls:
  3465 ;;		Nothing
  3466 ;; This function is called by:
  3467 ;;		_write_IIC
  3468 ;; This function uses a non-reentrant model
  3469 ;;
  3470                           psect	text831
  3471                           	file	"IIC.c"
  3472                           	line	98
  3473                           	global	__size_of_Delay
  3474  0014                     	__size_of_Delay	equ	__end_of_Delay-_Delay
  3475                           	
  3476  072B                     _Delay:	
  3477                           	opt	stack 3
  3478                           ; Regs used in _Delay: [wreg+status,2+status,0]
  3479                           	line	99
  3480                           	
  3481  072B                     l9695:	
  3482                           ;IIC.c: 99: while(n)
  3483  072B  2F35               	goto	l9699
  3484                           	
  3485  072C                     l5122:	
  3486                           	line	101
  3487                           	
  3488  072C                     l9697:	
  3489                           ;IIC.c: 100: {
  3490                           ;IIC.c: 101: n--;
  3491  072C  3001               	movlw	low(01h)
  3492  072D  1283               	bcf	status, 5	;RP0=0, select bank0
  3493  072E  1303               	bcf	status, 6	;RP1=0, select bank0
  3494  072F  02C5               	subwf	(Delay@n),f
  3495  0730  3000               	movlw	high(01h)
  3496  0731  1C03               	skipc
  3497  0732  03C6               	decf	(Delay@n+1),f
  3498  0733  02C6               	subwf	(Delay@n+1),f
  3499  0734  2F35               	goto	l9699
  3500                           	line	102
  3501                           	
  3502  0735                     l5121:	
  3503                           	line	99
  3504                           	
  3505  0735                     l9699:	
  3506  0735  1283               	bcf	status, 5	;RP0=0, select bank0
  3507  0736  1303               	bcf	status, 6	;RP1=0, select bank0
  3508  0737  0846               	movf	((Delay@n+1)),w
  3509  0738  0445               	iorwf	((Delay@n)),w
  3510  0739  1D03               	skipz
  3511  073A  2F3C               	goto	u3881
  3512  073B  2F3D               	goto	u3880
  3513  073C                     u3881:
  3514  073C  2F2C               	goto	l9697
  3515  073D                     u3880:
  3516  073D  2F3E               	goto	l5124
  3517                           	
  3518  073E                     l5123:	
  3519                           	line	103
  3520                           	
  3521  073E                     l5124:	
  3522  073E  0008               	return
  3523                           	opt stack 0
  3524                           GLOBAL	__end_of_Delay
  3525  073F                     	__end_of_Delay:
  3526 ;; =============== function _Delay ends ============
  3527                           
  3528                           	signat	_Delay,4216
  3529                           	global	_delaynms
  3530                           psect	text832,local,class=CODE,delta=2
  3531                           global __ptext832
  3532  05E3                     __ptext832:
  3533                           
  3534 ;; *************** function _delaynms *****************
  3535 ;; Defined at:
  3536 ;;		line 107 in file "IIC.c"
  3537 ;; Parameters:    Size  Location     Type
  3538 ;;  n               2    0[BANK0 ] unsigned int 
  3539 ;; Auto vars:     Size  Location     Type
  3540 ;;  j               2    4[BANK0 ] unsigned int 
  3541 ;;  i               2    2[BANK0 ] unsigned int 
  3542 ;; Return value:  Size  Location     Type
  3543 ;;		None               void
  3544 ;; Registers used:
  3545 ;;		wreg, status,2
  3546 ;; Tracked objects:
  3547 ;;		On entry : 0/0
  3548 ;;		On exit  : 0/0
  3549 ;;		Unchanged: 0/0
  3550 ;; Data sizes:     COMMON   BANK0   BANK1   BANK3   BANK2
  3551 ;;      Params:         0       2       0       0       0
  3552 ;;      Locals:         0       4       0       0       0
  3553 ;;      Temps:          0       0       0       0       0
  3554 ;;      Totals:         0       6       0       0       0
  3555 ;;Total ram usage:        6 bytes
  3556 ;; Hardware stack levels used:    1
  3557 ;; Hardware stack levels required when called:    2
  3558 ;; This function calls:
  3559 ;;		Nothing
  3560 ;; This function is called by:
  3561 ;;		_main
  3562 ;;		_The_Close
  3563 ;;		_MotorClose
  3564 ;;		_MotorStart
  3565 ;; This function uses a non-reentrant model
  3566 ;;
  3567                           psect	text832
  3568                           	file	"IIC.c"
  3569                           	line	107
  3570                           	global	__size_of_delaynms
  3571  0034                     	__size_of_delaynms	equ	__end_of_delaynms-_delaynms
  3572                           	
  3573  05E3                     _delaynms:	
  3574                           	opt	stack 4
  3575                           ; Regs used in _delaynms: [wreg+status,2]
  3576                           	line	110
  3577                           	
  3578  05E3                     l9651:	
  3579                           ;IIC.c: 108: unsigned int i,j;
  3580                           ;IIC.c: 110: for(i=0;i<n;i++)
  3581  05E3  1283               	bcf	status, 5	;RP0=0, select bank0
  3582  05E4  1303               	bcf	status, 6	;RP1=0, select bank0
  3583  05E5  01C7               	clrf	(delaynms@i)
  3584  05E6  01C8               	clrf	(delaynms@i+1)
  3585  05E7  2E0B               	goto	l5127
  3586                           	line	111
  3587                           	
  3588  05E8                     l5128:	
  3589                           	
  3590  05E8                     l9653:	
  3591                           ;IIC.c: 111: for(j=0;j<1600;j++);
  3592  05E8  01C9               	clrf	(delaynms@j)
  3593  05E9  01CA               	clrf	(delaynms@j+1)
  3594                           	
  3595  05EA                     l9655:	
  3596  05EA  3006               	movlw	high(0640h)
  3597  05EB  024A               	subwf	(delaynms@j+1),w
  3598  05EC  3040               	movlw	low(0640h)
  3599  05ED  1903               	skipnz
  3600  05EE  0249               	subwf	(delaynms@j),w
  3601  05EF  1C03               	skipc
  3602  05F0  2DF2               	goto	u3841
  3603  05F1  2DF3               	goto	u3840
  3604  05F2                     u3841:
  3605  05F2  2DF5               	goto	l9659
  3606  05F3                     u3840:
  3607  05F3  2E05               	goto	l9661
  3608                           	
  3609  05F4                     l9657:	
  3610  05F4  2E05               	goto	l9661
  3611                           	
  3612  05F5                     l5129:	
  3613                           	
  3614  05F5                     l9659:	
  3615  05F5  3001               	movlw	low(01h)
  3616  05F6  07C9               	addwf	(delaynms@j),f
  3617  05F7  1803               	skipnc
  3618  05F8  0ACA               	incf	(delaynms@j+1),f
  3619  05F9  3000               	movlw	high(01h)
  3620  05FA  07CA               	addwf	(delaynms@j+1),f
  3621  05FB  3006               	movlw	high(0640h)
  3622  05FC  024A               	subwf	(delaynms@j+1),w
  3623  05FD  3040               	movlw	low(0640h)
  3624  05FE  1903               	skipnz
  3625  05FF  0249               	subwf	(delaynms@j),w
  3626  0600  1C03               	skipc
  3627  0601  2E03               	goto	u3851
  3628  0602  2E04               	goto	u3850
  3629  0603                     u3851:
  3630  0603  2DF5               	goto	l9659
  3631  0604                     u3850:
  3632  0604  2E05               	goto	l9661
  3633                           	
  3634  0605                     l5130:	
  3635                           	line	110
  3636                           	
  3637  0605                     l9661:	
  3638  0605  3001               	movlw	low(01h)
  3639  0606  07C7               	addwf	(delaynms@i),f
  3640  0607  1803               	skipnc
  3641  0608  0AC8               	incf	(delaynms@i+1),f
  3642  0609  3000               	movlw	high(01h)
  3643  060A  07C8               	addwf	(delaynms@i+1),f
  3644                           	
  3645  060B                     l5127:	
  3646  060B  0846               	movf	(delaynms@n+1),w
  3647  060C  0248               	subwf	(delaynms@i+1),w
  3648  060D  1D03               	skipz
  3649  060E  2E11               	goto	u3865
  3650  060F  0845               	movf	(delaynms@n),w
  3651  0610  0247               	subwf	(delaynms@i),w
  3652  0611                     u3865:
  3653  0611  1C03               	skipc
  3654  0612  2E14               	goto	u3861
  3655  0613  2E15               	goto	u3860
  3656  0614                     u3861:
  3657  0614  2DE8               	goto	l9653
  3658  0615                     u3860:
  3659  0615  2E16               	goto	l5132
  3660                           	
  3661  0616                     l5131:	
  3662                           	line	112
  3663                           	
  3664  0616                     l5132:	
  3665  0616  0008               	return
  3666                           	opt stack 0
  3667                           GLOBAL	__end_of_delaynms
  3668  0617                     	__end_of_delaynms:
  3669 ;; =============== function _delaynms ends ============
  3670                           
  3671                           	signat	_delaynms,4216
  3672                           	global	_ReadADC
  3673                           psect	text833,local,class=CODE,delta=2
  3674                           global __ptext833
  3675  059E                     __ptext833:
  3676                           
  3677 ;; *************** function _ReadADC *****************
  3678 ;; Defined at:
  3679 ;;		line 31 in file "ADC.c"
  3680 ;; Parameters:    Size  Location     Type
  3681 ;;  ADC_Channel     1    wreg     unsigned char 
  3682 ;; Auto vars:     Size  Location     Type
  3683 ;;  ADC_Channel     1    4[BANK0 ] unsigned char 
  3684 ;;  i               1    0        unsigned char 
  3685 ;; Return value:  Size  Location     Type
  3686 ;;                  2    0[BANK0 ] unsigned int 
  3687 ;; Registers used:
  3688 ;;		wreg, status,2, status,0, btemp+1
  3689 ;; Tracked objects:
  3690 ;;		On entry : 0/0
  3691 ;;		On exit  : 0/0
  3692 ;;		Unchanged: 0/0
  3693 ;; Data sizes:     COMMON   BANK0   BANK1   BANK3   BANK2
  3694 ;;      Params:         0       2       0       0       0
  3695 ;;      Locals:         0       1       0       0       0
  3696 ;;      Temps:          0       2       0       0       0
  3697 ;;      Totals:         0       5       0       0       0
  3698 ;;Total ram usage:        5 bytes
  3699 ;; Hardware stack levels used:    1
  3700 ;; Hardware stack levels required when called:    2
  3701 ;; This function calls:
  3702 ;;		Nothing
  3703 ;; This function is called by:
  3704 ;;		_main
  3705 ;; This function uses a non-reentrant model
  3706 ;;
  3707                           psect	text833
  3708                           	file	"ADC.c"
  3709                           	line	31
  3710                           	global	__size_of_ReadADC
  3711  0045                     	__size_of_ReadADC	equ	__end_of_ReadADC-_ReadADC
  3712                           	
  3713  059E                     _ReadADC:	
  3714                           	opt	stack 5
  3715                           ; Regs used in _ReadADC: [wreg+status,2+status,0+btemp+1]
  3716                           ;ReadADC@ADC_Channel stored from wreg
  3717                           	line	34
  3718  059E  1283               	bcf	status, 5	;RP0=0, select bank0
  3719  059F  1303               	bcf	status, 6	;RP1=0, select bank0
  3720  05A0  00C9               	movwf	(ReadADC@ADC_Channel)
  3721                           	
  3722  05A1                     l9629:	
  3723                           ;ADC.c: 32: static unsigned int ADC_VALUE;
  3724                           ;ADC.c: 33: unsigned char i;
  3725                           ;ADC.c: 34: ADC_Channel %=16;
  3726  05A1  300F               	movlw	(0Fh)
  3727  05A2  00C7               	movwf	(??_ReadADC+0)+0
  3728  05A3  0847               	movf	(??_ReadADC+0)+0,w
  3729  05A4  05C9               	andwf	(ReadADC@ADC_Channel),f
  3730                           	line	36
  3731                           	
  3732  05A5                     l9631:	
  3733                           ;ADC.c: 36: ADCON0 = 0x80 +(ADC_Channel<<2) + 0x01;
  3734  05A5  0849               	movf	(ReadADC@ADC_Channel),w
  3735  05A6  00C7               	movwf	(??_ReadADC+0)+0
  3736  05A7  3001               	movlw	(02h)-1
  3737  05A8                     u3825:
  3738  05A8  1003               	clrc
  3739  05A9  0DC7               	rlf	(??_ReadADC+0)+0,f
  3740  05AA  3EFF               	addlw	-1
  3741  05AB  1D03               	skipz
  3742  05AC  2DA8               	goto	u3825
  3743  05AD  1003               	clrc
  3744  05AE  0D47               	rlf	(??_ReadADC+0)+0,w
  3745  05AF  3E81               	addlw	081h
  3746  05B0  009F               	movwf	(31)	;volatile
  3747                           	line	37
  3748                           	
  3749  05B1                     l9633:	
  3750                           ;ADC.c: 37: ADIE = 0;
  3751  05B1  1683               	bsf	status, 5	;RP0=1, select bank1
  3752  05B2  1303               	bcf	status, 6	;RP1=0, select bank1
  3753  05B3  130C               	bcf	(1126/8)^080h,(1126)&7
  3754                           	line	38
  3755                           	
  3756  05B4                     l9635:	
  3757                           ;ADC.c: 38: ADIF = 0;
  3758  05B4  1283               	bcf	status, 5	;RP0=0, select bank0
  3759  05B5  1303               	bcf	status, 6	;RP1=0, select bank0
  3760  05B6  130C               	bcf	(102/8),(102)&7
  3761                           	line	39
  3762                           	
  3763  05B7                     l9637:	
  3764                           ;ADC.c: 39: ADRESL = 0;
  3765  05B7  1683               	bsf	status, 5	;RP0=1, select bank1
  3766  05B8  1303               	bcf	status, 6	;RP1=0, select bank1
  3767  05B9  019E               	clrf	(158)^080h	;volatile
  3768                           	line	40
  3769                           	
  3770  05BA                     l9639:	
  3771                           ;ADC.c: 40: ADRESH = 0;
  3772  05BA  1283               	bcf	status, 5	;RP0=0, select bank0
  3773  05BB  1303               	bcf	status, 6	;RP1=0, select bank0
  3774  05BC  019E               	clrf	(30)	;volatile
  3775                           	line	41
  3776                           	
  3777  05BD                     l9641:	
  3778                           ;ADC.c: 41: GO = 1;
  3779  05BD  149F               	bsf	(249/8),(249)&7
  3780                           	line	42
  3781                           ;ADC.c: 42: while(!ADIF) continue;
  3782  05BE  2DBF               	goto	l6117
  3783                           	
  3784  05BF                     l6118:	
  3785                           	
  3786  05BF                     l6117:	
  3787  05BF  1F0C               	btfss	(102/8),(102)&7
  3788  05C0  2DC2               	goto	u3831
  3789  05C1  2DC3               	goto	u3830
  3790  05C2                     u3831:
  3791  05C2  2DBF               	goto	l6117
  3792  05C3                     u3830:
  3793  05C3  2DC4               	goto	l9643
  3794                           	
  3795  05C4                     l6119:	
  3796                           	line	43
  3797                           	
  3798  05C4                     l9643:	
  3799                           ;ADC.c: 43: ADC_VALUE = ADRESL;
  3800  05C4  1683               	bsf	status, 5	;RP0=1, select bank1
  3801  05C5  1303               	bcf	status, 6	;RP1=0, select bank1
  3802  05C6  081E               	movf	(158)^080h,w	;volatile
  3803  05C7  1283               	bcf	status, 5	;RP0=0, select bank0
  3804  05C8  1303               	bcf	status, 6	;RP1=0, select bank0
  3805  05C9  00C7               	movwf	(??_ReadADC+0)+0
  3806  05CA  01C8               	clrf	(??_ReadADC+0)+0+1
  3807  05CB  0847               	movf	0+(??_ReadADC+0)+0,w
  3808  05CC  00A0               	movwf	(ReadADC@ADC_VALUE)
  3809  05CD  0848               	movf	1+(??_ReadADC+0)+0,w
  3810  05CE  00A1               	movwf	(ReadADC@ADC_VALUE+1)
  3811                           	line	44
  3812                           	
  3813  05CF                     l9645:	
  3814                           ;ADC.c: 44: ADC_VALUE += (ADRESH << 8);
  3815  05CF  081E               	movf	(30),w	;volatile
  3816  05D0  00C7               	movwf	(??_ReadADC+0)+0
  3817  05D1  01C8               	clrf	(??_ReadADC+0)+0+1
  3818  05D2  0847               	movf	(??_ReadADC+0)+0,w
  3819  05D3  00C8               	movwf	(??_ReadADC+0)+1
  3820  05D4  01C7               	clrf	(??_ReadADC+0)+0
  3821  05D5  0847               	movf	0+(??_ReadADC+0)+0,w
  3822  05D6  07A0               	addwf	(ReadADC@ADC_VALUE),f
  3823  05D7  1803               	skipnc
  3824  05D8  0AA1               	incf	(ReadADC@ADC_VALUE+1),f
  3825  05D9  0848               	movf	1+(??_ReadADC+0)+0,w
  3826  05DA  07A1               	addwf	(ReadADC@ADC_VALUE+1),f
  3827                           	line	45
  3828                           	
  3829  05DB                     l9647:	
  3830                           ;ADC.c: 45: return (ADC_VALUE);
  3831  05DB  0821               	movf	(ReadADC@ADC_VALUE+1),w
  3832  05DC  01C6               	clrf	(?_ReadADC+1)
  3833  05DD  07C6               	addwf	(?_ReadADC+1)
  3834  05DE  0820               	movf	(ReadADC@ADC_VALUE),w
  3835  05DF  01C5               	clrf	(?_ReadADC)
  3836  05E0  07C5               	addwf	(?_ReadADC)
  3837                           
  3838  05E1  2DE2               	goto	l6120
  3839                           	
  3840  05E2                     l9649:	
  3841                           	line	46
  3842                           	
  3843  05E2                     l6120:	
  3844  05E2  0008               	return
  3845                           	opt stack 0
  3846                           GLOBAL	__end_of_ReadADC
  3847  05E3                     	__end_of_ReadADC:
  3848 ;; =============== function _ReadADC ends ============
  3849                           
  3850                           	signat	_ReadADC,4218
  3851                           	global	_InitCn
  3852                           psect	text834,local,class=CODE,delta=2
  3853                           global __ptext834
  3854  0781                     __ptext834:
  3855                           
  3856 ;; *************** function _InitCn *****************
  3857 ;; Defined at:
  3858 ;;		line 110 in file "InitDevices.c"
  3859 ;; Parameters:    Size  Location     Type
  3860 ;;		None
  3861 ;; Auto vars:     Size  Location     Type
  3862 ;;		None
  3863 ;; Return value:  Size  Location     Type
  3864 ;;		None               void
  3865 ;; Registers used:
  3866 ;;		wreg
  3867 ;; Tracked objects:
  3868 ;;		On entry : 0/0
  3869 ;;		On exit  : 0/0
  3870 ;;		Unchanged: 0/0
  3871 ;; Data sizes:     COMMON   BANK0   BANK1   BANK3   BANK2
  3872 ;;      Params:         0       0       0       0       0
  3873 ;;      Locals:         0       0       0       0       0
  3874 ;;      Temps:          0       0       0       0       0
  3875 ;;      Totals:         0       0       0       0       0
  3876 ;;Total ram usage:        0 bytes
  3877 ;; Hardware stack levels used:    1
  3878 ;; Hardware stack levels required when called:    2
  3879 ;; This function calls:
  3880 ;;		Nothing
  3881 ;; This function is called by:
  3882 ;;		_InitDevices
  3883 ;; This function uses a non-reentrant model
  3884 ;;
  3885                           psect	text834
  3886                           	file	"InitDevices.c"
  3887                           	line	110
  3888                           	global	__size_of_InitCn
  3889  0007                     	__size_of_InitCn	equ	__end_of_InitCn-_InitCn
  3890                           	
  3891  0781                     _InitCn:	
  3892                           	opt	stack 4
  3893                           ; Regs used in _InitCn: [wreg]
  3894                           	line	111
  3895                           	
  3896  0781                     l9623:	
  3897                           ;InitDevices.c: 111: IOCB=0X10;
  3898  0781  3010               	movlw	(010h)
  3899  0782  1683               	bsf	status, 5	;RP0=1, select bank1
  3900  0783  1303               	bcf	status, 6	;RP1=0, select bank1
  3901  0784  0096               	movwf	(150)^080h	;volatile
  3902                           	line	112
  3903                           	
  3904  0785                     l9625:	
  3905                           ;InitDevices.c: 112: RBIE=1;
  3906  0785  158B               	bsf	(91/8),(91)&7
  3907                           	line	113
  3908                           	
  3909  0786                     l9627:	
  3910                           ;InitDevices.c: 113: RBIF=0;
  3911  0786  100B               	bcf	(88/8),(88)&7
  3912                           	line	114
  3913                           	
  3914  0787                     l988:	
  3915  0787  0008               	return
  3916                           	opt stack 0
  3917                           GLOBAL	__end_of_InitCn
  3918  0788                     	__end_of_InitCn:
  3919 ;; =============== function _InitCn ends ============
  3920                           
  3921                           	signat	_InitCn,88
  3922                           	global	_InitTimer2
  3923                           psect	text835,local,class=CODE,delta=2
  3924                           global __ptext835
  3925  0761                     __ptext835:
  3926                           
  3927 ;; *************** function _InitTimer2 *****************
  3928 ;; Defined at:
  3929 ;;		line 100 in file "InitDevices.c"
  3930 ;; Parameters:    Size  Location     Type
  3931 ;;		None
  3932 ;; Auto vars:     Size  Location     Type
  3933 ;;		None
  3934 ;; Return value:  Size  Location     Type
  3935 ;;		None               void
  3936 ;; Registers used:
  3937 ;;		wreg, status,2
  3938 ;; Tracked objects:
  3939 ;;		On entry : 0/0
  3940 ;;		On exit  : 0/0
  3941 ;;		Unchanged: 0/0
  3942 ;; Data sizes:     COMMON   BANK0   BANK1   BANK3   BANK2
  3943 ;;      Params:         0       0       0       0       0
  3944 ;;      Locals:         0       0       0       0       0
  3945 ;;      Temps:          0       0       0       0       0
  3946 ;;      Totals:         0       0       0       0       0
  3947 ;;Total ram usage:        0 bytes
  3948 ;; Hardware stack levels used:    1
  3949 ;; Hardware stack levels required when called:    2
  3950 ;; This function calls:
  3951 ;;		Nothing
  3952 ;; This function is called by:
  3953 ;;		_InitDevices
  3954 ;; This function uses a non-reentrant model
  3955 ;;
  3956                           psect	text835
  3957                           	file	"InitDevices.c"
  3958                           	line	100
  3959                           	global	__size_of_InitTimer2
  3960  000E                     	__size_of_InitTimer2	equ	__end_of_InitTimer2-_InitTimer2
  3961                           	
  3962  0761                     _InitTimer2:	
  3963                           	opt	stack 4
  3964                           ; Regs used in _InitTimer2: [wreg+status,2]
  3965                           	line	101
  3966                           	
  3967  0761                     l9613:	
  3968                           ;InitDevices.c: 101: T2CON = 0X00;
  3969  0761  1283               	bcf	status, 5	;RP0=0, select bank0
  3970  0762  1303               	bcf	status, 6	;RP1=0, select bank0
  3971  0763  0192               	clrf	(18)	;volatile
  3972                           	line	102
  3973                           ;InitDevices.c: 102: TMR2=0;
  3974  0764  0191               	clrf	(17)	;volatile
  3975                           	line	103
  3976                           	
  3977  0765                     l9615:	
  3978                           ;InitDevices.c: 103: PR2=199;
  3979  0765  30C7               	movlw	(0C7h)
  3980  0766  1683               	bsf	status, 5	;RP0=1, select bank1
  3981  0767  1303               	bcf	status, 6	;RP1=0, select bank1
  3982  0768  0092               	movwf	(146)^080h	;volatile
  3983                           	line	104
  3984                           	
  3985  0769                     l9617:	
  3986                           ;InitDevices.c: 104: TMR2IE=1;
  3987  0769  148C               	bsf	(1121/8)^080h,(1121)&7
  3988                           	line	105
  3989                           	
  3990  076A                     l9619:	
  3991                           ;InitDevices.c: 105: TMR2IF = 0;
  3992  076A  1283               	bcf	status, 5	;RP0=0, select bank0
  3993  076B  1303               	bcf	status, 6	;RP1=0, select bank0
  3994  076C  108C               	bcf	(97/8),(97)&7
  3995                           	line	106
  3996                           	
  3997  076D                     l9621:	
  3998                           ;InitDevices.c: 106: TMR2ON = 0;
  3999  076D  1112               	bcf	(146/8),(146)&7
  4000                           	line	107
  4001                           	
  4002  076E                     l985:	
  4003  076E  0008               	return
  4004                           	opt stack 0
  4005                           GLOBAL	__end_of_InitTimer2
  4006  076F                     	__end_of_InitTimer2:
  4007 ;; =============== function _InitTimer2 ends ============
  4008                           
  4009                           	signat	_InitTimer2,88
  4010                           	global	_InitTimer1
  4011                           psect	text836,local,class=CODE,delta=2
  4012                           global __ptext836
  4013  073F                     __ptext836:
  4014                           
  4015 ;; *************** function _InitTimer1 *****************
  4016 ;; Defined at:
  4017 ;;		line 87 in file "InitDevices.c"
  4018 ;; Parameters:    Size  Location     Type
  4019 ;;		None
  4020 ;; Auto vars:     Size  Location     Type
  4021 ;;		None
  4022 ;; Return value:  Size  Location     Type
  4023 ;;		None               void
  4024 ;; Registers used:
  4025 ;;		wreg, status,2
  4026 ;; Tracked objects:
  4027 ;;		On entry : 0/0
  4028 ;;		On exit  : 0/0
  4029 ;;		Unchanged: 0/0
  4030 ;; Data sizes:     COMMON   BANK0   BANK1   BANK3   BANK2
  4031 ;;      Params:         0       0       0       0       0
  4032 ;;      Locals:         0       0       0       0       0
  4033 ;;      Temps:          0       0       0       0       0
  4034 ;;      Totals:         0       0       0       0       0
  4035 ;;Total ram usage:        0 bytes
  4036 ;; Hardware stack levels used:    1
  4037 ;; Hardware stack levels required when called:    2
  4038 ;; This function calls:
  4039 ;;		Nothing
  4040 ;; This function is called by:
  4041 ;;		_InitDevices
  4042 ;; This function uses a non-reentrant model
  4043 ;;
  4044                           psect	text836
  4045                           	file	"InitDevices.c"
  4046                           	line	87
  4047                           	global	__size_of_InitTimer1
  4048  0012                     	__size_of_InitTimer1	equ	__end_of_InitTimer1-_InitTimer1
  4049                           	
  4050  073F                     _InitTimer1:	
  4051                           	opt	stack 4
  4052                           ; Regs used in _InitTimer1: [wreg+status,2]
  4053                           	line	88
  4054                           	
  4055  073F                     l9597:	
  4056                           ;InitDevices.c: 88: T1CON=0x00;
  4057  073F  1283               	bcf	status, 5	;RP0=0, select bank0
  4058  0740  1303               	bcf	status, 6	;RP1=0, select bank0
  4059  0741  0190               	clrf	(16)	;volatile
  4060                           	line	89
  4061                           	
  4062  0742                     l9599:	
  4063                           ;InitDevices.c: 89: TMR1CS = 0;
  4064  0742  1090               	bcf	(129/8),(129)&7
  4065                           	line	90
  4066                           	
  4067  0743                     l9601:	
  4068                           ;InitDevices.c: 90: T1CONbits.T1CKPS0=1;
  4069  0743  1610               	bsf	(16),4	;volatile
  4070                           	line	91
  4071                           	
  4072  0744                     l9603:	
  4073                           ;InitDevices.c: 91: T1CONbits.T1CKPS1=0;
  4074  0744  1290               	bcf	(16),5	;volatile
  4075                           	line	93
  4076                           	
  4077  0745                     l9605:	
  4078                           ;InitDevices.c: 93: TMR1=15536;
  4079  0745  30B0               	movlw	low(03CB0h)
  4080  0746  008E               	movwf	(14)	;volatile
  4081  0747  303C               	movlw	high(03CB0h)
  4082  0748  008F               	movwf	((14))+1	;volatile
  4083                           	line	94
  4084                           	
  4085  0749                     l9607:	
  4086                           ;InitDevices.c: 94: TMR1IE=1;
  4087  0749  1683               	bsf	status, 5	;RP0=1, select bank1
  4088  074A  1303               	bcf	status, 6	;RP1=0, select bank1
  4089  074B  140C               	bsf	(1120/8)^080h,(1120)&7
  4090                           	line	95
  4091                           	
  4092  074C                     l9609:	
  4093                           ;InitDevices.c: 95: TMR1IF = 0;
  4094  074C  1283               	bcf	status, 5	;RP0=0, select bank0
  4095  074D  1303               	bcf	status, 6	;RP1=0, select bank0
  4096  074E  100C               	bcf	(96/8),(96)&7
  4097                           	line	96
  4098                           	
  4099  074F                     l9611:	
  4100                           ;InitDevices.c: 96: TMR1ON=0;
  4101  074F  1010               	bcf	(128/8),(128)&7
  4102                           	line	97
  4103                           	
  4104  0750                     l982:	
  4105  0750  0008               	return
  4106                           	opt stack 0
  4107                           GLOBAL	__end_of_InitTimer1
  4108  0751                     	__end_of_InitTimer1:
  4109 ;; =============== function _InitTimer1 ends ============
  4110                           
  4111                           	signat	_InitTimer1,88
  4112                           	global	_InitTimer0
  4113                           psect	text837,local,class=CODE,delta=2
  4114                           global __ptext837
  4115  076F                     __ptext837:
  4116                           
  4117 ;; *************** function _InitTimer0 *****************
  4118 ;; Defined at:
  4119 ;;		line 81 in file "InitDevices.c"
  4120 ;; Parameters:    Size  Location     Type
  4121 ;;		None
  4122 ;; Auto vars:     Size  Location     Type
  4123 ;;		None
  4124 ;; Return value:  Size  Location     Type
  4125 ;;		None               void
  4126 ;; Registers used:
  4127 ;;		wreg
  4128 ;; Tracked objects:
  4129 ;;		On entry : 0/0
  4130 ;;		On exit  : 0/0
  4131 ;;		Unchanged: 0/0
  4132 ;; Data sizes:     COMMON   BANK0   BANK1   BANK3   BANK2
  4133 ;;      Params:         0       0       0       0       0
  4134 ;;      Locals:         0       0       0       0       0
  4135 ;;      Temps:          0       0       0       0       0
  4136 ;;      Totals:         0       0       0       0       0
  4137 ;;Total ram usage:        0 bytes
  4138 ;; Hardware stack levels used:    1
  4139 ;; Hardware stack levels required when called:    2
  4140 ;; This function calls:
  4141 ;;		Nothing
  4142 ;; This function is called by:
  4143 ;;		_InitDevices
  4144 ;; This function uses a non-reentrant model
  4145 ;;
  4146                           psect	text837
  4147                           	file	"InitDevices.c"
  4148                           	line	81
  4149                           	global	__size_of_InitTimer0
  4150  000A                     	__size_of_InitTimer0	equ	__end_of_InitTimer0-_InitTimer0
  4151                           	
  4152  076F                     _InitTimer0:	
  4153                           	opt	stack 4
  4154                           ; Regs used in _InitTimer0: [wreg]
  4155                           	line	82
  4156                           	
  4157  076F                     l9593:	
  4158                           ;InitDevices.c: 82: OPTION_REG = 0X86;
  4159  076F  3086               	movlw	(086h)
  4160  0770  1683               	bsf	status, 5	;RP0=1, select bank1
  4161  0771  1303               	bcf	status, 6	;RP1=0, select bank1
  4162  0772  0081               	movwf	(129)^080h	;volatile
  4163                           	line	83
  4164                           ;InitDevices.c: 83: TMR0 = 0XFF;
  4165  0773  30FF               	movlw	(0FFh)
  4166  0774  1283               	bcf	status, 5	;RP0=0, select bank0
  4167  0775  1303               	bcf	status, 6	;RP1=0, select bank0
  4168  0776  0081               	movwf	(1)	;volatile
  4169                           	line	84
  4170                           	
  4171  0777                     l9595:	
  4172                           ;InitDevices.c: 84: T0IE=0;
  4173  0777  128B               	bcf	(93/8),(93)&7
  4174                           	line	85
  4175                           	
  4176  0778                     l979:	
  4177  0778  0008               	return
  4178                           	opt stack 0
  4179                           GLOBAL	__end_of_InitTimer0
  4180  0779                     	__end_of_InitTimer0:
  4181 ;; =============== function _InitTimer0 ends ============
  4182                           
  4183                           	signat	_InitTimer0,88
  4184                           	global	_IIC_init
  4185                           psect	text838,local,class=CODE,delta=2
  4186                           global __ptext838
  4187  0751                     __ptext838:
  4188                           
  4189 ;; *************** function _IIC_init *****************
  4190 ;; Defined at:
  4191 ;;		line 67 in file "InitDevices.c"
  4192 ;; Parameters:    Size  Location     Type
  4193 ;;		None
  4194 ;; Auto vars:     Size  Location     Type
  4195 ;;		None
  4196 ;; Return value:  Size  Location     Type
  4197 ;;		None               void
  4198 ;; Registers used:
  4199 ;;		wreg, status,2
  4200 ;; Tracked objects:
  4201 ;;		On entry : 0/0
  4202 ;;		On exit  : 0/0
  4203 ;;		Unchanged: 0/0
  4204 ;; Data sizes:     COMMON   BANK0   BANK1   BANK3   BANK2
  4205 ;;      Params:         0       0       0       0       0
  4206 ;;      Locals:         0       0       0       0       0
  4207 ;;      Temps:          0       0       0       0       0
  4208 ;;      Totals:         0       0       0       0       0
  4209 ;;Total ram usage:        0 bytes
  4210 ;; Hardware stack levels used:    1
  4211 ;; Hardware stack levels required when called:    2
  4212 ;; This function calls:
  4213 ;;		Nothing
  4214 ;; This function is called by:
  4215 ;;		_InitDevices
  4216 ;; This function uses a non-reentrant model
  4217 ;;
  4218                           psect	text838
  4219                           	file	"InitDevices.c"
  4220                           	line	67
  4221                           	global	__size_of_IIC_init
  4222  0010                     	__size_of_IIC_init	equ	__end_of_IIC_init-_IIC_init
  4223                           	
  4224  0751                     _IIC_init:	
  4225                           	opt	stack 4
  4226                           ; Regs used in _IIC_init: [wreg+status,2]
  4227                           	line	68
  4228                           	
  4229  0751                     l9585:	
  4230                           ;InitDevices.c: 68: TRISC3=1;
  4231  0751  1683               	bsf	status, 5	;RP0=1, select bank1
  4232  0752  1303               	bcf	status, 6	;RP1=0, select bank1
  4233  0753  1587               	bsf	(1083/8)^080h,(1083)&7
  4234                           	line	69
  4235                           ;InitDevices.c: 69: TRISC4=1;
  4236  0754  1607               	bsf	(1084/8)^080h,(1084)&7
  4237                           	line	70
  4238                           	
  4239  0755                     l9587:	
  4240                           ;InitDevices.c: 70: SSPSTAT=0x80;
  4241  0755  3080               	movlw	(080h)
  4242  0756  0094               	movwf	(148)^080h	;volatile
  4243                           	line	71
  4244                           ;InitDevices.c: 71: SSPCON=0x28;
  4245  0757  3028               	movlw	(028h)
  4246  0758  1283               	bcf	status, 5	;RP0=0, select bank0
  4247  0759  1303               	bcf	status, 6	;RP1=0, select bank0
  4248  075A  0094               	movwf	(20)	;volatile
  4249                           	line	72
  4250                           	
  4251  075B                     l9589:	
  4252                           ;InitDevices.c: 72: SSPCON2=0;
  4253  075B  1683               	bsf	status, 5	;RP0=1, select bank1
  4254  075C  1303               	bcf	status, 6	;RP1=0, select bank1
  4255  075D  0191               	clrf	(145)^080h	;volatile
  4256                           	line	76
  4257                           	
  4258  075E                     l9591:	
  4259                           ;InitDevices.c: 76: SSPADD=0x13;
  4260  075E  3013               	movlw	(013h)
  4261  075F  0093               	movwf	(147)^080h	;volatile
  4262                           	line	77
  4263                           	
  4264  0760                     l976:	
  4265  0760  0008               	return
  4266                           	opt stack 0
  4267                           GLOBAL	__end_of_IIC_init
  4268  0761                     	__end_of_IIC_init:
  4269 ;; =============== function _IIC_init ends ============
  4270                           
  4271                           	signat	_IIC_init,88
  4272                           	global	_InitialiseADC
  4273                           psect	text839,local,class=CODE,delta=2
  4274                           global __ptext839
  4275  0700                     __ptext839:
  4276                           
  4277 ;; *************** function _InitialiseADC *****************
  4278 ;; Defined at:
  4279 ;;		line 43 in file "InitDevices.c"
  4280 ;; Parameters:    Size  Location     Type
  4281 ;;		None
  4282 ;; Auto vars:     Size  Location     Type
  4283 ;;		None
  4284 ;; Return value:  Size  Location     Type
  4285 ;;		None               void
  4286 ;; Registers used:
  4287 ;;		wreg, status,2
  4288 ;; Tracked objects:
  4289 ;;		On entry : 0/0
  4290 ;;		On exit  : 0/0
  4291 ;;		Unchanged: 0/0
  4292 ;; Data sizes:     COMMON   BANK0   BANK1   BANK3   BANK2
  4293 ;;      Params:         0       0       0       0       0
  4294 ;;      Locals:         0       0       0       0       0
  4295 ;;      Temps:          0       0       0       0       0
  4296 ;;      Totals:         0       0       0       0       0
  4297 ;;Total ram usage:        0 bytes
  4298 ;; Hardware stack levels used:    1
  4299 ;; Hardware stack levels required when called:    2
  4300 ;; This function calls:
  4301 ;;		Nothing
  4302 ;; This function is called by:
  4303 ;;		_InitDevices
  4304 ;; This function uses a non-reentrant model
  4305 ;;
  4306                           psect	text839
  4307                           	file	"InitDevices.c"
  4308                           	line	43
  4309                           	global	__size_of_InitialiseADC
  4310  0016                     	__size_of_InitialiseADC	equ	__end_of_InitialiseADC-_InitialiseADC
  4311                           	
  4312  0700                     _InitialiseADC:	
  4313                           	opt	stack 4
  4314                           ; Regs used in _InitialiseADC: [wreg+status,2]
  4315                           	line	47
  4316                           	
  4317  0700                     l9569:	
  4318                           ;InitDevices.c: 47: ANSEL = 0x08;
  4319  0700  3008               	movlw	(08h)
  4320  0701  1683               	bsf	status, 5	;RP0=1, select bank3
  4321  0702  1703               	bsf	status, 6	;RP1=1, select bank3
  4322  0703  0088               	movwf	(392)^0180h	;volatile
  4323                           	line	49
  4324                           ;InitDevices.c: 49: ADCON1 = 0x80;
  4325  0704  3080               	movlw	(080h)
  4326  0705  1683               	bsf	status, 5	;RP0=1, select bank1
  4327  0706  1303               	bcf	status, 6	;RP1=0, select bank1
  4328  0707  009F               	movwf	(159)^080h	;volatile
  4329                           	line	50
  4330                           	
  4331  0708                     l9571:	
  4332                           ;InitDevices.c: 50: ADRESL = 0;
  4333  0708  019E               	clrf	(158)^080h	;volatile
  4334                           	line	51
  4335                           	
  4336  0709                     l9573:	
  4337                           ;InitDevices.c: 51: ADRESH = 0;
  4338  0709  1283               	bcf	status, 5	;RP0=0, select bank0
  4339  070A  1303               	bcf	status, 6	;RP1=0, select bank0
  4340  070B  019E               	clrf	(30)	;volatile
  4341                           	line	52
  4342                           	
  4343  070C                     l9575:	
  4344                           ;InitDevices.c: 52: ADIE = 0;
  4345  070C  1683               	bsf	status, 5	;RP0=1, select bank1
  4346  070D  1303               	bcf	status, 6	;RP1=0, select bank1
  4347  070E  130C               	bcf	(1126/8)^080h,(1126)&7
  4348                           	line	53
  4349                           	
  4350  070F                     l9577:	
  4351                           ;InitDevices.c: 53: PEIE = 1;
  4352  070F  170B               	bsf	(94/8),(94)&7
  4353                           	line	54
  4354                           	
  4355  0710                     l9579:	
  4356                           ;InitDevices.c: 54: ADIF = 0;
  4357  0710  1283               	bcf	status, 5	;RP0=0, select bank0
  4358  0711  1303               	bcf	status, 6	;RP1=0, select bank0
  4359  0712  130C               	bcf	(102/8),(102)&7
  4360                           	line	55
  4361                           	
  4362  0713                     l9581:	
  4363                           ;InitDevices.c: 55: GO_DONE = 1;
  4364  0713  149F               	bsf	(249/8),(249)&7
  4365                           	line	56
  4366                           	
  4367  0714                     l9583:	
  4368                           ;InitDevices.c: 56: ADON = 1;
  4369  0714  141F               	bsf	(248/8),(248)&7
  4370                           	line	57
  4371                           	
  4372  0715                     l973:	
  4373  0715  0008               	return
  4374                           	opt stack 0
  4375                           GLOBAL	__end_of_InitialiseADC
  4376  0716                     	__end_of_InitialiseADC:
  4377 ;; =============== function _InitialiseADC ends ============
  4378                           
  4379                           	signat	_InitialiseADC,88
  4380                           	global	_PortInit
  4381                           psect	text840,local,class=CODE,delta=2
  4382                           global __ptext840
  4383  0716                     __ptext840:
  4384                           
  4385 ;; *************** function _PortInit *****************
  4386 ;; Defined at:
  4387 ;;		line 30 in file "InitDevices.c"
  4388 ;; Parameters:    Size  Location     Type
  4389 ;;		None
  4390 ;; Auto vars:     Size  Location     Type
  4391 ;;		None
  4392 ;; Return value:  Size  Location     Type
  4393 ;;		None               void
  4394 ;; Registers used:
  4395 ;;		wreg, status,2
  4396 ;; Tracked objects:
  4397 ;;		On entry : 0/0
  4398 ;;		On exit  : 0/0
  4399 ;;		Unchanged: 0/0
  4400 ;; Data sizes:     COMMON   BANK0   BANK1   BANK3   BANK2
  4401 ;;      Params:         0       0       0       0       0
  4402 ;;      Locals:         0       0       0       0       0
  4403 ;;      Temps:          0       0       0       0       0
  4404 ;;      Totals:         0       0       0       0       0
  4405 ;;Total ram usage:        0 bytes
  4406 ;; Hardware stack levels used:    1
  4407 ;; Hardware stack levels required when called:    2
  4408 ;; This function calls:
  4409 ;;		Nothing
  4410 ;; This function is called by:
  4411 ;;		_InitDevices
  4412 ;; This function uses a non-reentrant model
  4413 ;;
  4414                           psect	text840
  4415                           	file	"InitDevices.c"
  4416                           	line	30
  4417                           	global	__size_of_PortInit
  4418  0015                     	__size_of_PortInit	equ	__end_of_PortInit-_PortInit
  4419                           	
  4420  0716                     _PortInit:	
  4421                           	opt	stack 4
  4422                           ; Regs used in _PortInit: [wreg+status,2]
  4423                           	line	31
  4424                           	
  4425  0716                     l9559:	
  4426                           ;InitDevices.c: 31: PORTA = 0x00;
  4427  0716  1283               	bcf	status, 5	;RP0=0, select bank0
  4428  0717  1303               	bcf	status, 6	;RP1=0, select bank0
  4429  0718  0185               	clrf	(5)	;volatile
  4430                           	line	32
  4431                           ;InitDevices.c: 32: PORTB = 0x00;
  4432  0719  0186               	clrf	(6)	;volatile
  4433                           	line	33
  4434                           	
  4435  071A                     l9561:	
  4436                           ;InitDevices.c: 33: TRISA = 0xEB;
  4437  071A  30EB               	movlw	(0EBh)
  4438  071B  1683               	bsf	status, 5	;RP0=1, select bank1
  4439  071C  1303               	bcf	status, 6	;RP1=0, select bank1
  4440  071D  0085               	movwf	(133)^080h	;volatile
  4441                           	line	34
  4442                           	
  4443  071E                     l9563:	
  4444                           ;InitDevices.c: 34: TRISB = 0X12;
  4445  071E  3012               	movlw	(012h)
  4446  071F  0086               	movwf	(134)^080h	;volatile
  4447                           	line	35
  4448                           ;InitDevices.c: 35: PORTC = 0X00;
  4449  0720  1283               	bcf	status, 5	;RP0=0, select bank0
  4450  0721  1303               	bcf	status, 6	;RP1=0, select bank0
  4451  0722  0187               	clrf	(7)	;volatile
  4452                           	line	36
  4453                           	
  4454  0723                     l9565:	
  4455                           ;InitDevices.c: 36: TRISC = 0XE2;
  4456  0723  30E2               	movlw	(0E2h)
  4457  0724  1683               	bsf	status, 5	;RP0=1, select bank1
  4458  0725  1303               	bcf	status, 6	;RP1=0, select bank1
  4459  0726  0087               	movwf	(135)^080h	;volatile
  4460                           	line	37
  4461                           	
  4462  0727                     l9567:	
  4463                           ;InitDevices.c: 37: ANSELH = 0x00;
  4464  0727  1683               	bsf	status, 5	;RP0=1, select bank3
  4465  0728  1703               	bsf	status, 6	;RP1=1, select bank3
  4466  0729  0189               	clrf	(393)^0180h	;volatile
  4467                           	line	40
  4468                           	
  4469  072A                     l970:	
  4470  072A  0008               	return
  4471                           	opt stack 0
  4472                           GLOBAL	__end_of_PortInit
  4473  072B                     	__end_of_PortInit:
  4474 ;; =============== function _PortInit ends ============
  4475                           
  4476                           	signat	_PortInit,88
  4477                           	global	_systemOSC
  4478                           psect	text841,local,class=CODE,delta=2
  4479                           global __ptext841
  4480  0788                     __ptext841:
  4481                           
  4482 ;; *************** function _systemOSC *****************
  4483 ;; Defined at:
  4484 ;;		line 25 in file "InitDevices.c"
  4485 ;; Parameters:    Size  Location     Type
  4486 ;;		None
  4487 ;; Auto vars:     Size  Location     Type
  4488 ;;		None
  4489 ;; Return value:  Size  Location     Type
  4490 ;;		None               void
  4491 ;; Registers used:
  4492 ;;		wreg
  4493 ;; Tracked objects:
  4494 ;;		On entry : 0/0
  4495 ;;		On exit  : 0/0
  4496 ;;		Unchanged: 0/0
  4497 ;; Data sizes:     COMMON   BANK0   BANK1   BANK3   BANK2
  4498 ;;      Params:         0       0       0       0       0
  4499 ;;      Locals:         0       0       0       0       0
  4500 ;;      Temps:          0       0       0       0       0
  4501 ;;      Totals:         0       0       0       0       0
  4502 ;;Total ram usage:        0 bytes
  4503 ;; Hardware stack levels used:    1
  4504 ;; Hardware stack levels required when called:    2
  4505 ;; This function calls:
  4506 ;;		Nothing
  4507 ;; This function is called by:
  4508 ;;		_InitDevices
  4509 ;; This function uses a non-reentrant model
  4510 ;;
  4511                           psect	text841
  4512                           	file	"InitDevices.c"
  4513                           	line	25
  4514                           	global	__size_of_systemOSC
  4515  0005                     	__size_of_systemOSC	equ	__end_of_systemOSC-_systemOSC
  4516                           	
  4517  0788                     _systemOSC:	
  4518                           	opt	stack 4
  4519                           ; Regs used in _systemOSC: [wreg]
  4520                           	line	26
  4521                           	
  4522  0788                     l9557:	
  4523                           ;InitDevices.c: 26: OSCCON = 0X71;
  4524  0788  3071               	movlw	(071h)
  4525  0789  1683               	bsf	status, 5	;RP0=1, select bank1
  4526  078A  1303               	bcf	status, 6	;RP1=0, select bank1
  4527  078B  008F               	movwf	(143)^080h	;volatile
  4528                           	line	27
  4529                           	
  4530  078C                     l967:	
  4531  078C  0008               	return
  4532                           	opt stack 0
  4533                           GLOBAL	__end_of_systemOSC
  4534  078D                     	__end_of_systemOSC:
  4535 ;; =============== function _systemOSC ends ============
  4536                           
  4537                           	signat	_systemOSC,88
  4538                           	global	_com
  4539                           psect	text842,local,class=CODE,delta=2
  4540                           global __ptext842
  4541  0649                     __ptext842:
  4542                           
  4543 ;; *************** function _com *****************
  4544 ;; Defined at:
  4545 ;;		line 5 in file "Interrupt.c"
  4546 ;; Parameters:    Size  Location     Type
  4547 ;;		None
  4548 ;; Auto vars:     Size  Location     Type
  4549 ;;		None
  4550 ;; Return value:  Size  Location     Type
  4551 ;;		None               void
  4552 ;; Registers used:
  4553 ;;		wreg, status,2, status,0, pclath, cstack
  4554 ;; Tracked objects:
  4555 ;;		On entry : 0/0
  4556 ;;		On exit  : 0/0
  4557 ;;		Unchanged: 0/0
  4558 ;; Data sizes:     COMMON   BANK0   BANK1   BANK3   BANK2
  4559 ;;      Params:         0       0       0       0       0
  4560 ;;      Locals:         0       0       0       0       0
  4561 ;;      Temps:          4       0       0       0       0
  4562 ;;      Totals:         4       0       0       0       0
  4563 ;;Total ram usage:        4 bytes
  4564 ;; Hardware stack levels used:    1
  4565 ;; Hardware stack levels required when called:    1
  4566 ;; This function calls:
  4567 ;;		_RBCN_int
  4568 ;;		_TMR2_int
  4569 ;;		_TMR1_int
  4570 ;; This function is called by:
  4571 ;;		Interrupt level 1
  4572 ;; This function uses a non-reentrant model
  4573 ;;
  4574                           psect	text842
  4575                           	file	"Interrupt.c"
  4576                           	line	5
  4577                           	global	__size_of_com
  4578  002F                     	__size_of_com	equ	__end_of_com-_com
  4579                           	
  4580  0649                     _com:	
  4581                           	opt	stack 3
  4582                           ; Regs used in _com: [wreg+status,2+status,0+pclath+cstack]
  4583                           psect	intentry,class=CODE,delta=2
  4584                           global __pintentry
  4585  0004                     __pintentry:
  4586                           global interrupt_function
  4587  0004                     interrupt_function:
  4588                           	global saved_w
  4589  007E                     	saved_w	set	btemp+0
  4590  0004  00FE               	movwf	saved_w
  4591  0005  0E03               	swapf	status,w
  4592  0006  00F2               	movwf	(??_com+0)
  4593  0007  0804               	movf	fsr0,w
  4594  0008  00F3               	movwf	(??_com+1)
  4595  0009  080A               	movf	pclath,w
  4596  000A  00F4               	movwf	(??_com+2)
  4597  000B  1283               	bcf	status, 5	;RP0=0, select bank0
  4598  000C  1303               	bcf	status, 6	;RP1=0, select bank0
  4599  000D  087F               	movf	btemp+1,w
  4600  000E  00F5               	movwf	(??_com+3)
  4601  000F  120A  118A  2E49   	ljmp	_com
  4602                           psect	text842
  4603                           	line	6
  4604                           	
  4605  0649                     i1l8997:	
  4606                           ;Interrupt.c: 6: if(RBIF)
  4607  0649  1C0B               	btfss	(88/8),(88)&7
  4608  064A  2E4C               	goto	u299_21
  4609  064B  2E4D               	goto	u299_20
  4610  064C                     u299_21:
  4611  064C  2E53               	goto	i1l9001
  4612  064D                     u299_20:
  4613                           	line	8
  4614                           	
  4615  064D                     i1l8999:	
  4616                           ;Interrupt.c: 7: {
  4617                           ;Interrupt.c: 8: RBCN_int();
  4618  064D  120A  118A  26C5   	fcall	_RBCN_int
              120A  118A         
  4619  0652  2E53               	goto	i1l9001
  4620                           	line	9
  4621                           	
  4622  0653                     i1l2018:	
  4623                           	line	10
  4624                           	
  4625  0653                     i1l9001:	
  4626                           ;Interrupt.c: 9: }
  4627                           ;Interrupt.c: 10: if(TMR2IF)
  4628  0653  1283               	bcf	status, 5	;RP0=0, select bank0
  4629  0654  1303               	bcf	status, 6	;RP1=0, select bank0
  4630  0655  1C8C               	btfss	(97/8),(97)&7
  4631  0656  2E58               	goto	u300_21
  4632  0657  2E59               	goto	u300_20
  4633  0658                     u300_21:
  4634  0658  2E5F               	goto	i1l9005
  4635  0659                     u300_20:
  4636                           	line	12
  4637                           	
  4638  0659                     i1l9003:	
  4639                           ;Interrupt.c: 11: {
  4640                           ;Interrupt.c: 12: TMR2_int();
  4641  0659  120A  118A  26E7   	fcall	_TMR2_int
              120A  118A         
  4642  065E  2E5F               	goto	i1l9005
  4643                           	line	13
  4644                           	
  4645  065F                     i1l2019:	
  4646                           	line	14
  4647                           	
  4648  065F                     i1l9005:	
  4649                           ;Interrupt.c: 13: }
  4650                           ;Interrupt.c: 14: if(TMR1IF)
  4651  065F  1283               	bcf	status, 5	;RP0=0, select bank0
  4652  0660  1303               	bcf	status, 6	;RP1=0, select bank0
  4653  0661  1C0C               	btfss	(96/8),(96)&7
  4654  0662  2E64               	goto	u301_21
  4655  0663  2E65               	goto	u301_20
  4656  0664                     u301_21:
  4657  0664  2E6B               	goto	i1l2021
  4658  0665                     u301_20:
  4659                           	line	16
  4660                           	
  4661  0665                     i1l9007:	
  4662                           ;Interrupt.c: 15: {
  4663                           ;Interrupt.c: 16: TMR1_int();
  4664  0665  120A  118A  2423   	fcall	_TMR1_int
              120A  118A         
  4665  066A  2E6B               	goto	i1l2021
  4666                           	line	17
  4667                           	
  4668  066B                     i1l2020:	
  4669                           	line	23
  4670                           	
  4671  066B                     i1l2021:	
  4672  066B  0875               	movf	(??_com+3),w
  4673  066C  1283               	bcf	status, 5	;RP0=0, select bank0
  4674  066D  1303               	bcf	status, 6	;RP1=0, select bank0
  4675  066E  00FF               	movwf	btemp+1
  4676  066F  0874               	movf	(??_com+2),w
  4677  0670  008A               	movwf	pclath
  4678  0671  0873               	movf	(??_com+1),w
  4679  0672  0084               	movwf	fsr0
  4680  0673  0E72               	swapf	(??_com+0)^0FFFFFF80h,w
  4681  0674  0083               	movwf	status
  4682  0675  0EFE               	swapf	saved_w,f
  4683  0676  0E7E               	swapf	saved_w,w
  4684  0677  0009               	retfie
  4685                           	opt stack 0
  4686                           GLOBAL	__end_of_com
  4687  0678                     	__end_of_com:
  4688 ;; =============== function _com ends ============
  4689                           
  4690                           	signat	_com,88
  4691                           	global	_TMR1_int
  4692                           psect	text843,local,class=CODE,delta=2
  4693                           global __ptext843
  4694  0423                     __ptext843:
  4695                           
  4696 ;; *************** function _TMR1_int *****************
  4697 ;; Defined at:
  4698 ;;		line 50 in file "Interrupt.c"
  4699 ;; Parameters:    Size  Location     Type
  4700 ;;		None
  4701 ;; Auto vars:     Size  Location     Type
  4702 ;;  t               1    1[COMMON] unsigned char 
  4703 ;;  i               1    0        unsigned char 
  4704 ;; Return value:  Size  Location     Type
  4705 ;;		None               void
  4706 ;; Registers used:
  4707 ;;		wreg, status,2, status,0
  4708 ;; Tracked objects:
  4709 ;;		On entry : 0/0
  4710 ;;		On exit  : 0/0
  4711 ;;		Unchanged: 0/0
  4712 ;; Data sizes:     COMMON   BANK0   BANK1   BANK3   BANK2
  4713 ;;      Params:         0       0       0       0       0
  4714 ;;      Locals:         1       0       0       0       0
  4715 ;;      Temps:          1       0       0       0       0
  4716 ;;      Totals:         2       0       0       0       0
  4717 ;;Total ram usage:        2 bytes
  4718 ;; Hardware stack levels used:    1
  4719 ;; This function calls:
  4720 ;;		Nothing
  4721 ;; This function is called by:
  4722 ;;		_com
  4723 ;; This function uses a non-reentrant model
  4724 ;;
  4725                           psect	text843
  4726                           	file	"Interrupt.c"
  4727                           	line	50
  4728                           	global	__size_of_TMR1_int
  4729  00CF                     	__size_of_TMR1_int	equ	__end_of_TMR1_int-_TMR1_int
  4730                           	
  4731  0423                     _TMR1_int:	
  4732                           	opt	stack 3
  4733                           ; Regs used in _TMR1_int: [wreg+status,2+status,0]
  4734                           	line	52
  4735                           	
  4736  0423                     i1l9035:	
  4737                           ;Interrupt.c: 51: unsigned char t,i;
  4738                           ;Interrupt.c: 52: t = TMR1IF;
  4739  0423  3000               	movlw	0
  4740  0424  1283               	bcf	status, 5	;RP0=0, select bank0
  4741  0425  1303               	bcf	status, 6	;RP1=0, select bank0
  4742  0426  180C               	btfsc	(96/8),(96)&7
  4743  0427  3001               	movlw	1
  4744  0428  00F0               	movwf	(??_TMR1_int+0)+0
  4745  0429  0870               	movf	(??_TMR1_int+0)+0,w
  4746  042A  00F1               	movwf	(TMR1_int@t)
  4747                           	line	53
  4748                           	
  4749  042B                     i1l9037:	
  4750                           ;Interrupt.c: 53: TMR1IF =0;
  4751  042B  100C               	bcf	(96/8),(96)&7
  4752                           	line	54
  4753                           ;Interrupt.c: 54: TMR1=15536;
  4754  042C  30B0               	movlw	low(03CB0h)
  4755  042D  008E               	movwf	(14)	;volatile
  4756  042E  303C               	movlw	high(03CB0h)
  4757  042F  008F               	movwf	((14))+1	;volatile
  4758                           	line	80
  4759                           	
  4760  0430                     i1l9039:	
  4761                           ;Interrupt.c: 80: if((PORTAbits.RA1 == 0) && (Not_two == 1) && (Forbid_input == 0))
  4762  0430  1885               	btfsc	(5),1	;volatile
  4763  0431  2C33               	goto	u304_21
  4764  0432  2C34               	goto	u304_20
  4765  0433                     u304_21:
  4766  0433  2C67               	goto	i1l9063
  4767  0434                     u304_20:
  4768                           	
  4769  0434                     i1l9041:	
  4770  0434  0879               	movf	(_Not_two),w
  4771  0435  3A01               	xorlw	01h
  4772  0436  1D03               	skipz
  4773  0437  2C39               	goto	u305_21
  4774  0438  2C3A               	goto	u305_20
  4775  0439                     u305_21:
  4776  0439  2C67               	goto	i1l9063
  4777  043A                     u305_20:
  4778                           	
  4779  043A                     i1l9043:	
  4780  043A  08B5               	movf	(_Forbid_input),f
  4781  043B  1D03               	skipz
  4782  043C  2C3E               	goto	u306_21
  4783  043D  2C3F               	goto	u306_20
  4784  043E                     u306_21:
  4785  043E  2C67               	goto	i1l9063
  4786  043F                     u306_20:
  4787                           	line	82
  4788                           	
  4789  043F                     i1l9045:	
  4790                           ;Interrupt.c: 81: {
  4791                           ;Interrupt.c: 82: if(PORTBbits.RB1 == 1) Key_Up = 0;
  4792  043F  1C86               	btfss	(6),1	;volatile
  4793  0440  2C42               	goto	u307_21
  4794  0441  2C43               	goto	u307_20
  4795  0442                     u307_21:
  4796  0442  2C44               	goto	i1l2025
  4797  0443                     u307_20:
  4798                           	
  4799  0443                     i1l9047:	
  4800  0443  01B8               	clrf	(_Key_Up)
  4801                           	
  4802  0444                     i1l2025:	
  4803                           	line	83
  4804                           ;Interrupt.c: 83: if((PORTBbits.RB1 == 0) && (Key_Up == 0))
  4805  0444  1886               	btfsc	(6),1	;volatile
  4806  0445  2C47               	goto	u308_21
  4807  0446  2C48               	goto	u308_20
  4808  0447                     u308_21:
  4809  0447  2C64               	goto	i1l2026
  4810  0448                     u308_20:
  4811                           	
  4812  0448                     i1l9049:	
  4813  0448  08B8               	movf	(_Key_Up),f
  4814  0449  1D03               	skipz
  4815  044A  2C4C               	goto	u309_21
  4816  044B  2C4D               	goto	u309_20
  4817  044C                     u309_21:
  4818  044C  2C64               	goto	i1l2026
  4819  044D                     u309_20:
  4820                           	line	85
  4821                           	
  4822  044D                     i1l9051:	
  4823                           ;Interrupt.c: 84: {
  4824                           ;Interrupt.c: 85: Key_Run_times++;
  4825  044D  3001               	movlw	(01h)
  4826  044E  00F0               	movwf	(??_TMR1_int+0)+0
  4827  044F  0870               	movf	(??_TMR1_int+0)+0,w
  4828  0450  07F8               	addwf	(_Key_Run_times),f
  4829                           	line	86
  4830                           	
  4831  0451                     i1l9053:	
  4832                           # 86 "Interrupt.c"
  4833  0451  0064               clrwdt ;#
  4834                           psect	text843
  4835                           	line	87
  4836                           	
  4837  0452                     i1l9055:	
  4838                           ;Interrupt.c: 87: if(Key_Run_times == 40)
  4839  0452  0878               	movf	(_Key_Run_times),w
  4840  0453  3A28               	xorlw	028h
  4841  0454  1D03               	skipz
  4842  0455  2C57               	goto	u310_21
  4843  0456  2C58               	goto	u310_20
  4844  0457                     u310_21:
  4845  0457  2C67               	goto	i1l9063
  4846  0458                     u310_20:
  4847                           	line	89
  4848                           	
  4849  0458                     i1l9057:	
  4850                           ;Interrupt.c: 88: {
  4851                           ;Interrupt.c: 89: Key_Run++;
  4852  0458  3001               	movlw	(01h)
  4853  0459  00F0               	movwf	(??_TMR1_int+0)+0
  4854  045A  0870               	movf	(??_TMR1_int+0)+0,w
  4855  045B  1283               	bcf	status, 5	;RP0=0, select bank0
  4856  045C  1303               	bcf	status, 6	;RP1=0, select bank0
  4857  045D  07B7               	addwf	(_Key_Run),f
  4858                           	line	90
  4859                           	
  4860  045E                     i1l9059:	
  4861                           ;Interrupt.c: 90: Key_Run_times = 0;
  4862  045E  01F8               	clrf	(_Key_Run_times)
  4863                           	line	91
  4864                           	
  4865  045F                     i1l9061:	
  4866                           ;Interrupt.c: 91: Key_Up = 1;
  4867  045F  01B8               	clrf	(_Key_Up)
  4868  0460  1403               	bsf	status,0
  4869  0461  0DB8               	rlf	(_Key_Up),f
  4870  0462  2C67               	goto	i1l9063
  4871                           	line	92
  4872                           	
  4873  0463                     i1l2027:	
  4874                           	line	93
  4875                           ;Interrupt.c: 92: }
  4876                           ;Interrupt.c: 93: } else Key_Run_times = 0;
  4877  0463  2C67               	goto	i1l9063
  4878                           	
  4879  0464                     i1l2026:	
  4880  0464  01F8               	clrf	(_Key_Run_times)
  4881  0465  2C67               	goto	i1l9063
  4882                           	
  4883  0466                     i1l2028:	
  4884  0466  2C67               	goto	i1l9063
  4885                           	line	94
  4886                           	
  4887  0467                     i1l2024:	
  4888                           	line	96
  4889                           	
  4890  0467                     i1l9063:	
  4891                           ;Interrupt.c: 94: }
  4892                           ;Interrupt.c: 96: if(Work_Flag == 0)
  4893  0467  08FA               	movf	(_Work_Flag),f
  4894  0468  1D03               	skipz
  4895  0469  2C6B               	goto	u311_21
  4896  046A  2C6C               	goto	u311_20
  4897  046B                     u311_21:
  4898  046B  2C96               	goto	i1l9083
  4899  046C                     u311_20:
  4900                           	line	98
  4901                           	
  4902  046C                     i1l9065:	
  4903                           ;Interrupt.c: 97: {
  4904                           ;Interrupt.c: 98: if(PORTCbits.RC1 == 1) Onekey_Key_Up = 0;
  4905  046C  1283               	bcf	status, 5	;RP0=0, select bank0
  4906  046D  1303               	bcf	status, 6	;RP1=0, select bank0
  4907  046E  1C87               	btfss	(7),1	;volatile
  4908  046F  2C71               	goto	u312_21
  4909  0470  2C72               	goto	u312_20
  4910  0471                     u312_21:
  4911  0471  2C73               	goto	i1l2030
  4912  0472                     u312_20:
  4913                           	
  4914  0472                     i1l9067:	
  4915  0472  01BB               	clrf	(_Onekey_Key_Up)
  4916                           	
  4917  0473                     i1l2030:	
  4918                           	line	99
  4919                           ;Interrupt.c: 99: if((PORTCbits.RC1 == 0) && (Onekey_Key_Up == 0))
  4920  0473  1887               	btfsc	(7),1	;volatile
  4921  0474  2C76               	goto	u313_21
  4922  0475  2C77               	goto	u313_20
  4923  0476                     u313_21:
  4924  0476  2C93               	goto	i1l2031
  4925  0477                     u313_20:
  4926                           	
  4927  0477                     i1l9069:	
  4928  0477  08BB               	movf	(_Onekey_Key_Up),f
  4929  0478  1D03               	skipz
  4930  0479  2C7B               	goto	u314_21
  4931  047A  2C7C               	goto	u314_20
  4932  047B                     u314_21:
  4933  047B  2C93               	goto	i1l2031
  4934  047C                     u314_20:
  4935                           	line	101
  4936                           	
  4937  047C                     i1l9071:	
  4938                           ;Interrupt.c: 100: {
  4939                           ;Interrupt.c: 101: Onekey_times++;
  4940  047C  3001               	movlw	(01h)
  4941  047D  00F0               	movwf	(??_TMR1_int+0)+0
  4942  047E  0870               	movf	(??_TMR1_int+0)+0,w
  4943  047F  07BC               	addwf	(_Onekey_times),f
  4944                           	line	102
  4945                           	
  4946  0480                     i1l9073:	
  4947                           # 102 "Interrupt.c"
  4948  0480  0064               clrwdt ;#
  4949                           psect	text843
  4950                           	line	103
  4951                           	
  4952  0481                     i1l9075:	
  4953                           ;Interrupt.c: 103: if(Onekey_times == 40)
  4954  0481  1283               	bcf	status, 5	;RP0=0, select bank0
  4955  0482  1303               	bcf	status, 6	;RP1=0, select bank0
  4956  0483  083C               	movf	(_Onekey_times),w
  4957  0484  3A28               	xorlw	028h
  4958  0485  1D03               	skipz
  4959  0486  2C88               	goto	u315_21
  4960  0487  2C89               	goto	u315_20
  4961  0488                     u315_21:
  4962  0488  2C96               	goto	i1l9083
  4963  0489                     u315_20:
  4964                           	line	105
  4965                           	
  4966  0489                     i1l9077:	
  4967                           ;Interrupt.c: 104: {
  4968                           ;Interrupt.c: 105: Onekey_Flag++;
  4969  0489  3001               	movlw	(01h)
  4970  048A  00F0               	movwf	(??_TMR1_int+0)+0
  4971  048B  0870               	movf	(??_TMR1_int+0)+0,w
  4972  048C  07BA               	addwf	(_Onekey_Flag),f
  4973                           	line	106
  4974                           	
  4975  048D                     i1l9079:	
  4976                           ;Interrupt.c: 106: Onekey_times =0;
  4977  048D  01BC               	clrf	(_Onekey_times)
  4978                           	line	107
  4979                           	
  4980  048E                     i1l9081:	
  4981                           ;Interrupt.c: 107: Onekey_Key_Up = 1;
  4982  048E  01BB               	clrf	(_Onekey_Key_Up)
  4983  048F  1403               	bsf	status,0
  4984  0490  0DBB               	rlf	(_Onekey_Key_Up),f
  4985  0491  2C96               	goto	i1l9083
  4986                           	line	108
  4987                           	
  4988  0492                     i1l2032:	
  4989                           	line	109
  4990                           ;Interrupt.c: 108: }
  4991                           ;Interrupt.c: 109: } else Onekey_times = 0;
  4992  0492  2C96               	goto	i1l9083
  4993                           	
  4994  0493                     i1l2031:	
  4995  0493  01BC               	clrf	(_Onekey_times)
  4996  0494  2C96               	goto	i1l9083
  4997                           	
  4998  0495                     i1l2033:	
  4999  0495  2C96               	goto	i1l9083
  5000                           	line	110
  5001                           	
  5002  0496                     i1l2029:	
  5003                           	line	112
  5004                           	
  5005  0496                     i1l9083:	
  5006                           ;Interrupt.c: 110: }
  5007                           ;Interrupt.c: 112: if(Open_Cover_Flag == 1)
  5008  0496  1283               	bcf	status, 5	;RP0=0, select bank0
  5009  0497  1303               	bcf	status, 6	;RP1=0, select bank0
  5010  0498  083D               	movf	(_Open_Cover_Flag),w
  5011  0499  3A01               	xorlw	01h
  5012  049A  1D03               	skipz
  5013  049B  2C9D               	goto	u316_21
  5014  049C  2C9E               	goto	u316_20
  5015  049D                     u316_21:
  5016  049D  2CA4               	goto	i1l2034
  5017  049E                     u316_20:
  5018                           	line	114
  5019                           	
  5020  049E                     i1l9085:	
  5021                           ;Interrupt.c: 113: {
  5022                           ;Interrupt.c: 114: Open_Cover_times++;
  5023  049E  3001               	movlw	low(01h)
  5024  049F  07AE               	addwf	(_Open_Cover_times),f
  5025  04A0  1803               	skipnc
  5026  04A1  0AAF               	incf	(_Open_Cover_times+1),f
  5027  04A2  3000               	movlw	high(01h)
  5028  04A3  07AF               	addwf	(_Open_Cover_times+1),f
  5029                           	line	115
  5030                           	
  5031  04A4                     i1l2034:	
  5032                           	line	117
  5033                           ;Interrupt.c: 115: }
  5034                           ;Interrupt.c: 117: if(Count_Flag == 1)
  5035  04A4  0876               	movf	(_Count_Flag),w
  5036  04A5  3A01               	xorlw	01h
  5037  04A6  1D03               	skipz
  5038  04A7  2CA9               	goto	u317_21
  5039  04A8  2CAA               	goto	u317_20
  5040  04A9                     u317_21:
  5041  04A9  2CEC               	goto	i1l9101
  5042  04AA                     u317_20:
  5043                           	line	119
  5044                           	
  5045  04AA                     i1l9087:	
  5046                           ;Interrupt.c: 118: {
  5047                           ;Interrupt.c: 119: Flag_working_time++;
  5048  04AA  3001               	movlw	low(01h)
  5049  04AB  07AC               	addwf	(_Flag_working_time),f
  5050  04AC  1803               	skipnc
  5051  04AD  0AAD               	incf	(_Flag_working_time+1),f
  5052  04AE  3000               	movlw	high(01h)
  5053  04AF  07AD               	addwf	(_Flag_working_time+1),f
  5054                           	line	120
  5055                           ;Interrupt.c: 120: if((Flag_working_time >= 6000) )
  5056  04B0  3017               	movlw	high(01770h)
  5057  04B1  022D               	subwf	(_Flag_working_time+1),w
  5058  04B2  3070               	movlw	low(01770h)
  5059  04B3  1903               	skipnz
  5060  04B4  022C               	subwf	(_Flag_working_time),w
  5061  04B5  1C03               	skipc
  5062  04B6  2CB8               	goto	u318_21
  5063  04B7  2CB9               	goto	u318_20
  5064  04B8                     u318_21:
  5065  04B8  2CC2               	goto	i1l9093
  5066  04B9                     u318_20:
  5067                           	line	122
  5068                           	
  5069  04B9                     i1l9089:	
  5070                           ;Interrupt.c: 121: {
  5071                           ;Interrupt.c: 122: Start_Flag = 1;
  5072  04B9  01BE               	clrf	(_Start_Flag)
  5073  04BA  1403               	bsf	status,0
  5074  04BB  0DBE               	rlf	(_Start_Flag),f
  5075                           	line	123
  5076                           ;Interrupt.c: 123: Stop_Flag = 1;
  5077  04BC  01C0               	clrf	(_Stop_Flag)
  5078  04BD  1403               	bsf	status,0
  5079  04BE  0DC0               	rlf	(_Stop_Flag),f
  5080                           	line	124
  5081                           	
  5082  04BF                     i1l9091:	
  5083                           ;Interrupt.c: 124: Flag_working_time = 0;
  5084  04BF  01AC               	clrf	(_Flag_working_time)
  5085  04C0  01AD               	clrf	(_Flag_working_time+1)
  5086  04C1  2CC2               	goto	i1l9093
  5087                           	line	125
  5088                           	
  5089  04C2                     i1l2036:	
  5090                           	line	126
  5091                           	
  5092  04C2                     i1l9093:	
  5093                           ;Interrupt.c: 125: }
  5094                           ;Interrupt.c: 126: if(Flag_working_time > 400)
  5095  04C2  3001               	movlw	high(0191h)
  5096  04C3  022D               	subwf	(_Flag_working_time+1),w
  5097  04C4  3091               	movlw	low(0191h)
  5098  04C5  1903               	skipnz
  5099  04C6  022C               	subwf	(_Flag_working_time),w
  5100  04C7  1C03               	skipc
  5101  04C8  2CCA               	goto	u319_21
  5102  04C9  2CCB               	goto	u319_20
  5103  04CA                     u319_21:
  5104  04CA  2CE9               	goto	i1l2037
  5105  04CB                     u319_20:
  5106                           	line	128
  5107                           	
  5108  04CB                     i1l9095:	
  5109                           ;Interrupt.c: 127: {
  5110                           ;Interrupt.c: 128: Speed_LED_times++;
  5111  04CB  3001               	movlw	low(01h)
  5112  04CC  07B2               	addwf	(_Speed_LED_times),f
  5113  04CD  1803               	skipnc
  5114  04CE  0AB3               	incf	(_Speed_LED_times+1),f
  5115  04CF  3000               	movlw	high(01h)
  5116  04D0  07B3               	addwf	(_Speed_LED_times+1),f
  5117                           	line	129
  5118                           ;Interrupt.c: 129: if(Speed_LED_times == 20)
  5119  04D1  3014               	movlw	014h
  5120  04D2  0632               	xorwf	(_Speed_LED_times),w
  5121  04D3  0433               	iorwf	(_Speed_LED_times+1),w
  5122  04D4  1D03               	skipz
  5123  04D5  2CD7               	goto	u320_21
  5124  04D6  2CD8               	goto	u320_20
  5125  04D7                     u320_21:
  5126  04D7  2CEA               	goto	i1l2039
  5127  04D8                     u320_20:
  5128                           	line	131
  5129                           	
  5130  04D8                     i1l9097:	
  5131                           ;Interrupt.c: 130: {
  5132                           ;Interrupt.c: 131: PORTBbits.RB0 = ~ PORTBbits.RB0;
  5133  04D8  1003               	clrc
  5134  04D9  1C06               	btfss	(6),0	;volatile
  5135  04DA  1403               	setc
  5136  04DB  1803               	btfsc	status,0
  5137  04DC  2CDE               	goto	u321_21
  5138  04DD  2CE2               	goto	u321_20
  5139                           	
  5140  04DE                     u321_21:
  5141  04DE  1283               	bcf	status, 5	;RP0=0, select bank0
  5142  04DF  1303               	bcf	status, 6	;RP1=0, select bank0
  5143  04E0  1406               	bsf	(6),0	;volatile
  5144  04E1  2CE5               	goto	u322_24
  5145  04E2                     u321_20:
  5146  04E2  1283               	bcf	status, 5	;RP0=0, select bank0
  5147  04E3  1303               	bcf	status, 6	;RP1=0, select bank0
  5148  04E4  1006               	bcf	(6),0	;volatile
  5149  04E5                     u322_24:
  5150                           	line	132
  5151                           	
  5152  04E5                     i1l9099:	
  5153                           ;Interrupt.c: 132: Speed_LED_times = 0;
  5154  04E5  01B2               	clrf	(_Speed_LED_times)
  5155  04E6  01B3               	clrf	(_Speed_LED_times+1)
  5156  04E7  2CEA               	goto	i1l2039
  5157                           	line	133
  5158                           	
  5159  04E8                     i1l2038:	
  5160                           	line	134
  5161                           ;Interrupt.c: 133: }
  5162                           ;Interrupt.c: 134: }else PORTBbits.RB0 = 1;asm ("NOP");
  5163  04E8  2CEA               	goto	i1l2039
  5164                           	
  5165  04E9                     i1l2037:	
  5166  04E9  1406               	bsf	(6),0	;volatile
  5167                           	
  5168  04EA                     i1l2039:	
  5169                           # 134 "Interrupt.c"
  5170  04EA  0000               NOP ;#
  5171                           psect	text843
  5172                           	line	135
  5173                           ;Interrupt.c: 135: } else Flag_working_time = 0;
  5174  04EB  2CF1               	goto	i1l2041
  5175                           	
  5176  04EC                     i1l2035:	
  5177                           	
  5178  04EC                     i1l9101:	
  5179  04EC  1283               	bcf	status, 5	;RP0=0, select bank0
  5180  04ED  1303               	bcf	status, 6	;RP1=0, select bank0
  5181  04EE  01AC               	clrf	(_Flag_working_time)
  5182  04EF  01AD               	clrf	(_Flag_working_time+1)
  5183  04F0  2CF1               	goto	i1l2041
  5184                           	
  5185  04F1                     i1l2040:	
  5186                           	line	136
  5187                           	
  5188  04F1                     i1l2041:	
  5189  04F1  0008               	return
  5190                           	opt stack 0
  5191                           GLOBAL	__end_of_TMR1_int
  5192  04F2                     	__end_of_TMR1_int:
  5193 ;; =============== function _TMR1_int ends ============
  5194                           
  5195                           	signat	_TMR1_int,88
  5196                           	global	_TMR2_int
  5197                           psect	text844,local,class=CODE,delta=2
  5198                           global __ptext844
  5199  06E7                     __ptext844:
  5200                           
  5201 ;; *************** function _TMR2_int *****************
  5202 ;; Defined at:
  5203 ;;		line 138 in file "Interrupt.c"
  5204 ;; Parameters:    Size  Location     Type
  5205 ;;		None
  5206 ;; Auto vars:     Size  Location     Type
  5207 ;;		None
  5208 ;; Return value:  Size  Location     Type
  5209 ;;		None               void
  5210 ;; Registers used:
  5211 ;;		wreg, status,2
  5212 ;; Tracked objects:
  5213 ;;		On entry : 0/0
  5214 ;;		On exit  : 0/0
  5215 ;;		Unchanged: 0/0
  5216 ;; Data sizes:     COMMON   BANK0   BANK1   BANK3   BANK2
  5217 ;;      Params:         0       0       0       0       0
  5218 ;;      Locals:         0       0       0       0       0
  5219 ;;      Temps:          0       0       0       0       0
  5220 ;;      Totals:         0       0       0       0       0
  5221 ;;Total ram usage:        0 bytes
  5222 ;; Hardware stack levels used:    1
  5223 ;; This function calls:
  5224 ;;		Nothing
  5225 ;; This function is called by:
  5226 ;;		_com
  5227 ;; This function uses a non-reentrant model
  5228 ;;
  5229                           psect	text844
  5230                           	file	"Interrupt.c"
  5231                           	line	138
  5232                           	global	__size_of_TMR2_int
  5233  0019                     	__size_of_TMR2_int	equ	__end_of_TMR2_int-_TMR2_int
  5234                           	
  5235  06E7                     _TMR2_int:	
  5236                           	opt	stack 3
  5237                           ; Regs used in _TMR2_int: [wreg+status,2]
  5238                           	line	139
  5239                           	
  5240  06E7                     i1l9025:	
  5241                           ;Interrupt.c: 139: TMR2IF=0;
  5242  06E7  1283               	bcf	status, 5	;RP0=0, select bank0
  5243  06E8  1303               	bcf	status, 6	;RP1=0, select bank0
  5244  06E9  108C               	bcf	(97/8),(97)&7
  5245                           	line	140
  5246                           	
  5247  06EA                     i1l9027:	
  5248                           ;Interrupt.c: 140: TMR2=0;
  5249  06EA  0191               	clrf	(17)	;volatile
  5250                           	line	141
  5251                           	
  5252  06EB                     i1l9029:	
  5253                           ;Interrupt.c: 141: FG_Period_time++;
  5254  06EB  3001               	movlw	low(01h)
  5255  06EC  07A6               	addwf	(_FG_Period_time),f
  5256  06ED  1803               	skipnc
  5257  06EE  0AA7               	incf	(_FG_Period_time+1),f
  5258  06EF  3000               	movlw	high(01h)
  5259  06F0  07A7               	addwf	(_FG_Period_time+1),f
  5260                           	line	142
  5261                           	
  5262  06F1                     i1l9031:	
  5263                           ;Interrupt.c: 142: if(FG_Period_time >=300) FG_Period_time = 300;
  5264  06F1  3001               	movlw	high(012Ch)
  5265  06F2  0227               	subwf	(_FG_Period_time+1),w
  5266  06F3  302C               	movlw	low(012Ch)
  5267  06F4  1903               	skipnz
  5268  06F5  0226               	subwf	(_FG_Period_time),w
  5269  06F6  1C03               	skipc
  5270  06F7  2EF9               	goto	u303_21
  5271  06F8  2EFA               	goto	u303_20
  5272  06F9                     u303_21:
  5273  06F9  2EFF               	goto	i1l2045
  5274  06FA                     u303_20:
  5275                           	
  5276  06FA                     i1l9033:	
  5277  06FA  302C               	movlw	low(012Ch)
  5278  06FB  00A6               	movwf	(_FG_Period_time)
  5279  06FC  3001               	movlw	high(012Ch)
  5280  06FD  00A7               	movwf	((_FG_Period_time))+1
  5281  06FE  2EFF               	goto	i1l2045
  5282                           	
  5283  06FF                     i1l2044:	
  5284                           	line	143
  5285                           	
  5286  06FF                     i1l2045:	
  5287  06FF  0008               	return
  5288                           	opt stack 0
  5289                           GLOBAL	__end_of_TMR2_int
  5290  0700                     	__end_of_TMR2_int:
  5291 ;; =============== function _TMR2_int ends ============
  5292                           
  5293                           	signat	_TMR2_int,88
  5294                           	global	_RBCN_int
  5295                           psect	text845,local,class=CODE,delta=2
  5296                           global __ptext845
  5297  06C5                     __ptext845:
  5298                           
  5299 ;; *************** function _RBCN_int *****************
  5300 ;; Defined at:
  5301 ;;		line 145 in file "Interrupt.c"
  5302 ;; Parameters:    Size  Location     Type
  5303 ;;		None
  5304 ;; Auto vars:     Size  Location     Type
  5305 ;;  Sameple         1    1[COMMON] unsigned char 
  5306 ;; Return value:  Size  Location     Type
  5307 ;;		None               void
  5308 ;; Registers used:
  5309 ;;		wreg, status,2, status,0
  5310 ;; Tracked objects:
  5311 ;;		On entry : 0/0
  5312 ;;		On exit  : 0/0
  5313 ;;		Unchanged: 0/0
  5314 ;; Data sizes:     COMMON   BANK0   BANK1   BANK3   BANK2
  5315 ;;      Params:         0       0       0       0       0
  5316 ;;      Locals:         1       0       0       0       0
  5317 ;;      Temps:          1       0       0       0       0
  5318 ;;      Totals:         2       0       0       0       0
  5319 ;;Total ram usage:        2 bytes
  5320 ;; Hardware stack levels used:    1
  5321 ;; This function calls:
  5322 ;;		Nothing
  5323 ;; This function is called by:
  5324 ;;		_com
  5325 ;; This function uses a non-reentrant model
  5326 ;;
  5327                           psect	text845
  5328                           	file	"Interrupt.c"
  5329                           	line	145
  5330                           	global	__size_of_RBCN_int
  5331  0022                     	__size_of_RBCN_int	equ	__end_of_RBCN_int-_RBCN_int
  5332                           	
  5333  06C5                     _RBCN_int:	
  5334                           	opt	stack 3
  5335                           ; Regs used in _RBCN_int: [wreg+status,2+status,0]
  5336                           	line	147
  5337                           	
  5338  06C5                     i1l9009:	
  5339                           ;Interrupt.c: 146: unsigned char Sameple;
  5340                           ;Interrupt.c: 147: Sameple = PORTB;
  5341  06C5  1283               	bcf	status, 5	;RP0=0, select bank0
  5342  06C6  1303               	bcf	status, 6	;RP1=0, select bank0
  5343  06C7  0806               	movf	(6),w	;volatile
  5344  06C8  00F0               	movwf	(??_RBCN_int+0)+0
  5345  06C9  0870               	movf	(??_RBCN_int+0)+0,w
  5346  06CA  00F1               	movwf	(RBCN_int@Sameple)
  5347                           	line	148
  5348                           	
  5349  06CB                     i1l9011:	
  5350                           ;Interrupt.c: 148: RBIF=0;
  5351  06CB  100B               	bcf	(88/8),(88)&7
  5352                           	line	149
  5353                           	
  5354  06CC                     i1l9013:	
  5355                           ;Interrupt.c: 149: FG_CN_Count++;
  5356  06CC  3001               	movlw	(01h)
  5357  06CD  00F0               	movwf	(??_RBCN_int+0)+0
  5358  06CE  0870               	movf	(??_RBCN_int+0)+0,w
  5359  06CF  07F7               	addwf	(_FG_CN_Count),f
  5360                           	line	150
  5361                           	
  5362  06D0                     i1l9015:	
  5363                           ;Interrupt.c: 150: if(FG_CN_Count==3)
  5364  06D0  0877               	movf	(_FG_CN_Count),w
  5365  06D1  3A03               	xorlw	03h
  5366  06D2  1D03               	skipz
  5367  06D3  2ED5               	goto	u302_21
  5368  06D4  2ED6               	goto	u302_20
  5369  06D5                     u302_21:
  5370  06D5  2EE4               	goto	i1l2048
  5371  06D6                     u302_20:
  5372                           	line	152
  5373                           	
  5374  06D6                     i1l9017:	
  5375                           ;Interrupt.c: 151: {
  5376                           ;Interrupt.c: 152: FG_CN_Count=0;
  5377  06D6  01F7               	clrf	(_FG_CN_Count)
  5378                           	line	153
  5379                           ;Interrupt.c: 153: TMR2ON=0;
  5380  06D7  1112               	bcf	(146/8),(146)&7
  5381                           	line	154
  5382                           	
  5383  06D8                     i1l9019:	
  5384                           ;Interrupt.c: 154: Flag_FG_Period=1;
  5385  06D8  01D1               	clrf	(_Flag_FG_Period)
  5386  06D9  1403               	bsf	status,0
  5387  06DA  0DD1               	rlf	(_Flag_FG_Period),f
  5388                           	line	155
  5389                           	
  5390  06DB                     i1l9021:	
  5391                           ;Interrupt.c: 155: Flag_FG_Period_time=FG_Period_time;
  5392  06DB  0827               	movf	(_FG_Period_time+1),w
  5393  06DC  01A9               	clrf	(_Flag_FG_Period_time+1)
  5394  06DD  07A9               	addwf	(_Flag_FG_Period_time+1)
  5395  06DE  0826               	movf	(_FG_Period_time),w
  5396  06DF  01A8               	clrf	(_Flag_FG_Period_time)
  5397  06E0  07A8               	addwf	(_Flag_FG_Period_time)
  5398                           
  5399                           	line	156
  5400                           	
  5401  06E1                     i1l9023:	
  5402                           ;Interrupt.c: 156: FG_Period_time=0;
  5403  06E1  01A6               	clrf	(_FG_Period_time)
  5404  06E2  01A7               	clrf	(_FG_Period_time+1)
  5405                           	line	157
  5406                           ;Interrupt.c: 157: }
  5407  06E3  2EE6               	goto	i1l2050
  5408                           	line	158
  5409                           	
  5410  06E4                     i1l2048:	
  5411                           	line	160
  5412                           ;Interrupt.c: 158: else
  5413                           ;Interrupt.c: 159: {
  5414                           ;Interrupt.c: 160: TMR2ON=1;
  5415  06E4  1512               	bsf	(146/8),(146)&7
  5416  06E5  2EE6               	goto	i1l2050
  5417                           	line	161
  5418                           	
  5419  06E6                     i1l2049:	
  5420                           	line	163
  5421                           	
  5422  06E6                     i1l2050:	
  5423  06E6  0008               	return
  5424                           	opt stack 0
  5425                           GLOBAL	__end_of_RBCN_int
  5426  06E7                     	__end_of_RBCN_int:
  5427 ;; =============== function _RBCN_int ends ============
  5428                           
  5429                           	signat	_RBCN_int,88
  5430                           psect	text846,local,class=CODE,delta=2
  5431                           global __ptext846
  5432  0000                     __ptext846:
  5433                           	global	btemp
  5434  007E                     	btemp set 07Eh
  5435                           
  5436                           	DABS	1,126,2	;btemp
  5437                           	global	wtemp0
  5438  007E                     	wtemp0 set btemp


HI-TECH Software PICC Macro Assembler V9.82 build 9453 
Symbol Table                                                                                   Fri Nov 22 09:09:40 2019

                            _GO 00F9                              _RD 0C60                              _WR 0C61  
                            fsr 0004                             l970 072A                             l973 0715  
                           l982 0750                             l967 078C                             l991 0648  
                           l976 0760                             l985 076E                             l979 0778  
                           _GIE 005F                             l988 0787                             _PR2 0092  
                           _PEN 048A                             _SEN 0488                             _kai 0044  
                           _com 0649                             fsr0 0004                             indf 0000  
                 _Key_Run_times 0078                            l3100 01D9                            l3101 01C8  
                          l3110 0232                            l3102 01D8                            l3111 0226  
                          l3103 020E                            l3112 0230                            l3104 020D  
                          l3113 0231                            l3105 01FC                            l3114 0235  
                          l3106 020C                            l3115 0236                            l3107 0234  
                          l3116 0236                            l3108 021B                            l3109 0233  
                          l3119 069F                            l4111 0342                            l3080 006E  
                          l3081 00A5                            l3073 0024                            l4114 04F4  
                          l3090 00F2                            l3082 0095                            l3074 002D  
                          l4115 04F3                            l3091 0110                            l3083 00A4  
                          l3075 0030                            l5100 0363                            l4116 04FA  
                          l3092 013F                            l3084 00A3                            l3076 0040  
                          l5101 036A                            l4117 0524                            l3093 020F  
                          l3085 00F5                            l3077 004A                            l5110 03F0  
                          l5102 0392                            l4118 054C                            l3094 01DB  
                          l3086 00CD                            l3078 004A                            l5111 03D9  
                          l5103 037B                            l4119 054D                            l3095 0191  
                          l3087 00F4                            l3079 0055                            ?_com 0070  
                          l5112 03F0                            l5104 0392                            l3096 0154  
                          l3088 00E4                            l5121 0735                            l5113 03F7  
                          l5105 0399                            l3097 0198                            l3089 00F3  
                          l5130 0605                            l5122 072C                            l5114 0416  
                          l5106 03C1                            l3098 01AA                            l5131 0616  
                          l5123 073E                            l5115 0400                            l5107 03AA  
                          l3099 01DA                            l5132 0616                            l5124 073E  
                          l5116 0416                            l5108 03C1                            l5117 041D  
                          l5109 03C8                            l5118 0422                            l5127 060B  
                          l6120 05E2                            l5128 05E8                            l5129 05F5  
                          l6117 05BF                            l6118 05BF                            l6119 05C4  
                          l5098 0363                            l5099 034D                            l7061 0596  
                          l7062 0568                            l7063 055C                            l7064 056D  
                          l7065 056E                            l7066 0587                            l7067 0595  
                          l7068 059D                            _ADIE 0466                            _ADIF 0066  
                          l9601 0743                            l9611 074F                            l9603 0744  
                          _ADON 00F8                            l9605 0745                            l9621 076D  
                          l9613 0761                            l9701 054E                            l9607 0749  
                          l9615 0765                            l9623 0781                            l9631 05A5  
                          l9711 0568                            l9703 0552                            l9561 071A  
                          l9609 074C                            l9617 0769                            l9625 0785  
                          l9641 05BD                            l9633 05B1                            l9721 058E  
                          l9713 056E                            l9705 0558                            l9801 0415  
                          l9563 071E                            l9571 0708                            l9619 076A  
                          l9627 0786                            l9643 05C4                            l9635 05B4  
                          l9651 05E3                            l9715 057F                            l9707 055C  
                          l9723 0596                            l9731 0640                            l9803 041D  
                          l9811 0683                            l9557 0788                            l9565 0723  
                          l9581 0713                            l9573 0709                            l9645 05CF  
                          l9637 05B7                            l9629 05A1                            l9661 0605  
                          l9653 05E8                            l9725 059D                            l9717 0585  
                          l9709 0563                            l9733 0643                            l9805 0421  
                          l9741 0349                            l9821 0693                            l9813 0684  
                          l9901 02F9                            l9567 0727                            l9559 0716  
                          l9583 0714                            l9575 070C                            l9591 075E  
                          l9647 05DB                            l9639 05BA                            l9655 05EA  
                          l9719 0587                            l9735 0644                            l9727 0617  
                          l9751 036E                            l9743 034D                            l9831 069C  
                          l9823 0696                            l9815 0686                            l9807 0678  
                          l9911 0329                            l9903 0305                            l9577 070F  
                          l9569 0700                            l9585 0751                            l9593 076F  
                          l9649 05E2                            l9657 05F4                            l9729 063F  
                          l9761 0391                            l9753 036F                            l9745 0354  
                          l9737 0346                            l9825 0697                            l9817 0687  
                          l9809 067F                            l9841 050D                            l9833 04F2  
                          l9913 033D                            l9905 0310                            l9921 001A  
                          l9579 0710                            l9587 0755                            l9595 0777  
                          l9659 05F5                            l9771 03AA                            l9763 0399  
                          l9755 0371                            l9747 0362                            l9739 0348  
                          l9827 069A                            l9819 0688                            l9851 052D  
                          l9843 0511                            l9835 04F4                            l9915 033E  
                          l9907 031D                            l9931 003B                            l9923 0024  
                          l9589 075B                            l9597 073F                            l9781 03CD  
                          l9773 03B2                            l9765 039D                            l9757 037B  
                          l9749 036A                            l9829 069B                            l9853 0535  
                          l9861 054C                            l9845 0515                            l9837 04FC  
                          l9917 0341                            l9909 0328                            l9941 0055  
                          l9933 0040                            l9925 002A                            l9599 0742  
                          l9695 072B                            l9791 03F7                            l9783 03CF  
                          l9775 03C0                            l9767 039E                            l9759 0383  
                          l9855 0539                            l9847 051F                            l9839 0505  
                          l9871 0268                            l9863 0239                            l9951 0089  
                          l9943 0063                            l9935 0047                            l9927 0030  
                          l9919 0015                            l9697 072C                            l9793 03FB  
                          l9785 03D9                            l9777 03C8                            l9769 03A0  
                          l9857 053D                            l9849 0524                            l9881 0298  
                          l9873 0269                            l9865 0245                            l9961 00B0  
                          l9953 0092                            l9945 0067                            l9937 004D  
                          l9929 0035                            l9699 0735                            l9795 03FC  
                          l9787 03E1                            l9779 03CC                            l9859 0547  
                          l9891 02C8                            l9883 0299                            l9875 0275  
                          l9867 0250                            l9971 00D8                            l9963 00B2  
                          l9955 0095                            l9939 0054                            l9947 006E  
                          l9797 0400                            l9789 03EF                            l9893 02D5  
                          l9885 02B0                            l9877 0280                            l9869 0251  
                          l9981 00FD                            l9973 00E1                            l9965 00BD  
                          l9957 00A0                            l9949 0085                            l9799 0407  
                          l9895 02E0                            l9887 02B1                            l9879 028D  
                          l9991 011D                            l9983 0102                            l9975 00E4  
                          l9967 00C0                            l9959 00A5                            l9897 02E1  
                          l9889 02BD                            l9993 011F                            l9985 010C  
                          l9977 00EF                            l9969 00CD                            l9899 02F8  
                          l9995 012A                            l9987 0110                            l9979 00F5  
                          l9997 012D                            l9989 0118                            l9999 012E  
                          _T0IE 005D                            _IOCB 0096                            u4000 03BF  
                          u4001 03BE                            u4010 03C7                            u4011 03C6  
                          u4020 03EE                            u4100 0035                            u4021 03ED  
                          u4005 03BB                            u4101 0034                            u4030 03F6  
                          u4110 003B                            u4031 03F5                            u4111 003A  
                          u4040 0414                            u4200 00E1                            u4120 0047  
                          u4041 0413                            u4025 03EA                            u4201 00E0  
                          u4121 0046                            u4050 041C                            u4210 00EF  
                          u4130 0053                            u4051 041B                            u4211 00EE  
                          u4131 0052                            u4060 04FA                            u4300 019D  
                          u4220 00FD                            u4140 006D                            u4045 0410  
                          u4301 019C                            u4221 00FC                            u4141 006C  
                          u4070 0505                            u4310 01A3                            u4230 0102  
                          u4150 0089                            u4071 0504                            u4311 01A2  
                          u4231 0101                            u4151 0088                            u4080 052D  
                          u4400 0225                            u4320 01B2                            u4240 0118  
                          u4160 0092                            u4081 052C                            u4401 0224  
                          u4321 01B1                            u4241 0117                            u4161 0091  
                          u4330 01BA                            u4250 011D                            u4170 00A0  
                          u4090 002A                            u4331 01B9                            u4251 011C  
                          u4171 009F                            u4091 0029                            u4340 01D2  
                          u4260 0143                            u4180 00B0                            u4341 01D1  
                          u4261 0142                            u4181 00AF                            u4350 01E3  
                          u4270 0149                            u4190 00D8                            u4351 01E2  
                          u4271 0148                            u4191 00D7                            u4360 01F1  
                          u4280 014F                            u4361 01F0                            u4281 014E  
                          u4370 0206                            u4290 0197                            u4371 0205  
                          _PEIE 005E                            u4380 0213                            u4381 0212  
                          u3830 05C3                            u3910 056C                            u4390 021F  
                          u3831 05C2                            u3911 056B                            u4391 021E  
                          _RBIE 005B                            u3840 05F3                            _RBIF 0058  
                          u3825 05A8                            u3841 05F2                            u3905 055D  
                          u3850 0604                            u3930 057F                            u3851 0603  
                          u3931 057E                            u3860 0615                            u3861 0614  
                          u3925 056F                            u3950 0594                            u3951 0593  
                          u3935 057B                            u3880 073D                            u3960 0361  
                          u3865 0611                            u3881 073C                            u3945 0588  
                          u3961 0360                            u3890 0558                            u3970 0369  
                          u3891 0557                            u3971 0368                            u3980 0390  
                          u3981 038F                            u3965 035D                            u3990 0398  
                          u3991 0397                            u3985 038C                            _TMR0 0001  
                          _TMR1 000E                            _TMR2 0011                            _WREN 0C62  
                          _VOLT 004F                            _Once 0039                            _main 0015  
                 ??_InitDevices 0045                            btemp 007E              _REALVOLTAGE_BAT_DC 0030  
                          start 0012          __size_of_InitialiseADC 0016                 __end_of_ReadADC 05E3  
                         ??_com 0072                __end_of_IIC_init 0761                           l10001 0131  
                         l10011 013A                           l10003 0132                           l10021 014F  
                         l10013 013B                           l10005 0135                           l10031 017D  
                         l10023 0154                           l10007 0136                           l10015 013F  
                         l10041 01A4                           l10025 015A                           l10033 0191  
                         l10017 0143                           l10009 0139                           l10051 01C4  
                         l10043 01AA                           l10035 0198                           l10027 0166  
                         l10019 0149                           l10061 01E3                           l10053 01C8  
                         l10045 01B2                           l10037 019D                           l10029 0171  
                         l10071 01FD                           l10063 01E4                           l10055 01C9  
                         l10047 01BA                           l10039 01A3                           l10073 0206  
                         l10065 01F1                           l10057 01D2                           l10049 01BF  
                         l10075 0213                           l10067 01F6                           l10059 01DB  
                         l10077 021F                           l10069 01FC                           l10079 0226  
                         ?_main 0070                           _EEADR 010D                           _CARRY 0018  
              __end_of_RBCN_int 06E7                           _ANSEL 0188                           _T1CON 0010  
                         _T2CON 0012                 __end_of___lwdiv 059E           _Motor_adjusting_speed 04F2  
                         _PORTA 0005                           _PORTB 0006                           _PORTC 0007  
                         _TRISA 0085                           _TRISB 0086                           _TRISC 0087  
                         _SSPIF 0063                           _Delay 072B                           _adsum 0043  
              __end_of_TMR1_int 04F2                __end_of_TMR2_int 0700                           main@i 004E  
                __pbitbssCOMMON 03D8                           pclath 000A                      _Count_Flag 0076  
                         status 0003                           wtemp0 007E                      _InitTimer0 076F  
                    _InitTimer1 073F                      _InitTimer2 0761                    __end_of_main 0239  
           __end_of_InitDevices 0649                          ??_main 004D                          ?_Delay 0045  
                 _InitialiseADC 0700                __end_of_PortInit 072B                          _ADCON0 001F  
                        _ADCON1 009F                          _ADRESH 001E                          _ADRESL 009E  
                        _EEDATA 010C                          _EECON1 018C                          _EECON2 018D  
                        _ANSELH 0189                          i1l2020 066B                          i1l2021 066B  
                        i1l2030 0473                          i1l2031 0493                          i1l2040 04F1  
                        i1l2032 0492                          i1l2024 0467                          i1l2041 04F1  
                        i1l2033 0495                          i1l2025 0444                          i1l2050 06E6  
                        i1l2034 04A4                          i1l2026 0464                          i1l2018 0653  
                        i1l2035 04EC                          i1l2027 0463                          i1l2019 065F  
                        i1l2044 06FF                          i1l2036 04C2                          i1l2028 0466  
                        i1l2045 06FF                          i1l2037 04E9                          i1l2029 0496  
                        i1l2038 04E8                          i1l2039 04EA                          i1l2048 06E4  
                        i1l2049 06E6                          u300_20 0659                          u300_21 0658  
                        u301_20 0665                          u301_21 0664                          i1l9001 0653  
                        Delay@n 0045                          i1l9011 06CB                          i1l9003 0659  
                        i1l9021 06DB                          i1l9013 06CC                          i1l9101 04EC  
                        i1l9005 065F                          i1l9023 06E1                          i1l9015 06D0  
                        i1l9031 06F1                          i1l9007 0665                          u302_20 06D6  
                        u310_20 0458                          i1l9017 06D6                          u302_21 06D5  
                        i1l9009 06C5                          i1l9033 06FA                          i1l9025 06E7  
                        u310_21 0457                          i1l9041 0434                          i1l9019 06D8  
                        i1l9027 06EA                          i1l9051 044D                          i1l9043 043A  
                        i1l9035 0423                          i1l9029 06EB                          i1l9061 045F  
                        i1l9053 0451                          i1l9045 043F                          i1l9037 042B  
                        i1l9071 047C                          i1l9055 0452                          i1l9047 0443  
                        i1l9063 0467                          i1l9039 0430                          u303_20 06FA  
                        u311_20 046C                          u303_21 06F9                          i1l9081 048E  
                        i1l9073 0480                          i1l9065 046C                          u311_21 046B  
                        i1l9057 0458                          i1l9049 0448                          i1l9091 04BF  
                        i1l9075 0481                          i1l9067 0472                          i1l9083 0496  
                        i1l9059 045E                          i1l9093 04C2                          i1l9085 049E  
                        i1l9077 0489                          i1l9069 0477                          i1l9095 04CB  
                        i1l9087 04AA                          i1l9079 048D                          u320_20 04D8  
                        u312_20 0472                          u304_20 0434                          i1l9097 04D8  
                        u320_21 04D7                          i1l9089 04B9                          u312_21 0471  
                        u304_21 0433                          i1l9099 04E5                          u321_20 04E2  
                        u313_20 0477                          u305_20 043A                          u321_21 04DE  
                        u313_21 0476                          u305_21 0439                          u314_20 047C  
                        u306_20 043F                          u314_21 047B                          u306_21 043E  
                        u322_24 04E5                          u315_20 0489                          u307_20 0443  
                        u315_21 0488                          u307_21 0442                          i1l8997 0649  
                        i1l8999 064D                          u316_20 049E                          u308_20 0448  
                        u316_21 049D                          u308_21 0447                          u317_20 04AA  
                        u309_20 044D                          u317_21 04A9                          u309_21 044C  
                        u318_20 04B9                          u318_21 04B8                          u319_20 04CB  
                        u319_21 04CA                          _OSCCON 008F                          u299_20 064D  
                        u299_21 064C                          _TMR1IE 0460                          _TMR1IF 0060  
                        _TMR1CS 0081                          _TMR2IE 0461                          _TMR2IF 0061  
                        _TMR1ON 0080                          _TMR2ON 0092                          _WDTCON 0105  
                        _SSPADD 0093                          _TRISC3 043B                          _TRISC4 043C  
                        _SSPCON 0014                          _SSPBUF 0013                          _VOLT_H 0041  
                        _VOLT_L 0042                       ??_ReadADC 0047                __end_of_delaynms 0617  
                        _InitCn 0781                          _Key_Up 0038                      _MotorClose 0239  
            __size_of_The_Close 0028                       ??___lwdiv 0049          ?_Motor_adjusting_speed 0070  
                        clrloop 077A                  ?_InitialiseADC 0070                          saved_w 007E  
                    _Start_Flag 003E                       ?_IIC_init 0070                     _InitDevices 0617  
                     ?_RBCN_int 0070                   __end_of_Delay 073F                     ?_InitTimer0 0070  
                   ?_InitTimer1 0070                     ?_InitTimer2 0070                  __pcstackCOMMON 0070  
                  __pidataBANK0 078D                       ?_TMR1_int 0070                       ?_TMR2_int 0070  
            ReadADC@ADC_Channel 0049                         ??_Delay 0047               __end_of_The_Close 06A0  
                    __pbssBANK0 0020                ReadADC@ADC_VALUE 0020                      ??_IIC_init 0045  
                    ??_RBCN_int 0070                         ?_InitCn 0070                     ?_MotorClose 0070  
                    __pmaintext 0015                       ?_PortInit 0070                      __pintentry 0004  
                    ??_TMR1_int 0070                      ??_TMR2_int 0070                         _ADC_Val 0022  
                _ADC_RESULT_BAT 0034                 ??_InitialiseADC 0045                     _Onekey_Flag 003A  
                       _GO_DONE 00F9                       ?_delaynms 0045                       TMR1_int@t 0071  
                _FG_Period_time 0026                         _SSPCON2 0091             __size_of_InitTimer0 000A  
           __size_of_InitTimer1 0012             __size_of_InitTimer2 000E                         _SSPSTAT 0094  
              write_IIC@wdate_H 0048                write_IIC@wdate_L 0047                         _ReadADC 059E  
            __size_of_write_IIC 00E0                         _Key_Run 0037                 RBCN_int@Sameple 0071  
               __size_of_InitCn 0007              __size_of_systemOSC 0005                         _Not_two 0079  
                    ??_PortInit 0045                _Open_Cover_times 002E            _Flag_adjusting_speed 002A  
                 _BAT_LED_times 0024                         ___lwdiv 054E               _Start_KeyRun_Flag 003F  
                     _T1CONbits 0010                    __size_of_com 002F                   _Onekey_Key_Up 003B  
                    ??_delaynms 0047             __size_of_MotorClose 010A            end_of_initialization 06C1  
                     _RELAY_BAT 03D9         ??_Motor_adjusting_speed 004B                       _PORTAbits 0005  
                     _PORTBbits 0006                       _PORTCbits 0007               __end_of_write_IIC 0423  
                  _Forbid_input 0035               __end_of_systemOSC 078D                 _Speed_LED_times 0032  
                  ?_InitDevices 0070               __size_of_IIC_init 0010                    ??_InitTimer0 0045  
                  ??_InitTimer1 0045                    ??_InitTimer2 0045                  __end_of_InitCn 0788  
             __size_of_RBCN_int 0022               __size_of_TMR1_int 00CF               __size_of_TMR2_int 0019  
           start_initialization 06A0                     __end_of_com 0678                    _Initial_Flag 0036  
            __end_of_InitTimer0 0779              __end_of_InitTimer1 0751              __end_of_InitTimer2 076F  
                     _The_Close 0678                        ??_InitCn 0045                    ??_MotorClose 004B  
             _Flag_working_time 002C                     __pdataBANK0 004F               __size_of_PortInit 0015  
                     _Stop_Flag 0040                     __pbssCOMMON 0076                   __pcstackBANK0 0045  
                     _Work_Flag 007A              __end_of_MotorClose 0343               __size_of_delaynms 0034  
                    ?_The_Close 0070                        ?_ReadADC 0045                ___lwdiv@dividend 0047  
                     __ptext830 054E                       __ptext831 072B                       __ptext840 0716  
                     __ptext832 05E3                       __ptext841 0788                       __ptext833 059E  
                     __ptext825 0239                       __ptext842 0649                       __ptext834 0781  
                     __ptext826 04F2                       __ptext843 0423                       __ptext835 0761  
                     __ptext827 0678                       __ptext844 06E7                       __ptext836 073F  
                     __ptext828 0343                       __ptext845 06C5                       __ptext837 076F  
                     __ptext829 0617                       __ptext846 0000                       __ptext838 0751  
                     __ptext839 0700                        ?___lwdiv 0045           __end_of_InitialiseADC 0716  
               _Open_Cover_Flag 003D                  __size_of_Delay 0014                ___lwdiv@quotient 004B  
             interrupt_function 0004                        _IIC_init 0751                       delaynms@i 0047  
                     delaynms@j 0049                       delaynms@n 0045                     _FG_CN_Count 0077  
                  _Onekey_times 003C                        _RBCN_int 06C5                        _RELAY_AC 03D8  
          __size_of_InitDevices 0032                        _TMR1_int 0423                        _TMR2_int 06E7  
__size_of_Motor_adjusting_speed 005C   __end_of_Motor_adjusting_speed 054E                       _write_IIC 0343  
                     _systemOSC 0788                     ??_The_Close 004B                __size_of_ReadADC 0045  
                      _PortInit 0716                __size_of___lwdiv 0050                 ___lwdiv@divisor 0045  
                      _delaynms 05E3                 ___lwdiv@counter 004A                      ?_write_IIC 0047  
                    ?_systemOSC 0070                   __size_of_main 0224                        clear_ram 0779  
                    write_IIC@t 0049                        intlevel1 0000                      _OPTION_REG 0081  
           _Flag_FG_Period_time 0028                     ??_write_IIC 0048                      _WDTCONbits 0105  
                   ??_systemOSC 0045                  _Flag_FG_Period 0051  
